 shonax

 Timestamp is 5e5a9580 (Sat Feb 29 17:46:56 2020)

 Preferred load address is 10000000

 Start         Length     Name                   Class
 0001:00000000 00001920H .text$di                CODE
 0001:00001920 00110350H .text$mn                CODE
 0001:00111c70 0000bd50H .text$x                 CODE
 0001:0011d9c0 00000549H .text$yd                CODE
 0002:00000000 000003f4H .idata$5                DATA
 0002:000003f4 00000004H .00cfg                  DATA
 0002:000003f8 00000004H .CRT$XCA                DATA
 0002:000003fc 00000004H .CRT$XCL                DATA
 0002:00000400 00000220H .CRT$XCU                DATA
 0002:00000620 00000004H .CRT$XCZ                DATA
 0002:00000624 00000004H .CRT$XIA                DATA
 0002:00000628 00000004H .CRT$XIC                DATA
 0002:0000062c 00000004H .CRT$XIZ                DATA
 0002:00000630 00000004H .CRT$XLA                DATA
 0002:00000634 00000004H .CRT$XLZ                DATA
 0002:00000638 00000004H .CRT$XPA                DATA
 0002:0000063c 00000004H .CRT$XPZ                DATA
 0002:00000640 00000004H .CRT$XTA                DATA
 0002:00000644 0000001cH .CRT$XTZ                DATA
 0002:00000648 00000000H .gfids$y                DATA
 0002:00000660 0008fd6cH .rdata                  DATA
 0002:000903cc 00000018H .rdata$T                DATA
 0002:000903e4 000024bcH .rdata$r                DATA
 0002:000928a0 000009acH .rdata$sxdata           DATA
 0002:0009324c 0000038cH .rdata$zzzdbg           DATA
 0002:000935d8 00000004H .rtc$IAA                DATA
 0002:000935dc 00000004H .rtc$IZZ                DATA
 0002:000935e0 00000004H .rtc$TAA                DATA
 0002:000935e4 00000004H .rtc$TZZ                DATA
 0002:000935e8 00000004H .tls                    DATA
 0002:000935ec 00000004H .tls$                   DATA
 0002:000935f0 00000008H .tls$ZZZ                DATA
 0002:000935f8 0000a6e8H .xdata$x                DATA
 0002:0009dce0 00000080H .edata                  DATA
 0002:0009dd60 00000140H .idata$2                DATA
 0002:0009dea0 00000014H .idata$3                DATA
 0002:0009deb4 000003f4H .idata$4                DATA
 0002:0009e2a8 00001fdcH .idata$6                DATA
 0003:00000000 00014ed8H .data                   DATA
 0003:00014ed8 00003788H .data$r                 DATA
 0003:00018660 000107ccH .bss                    DATA
 0004:00000000 00000060H .rsrc$01                DATA
 0004:00000060 00000180H .rsrc$02                DATA

  Address         Publics by Value              Rva+Base       Lib:Object

 0000:00000000       ___guard_fids_table        00000000     <absolute>
 0000:00000000       ___guard_fids_count        00000000     <absolute>
 0000:00000000       ___guard_longjmp_table     00000000     <absolute>
 0000:00000000       ___guard_iat_table         00000000     <absolute>
 0000:00000000       ___guard_longjmp_count     00000000     <absolute>
 0000:00000000       ___hybrid_auxiliary_iat    00000000     <absolute>
 0000:00000000       ___enclave_config          00000000     <absolute>
 0000:00000000       ___dynamic_value_reloc_table 00000000     <absolute>
 0000:00000000       ___volatile_metadata       00000000     <absolute>
 0000:00000000       ___AbsoluteZero            00000000     <absolute>
 0000:00000000       ___guard_iat_count         00000000     <absolute>
 0000:00000000       ___hybrid_code_map         00000000     <absolute>
 0000:00000000       ___hybrid_code_map_count   00000000     <absolute>
 0000:0000002c       __tls_array                0000002c     <absolute>
 0000:00000100       ___guard_flags             00000100     <absolute>
 0000:0000026b       ___safe_se_handler_count   0000026b     <absolute>
 0000:00000000       ___ImageBase               10000000     <linker-defined>
 0001:00001920       ??$?0$$V@?$_Compressed_pair@V?$allocator@D@std@@V?$_String_val@U?$_Simple_types@D@std@@@2@$00@std@@QAE@U_Zero_then_variadic_args_t@1@@Z 10002920 f i dll.obj
 0001:00001940       ??$?0AAPAVc_renderer@@@?$_Compressed_pair@U?$default_delete@Vc_renderer@@@std@@PAVc_renderer@@$00@std@@QAE@U_Zero_then_variadic_args_t@1@AAPAVc_renderer@@@Z 10002940 f i idirect3ddevice9.obj
 0001:00001940       ??$?0AAPAI@?$_Compressed_pair@U?$default_delete@$$BY0A@I@std@@PAI$00@std@@QAE@U_Zero_then_variadic_args_t@1@AAPAI@Z 10002940 f i c_client.obj
 0001:00001940       ??$?0AAPAV_Facet_base@std@@@?$_Compressed_pair@U?$default_delete@V_Facet_base@std@@@std@@PAV_Facet_base@2@$00@std@@QAE@U_Zero_then_variadic_args_t@1@AAPAV_Facet_base@1@@Z 10002940 f i dll.obj
 0001:00001940       ??$?0AAPAV?$c_hook@I@@@?$_Compressed_pair@U?$default_delete@V?$c_hook@I@@@std@@PAV?$c_hook@I@@$00@std@@QAE@U_Zero_then_variadic_args_t@1@AAPAV?$c_hook@I@@@Z 10002940 f i c_cs_player_.obj
 0001:00001970       ??$?0U?$default_delete@V?$c_hook@I@@@std@@$0A@@?$unique_ptr@V?$c_hook@I@@U?$default_delete@V?$c_hook@I@@@std@@@std@@QAE@PAV?$c_hook@I@@@Z 10002970 f i c_cs_player_.obj
 0001:00001970       ??$?0U?$default_delete@Vc_renderer@@@std@@$0A@@?$unique_ptr@Vc_renderer@@U?$default_delete@Vc_renderer@@@std@@@std@@QAE@PAVc_renderer@@@Z 10002970 f i idirect3ddevice9.obj
 0001:00001970       ??$?0PAIU?$default_delete@$$BY0A@I@std@@$0A@X@?$unique_ptr@$$BY0A@IU?$default_delete@$$BY0A@I@std@@@std@@QAE@PAI@Z 10002970 f i c_client.obj
 0001:00001970       ??$?0U?$default_delete@V_Facet_base@std@@@std@@$0A@@?$unique_ptr@V_Facet_base@std@@U?$default_delete@V_Facet_base@std@@@2@@std@@QAE@PAV_Facet_base@1@@Z 10002970 f i dll.obj
 0001:000019d0       ??$_Allocate@$07U_Default_allocate_traits@std@@$0A@@std@@YAPAXI@Z 100029d0 f i dll.obj
 0001:00001a10       ??$_Allocate_manually_vector_aligned@U_Default_allocate_traits@std@@@std@@YAPAXI@Z 10002a10 f i dll.obj
 0001:00001a80       ??$_Deallocate@$03$0A@@std@@YAXPAXI@Z 10002a80 f i c_aimhelper.obj
 0001:00001a80       ??$_Deallocate@$07$0A@@std@@YAXPAXI@Z 10002a80 f i dll.obj
 0001:00001ae0       ??$_Fgetc@D@std@@YA_NAADPAU_iobuf@@@Z 10002ae0 f i dll.obj
 0001:00001b10       ??$_Fputc@D@std@@YA_NDPAU_iobuf@@@Z 10002b10 f i dll.obj
 0001:00001b50       ??$move@AAH@std@@YA$$QAHAAH@Z 10002b50 f i c_aimhelper.obj
 0001:00001b50       ??$move@AAV?$_List_unchecked_iterator@V?$_List_val@U?$_List_simple_types@U?$pair@$$CBIUanimation_info@c_animation_system@@@std@@@std@@@std@@@std@@@std@@YA$$QAV?$_List_unchecked_iterator@V?$_List_val@U?$_List_simple_types@U?$pair@$$CBIUanimation_info@c_animation_system@@@std@@@std@@@std@@@0@AAV10@@Z 10002b50 f i c_animation_system.obj
 0001:00001b50       ??$addressof@PAU?$_List_node@U?$pair@$$CBIUnetvar@c_netvar@@@std@@PAX@std@@@std@@YAPAPAU?$_List_node@U?$pair@$$CBIUnetvar@c_netvar@@@std@@PAX@0@AAPAU10@@Z 10002b50 f i dllmain.obj
 0001:00001b50       ??$forward@V?$tuple@$$V@std@@@std@@YA$$QAV?$tuple@$$V@0@AAV10@@Z 10002b50 f i c_aimhelper.obj
 0001:00001b50       ??$move@AAV?$shared_ptr@Vc_image@@@std@@@std@@YA$$QAV?$shared_ptr@Vc_image@@@0@AAV10@@Z 10002b50 f i c_menu.obj
 0001:00001b50       ??$addressof@V?$_Deque_val@U?$_Deque_simple_types@Uanimation@c_animation_system@@@std@@@std@@@std@@YAPAV?$_Deque_val@U?$_Deque_simple_types@Uanimation@c_animation_system@@@std@@@0@AAV10@@Z 10002b50 f i c_animation_system.obj
 0001:00001b50       ??$addressof@U?$pair@PAVc_cs_player@@M@std@@@std@@YAPAU?$pair@PAVc_cs_player@@M@0@AAU10@@Z 10002b50 f i c_chams.obj
 0001:00001b50       ??$move@AAV?$shared_ptr@Vc_color_select@@@std@@@std@@YA$$QAV?$shared_ptr@Vc_color_select@@@0@AAV10@@Z 10002b50 f i c_visuals.obj
 0001:00001b50       ??$forward@AAU?$pair@V?$basic_string@DU?$char_traits@D@std@@V?$allocator@D@2@@std@@D@std@@@std@@YAAAU?$pair@V?$basic_string@DU?$char_traits@D@std@@V?$allocator@D@2@@std@@D@0@AAU10@@Z 10002b50 f i c_checkbox.obj
 0001:00001b50       ??$forward@ABUimpact_info@@@std@@YAABUimpact_info@@ABU1@@Z 10002b50 f i c_hitmarker.obj
 0001:00001b50       ??$move@AAV?$allocator@Uanimation@c_animation_system@@@std@@@std@@YA$$QAV?$allocator@Uanimation@c_animation_system@@@0@AAV10@@Z 10002b50 f i c_animation_system.obj
 0001:00001b50       ??$forward@ABV?$allocator@V?$_List_unchecked_iterator@V?$_List_val@U?$_List_simple_types@U?$pair@$$CBIVc_font@@@std@@@std@@@std@@@std@@@std@@@std@@YAABV?$allocator@V?$_List_unchecked_iterator@V?$_List_val@U?$_List_simple_types@U?$pair@$$CBIVc_font@@@std@@@std@@@std@@@std@@@0@ABV10@@Z 10002b50 f i c_renderer.obj
 0001:00001b50       ??$_Get_unwrapped_n@V?$_List_unchecked_iterator@V?$_List_val@U?$_List_simple_types@U?$pair@QAVc_hotkey_select@@V?$function@$$A6AXI@Z@std@@@std@@@std@@@std@@@std@@H$0A@@std@@YAPAV?$_List_unchecked_iterator@V?$_List_val@U?$_List_simple_types@U?$pair@QAVc_hotkey_select@@V?$function@$$A6AXI@Z@std@@@std@@@std@@@std@@@0@QAV10@H@Z 10002b50 f i c_hotkeys.obj
 0001:00001b50       ??$_Get_unwrapped_n@W4hitbox@c_cs_player@@H$0A@@std@@YAPAW4hitbox@c_cs_player@@QAW412@H@Z 10002b50 f i c_ragebot.obj
 0001:00001b50       ??$forward@ABW4hitbox@c_cs_player@@@std@@YAABW4hitbox@c_cs_player@@ABW412@@Z 10002b50 f i c_legitbot.obj
 0001:00001b50       ??$forward@ABV?$allocator@U?$pair@$$CBIV?$unordered_map@IUnetvar@c_netvar@@U?$hash@I@std@@U?$equal_to@I@4@V?$allocator@U?$pair@$$CBIUnetvar@c_netvar@@@std@@@4@@std@@@std@@@std@@@std@@YAABV?$allocator@U?$pair@$$CBIV?$unordered_map@IUnetvar@c_netvar@@U?$hash@I@std@@U?$equal_to@I@4@V?$allocator@U?$pair@$$CBIUnetvar@c_netvar@@@std@@@4@@std@@@std@@@0@ABV10@@Z 10002b50 f i c_netvar.obj
 0001:00001b50       ??$forward@Uaim_info@c_aimhelper@@@std@@YA$$QAUaim_info@c_aimhelper@@AAU12@@Z 10002b50 f i c_aimhelper.obj
 0001:00001b50       ??$forward@ABV<lambda_1>@?1???$create@V?$map@V?$basic_string@DU?$char_traits@D@std@@V?$allocator@D@2@@std@@V?$basic_json@Vmap@std@@Vvector@2@V?$basic_string@DU?$char_traits@D@std@@V?$allocator@D@2@@2@_N_J_KNVallocator@2@Uadl_serializer@nlohmann@@@nlohmann@@U?$less@X@2@V?$allocator@U?$pair@$$CBV?$basic_string@DU?$char_traits@D@std@@V?$allocator@D@2@@std@@V?$basic_json@Vmap@std@@Vvector@2@V?$basic_string@DU?$char_traits@D@std@@V?$allocator@D@2@@2@_N_J_KNVallocator@2@Uadl_serializer@nlohmann@@@nlohmann@@@std@@@2@@std@@$$V@?$basic_json@Vmap@std@@Vvector@2@V?$basic_string@DU?$char_traits@D@std@@V?$allocator@D@2@@2@_N_J_KNVallocator@2@Uadl_serializer@nlohmann@@@nlohmann@@CAPAV?$map@V?$basic_string@DU?$char_traits@D@std@@V?$allocator@D@2@@std@@V?$basic_json@Vmap@std@@Vvector@2@V?$basic_string@DU?$char_traits@D@std@@V?$allocator@D@2@@2@_N_J_KNVallocator@2@Uadl_serializer@nlohmann@@@nlohmann@@U?$less@X@2@V?$allocator@U?$pair@$$CBV?$basic_string@DU?$char_traits@D@std@@V?$allocator@D@2@@std@@V?$basic_json@Vmap@std@@Vvector@2@V?$basic_string@DU?$char_traits@D@std@@V?$allocator@D@2@@2@_N_J_KNVallocator@2@Uadl_serializer@nlohmann@@@nlohmann@@@std@@@2@@std@@XZ@@std@@YAABV<lambda_1>@?1???$create@V?$map@V?$basic_string@DU?$char_traits@D@std@@V?$allocator@D@2@@std@@V?$basic_json@Vmap@std@@Vvector@2@V?$basic_string@DU?$char_traits@D@std@@V?$allocator@D@2@@2@_N_J_KNVallocator@2@Uadl_serializer@nlohmann@@@nlohmann@@U?$less@X@2@V?$allocator@U?$pair@$$CBV?$basic_string@DU?$char_traits@D@std@@V?$allocator@D@2@@std@@V?$basic_json@Vmap@std@@Vvector@2@V?$basic_string@DU?$char_traits@D@std@@V?$allocator@D@2@@2@_N_J_KNVallocator@2@Uadl_serializer@nlohmann@@@nlohmann@@@std@@@2@@std@@$$V@?$basic_json@Vmap@std@@Vvector@2@V?$basic_string@DU?$char_traits@D@std@@V?$allocator@D@2@@2@_N_J_KNVallocator@2@Uadl_serializer@nlohmann@@@nlohmann@@CAPAV?$map@V?$basic_string@DU?$char_traits@D@std@@V?$allocator@D@2@@std@@V?$basic_json@Vmap@std@@Vvector@2@V?$basic_string@DU?$char_traits@D@std@@V?$allocator@D@2@@2@_N_J_KNVallocator@2@Uadl_serializer@nlohmann@@@nlohmann@@U?$less@X@2@V?$allocator@U?$pair@$$CBV?$basic_string@DU?$char_traits@D@std@@V?$allocator@D@2@@std@@V?$basic_json@Vmap@std@@Vvector@2@V?$basic_string@DU?$char_traits@D@std@@V?$allocator@D@2@@2@_N_J_KNVallocator@2@Uadl_serializer@nlohmann@@@nlohmann@@@std@@@2@@0@XZ@ABV1?1???$create@V?$map@V?$basic_string@DU?$char_traits@D@std@@V?$allocator@D@2@@std@@V?$basic_json@Vmap@std@@Vvector@2@V?$basic_string@DU?$char_traits@D@std@@V?$allocator@D@2@@2@_N_J_KNVallocator@2@Uadl_serializer@nlohmann@@@nlohmann@@U?$less@X@2@V?$allocator@U?$pair@$$CBV?$basic_string@DU?$char_traits@D@std@@V?$allocator@D@2@@std@@V?$basic_json@Vmap@std@@Vvector@2@V?$basic_string@DU?$char_traits@D@std@@V?$allocator@D@2@@2@_N_J_KNVallocator@2@Uadl_serializer@nlohmann@@@nlohmann@@@std@@@2@@std@@$$V@23@CAPAV40@XZ@@Z 10002b50 f i c_conf.obj
 0001:00001b50       ??$forward@AAV?$_Deque_iterator@V?$_Deque_val@U?$_Deque_simple_types@Uanimation@c_animation_system@@@std@@@std@@@std@@@std@@YAAAV?$_Deque_iterator@V?$_Deque_val@U?$_Deque_simple_types@Uanimation@c_animation_system@@@std@@@std@@@0@AAV10@@Z 10002b50 f i c_animation_system.obj
 0001:00001b50       ??$_Unfancy@V?$_List_unchecked_iterator@V?$_List_val@U?$_List_simple_types@U?$pair@$$CBIUanimation_info@c_animation_system@@@std@@@std@@@std@@@std@@@std@@YAPAV?$_List_unchecked_iterator@V?$_List_val@U?$_List_simple_types@U?$pair@$$CBIUanimation_info@c_animation_system@@@std@@@std@@@std@@@0@PAV10@@Z 10002b50 f i c_aimhelper.obj
 0001:00001b50       ??$forward@AAU?$equal_to@PAVc_hotkey_select@@@std@@@std@@YAAAU?$equal_to@PAVc_hotkey_select@@@0@AAU10@@Z 10002b50 f i c_hotkeys.obj
 0001:00001b50       ??$forward@V?$vector@MV?$allocator@M@std@@@std@@@std@@YA$$QAV?$vector@MV?$allocator@M@std@@@0@AAV10@@Z 10002b50 f i c_font.obj
 0001:00001b50       ??$forward@PAUIDirect3DDevice9@@@std@@YA$$QAPAUIDirect3DDevice9@@AAPAU1@@Z 10002b50 f i idirect3ddevice9.obj
 0001:00001b50       ??$forward@AAV?$function@$$A6AXI@Z@std@@@std@@YAAAV?$function@$$A6AXI@Z@0@AAV10@@Z 10002b50 f i c_hotkeys.obj
 0001:00001b50       ??$forward@V?$allocator@Uaim_info@c_aimhelper@@@std@@@std@@YA$$QAV?$allocator@Uaim_info@c_aimhelper@@@0@AAV10@@Z 10002b50 f i c_aimhelper.obj
 0001:00001b50       ??$addressof@PAUanimation@c_animation_system@@@std@@YAPAPAUanimation@c_animation_system@@AAPAU12@@Z 10002b50 f i c_aimhelper.obj
 0001:00001b50       ??$_Unfancy@V?$tuple@MMM@std@@@std@@YAPAV?$tuple@MMM@0@PAV10@@Z 10002b50 f i c_aimhelper.obj
 0001:00001b50       ??$_Get_size_of_n@$00@std@@YAII@Z 10002b50 f i dll.obj
 0001:00001b50       ??$forward@I@std@@YA$$QAIAAI@Z 10002b50 f i c_aimhelper.obj
 0001:00001b50       ??$_Pass_fn@V<lambda_2>@?1??for_each_player_fixed_z_order@c_client_entity_list@@QAEXV?$function@$$A6AXPAVc_cs_player@@@Z@std@@@Z@$0A@@std@@YA?AV<lambda_2>@?1??for_each_player_fixed_z_order@c_client_entity_list@@QAEXV?$function@$$A6AXPAVc_cs_player@@@Z@0@@Z@V1?1??23@QAEX0@Z@@Z 10002b50 f i c_chams.obj
 0001:00001b50       ??$move@AAVc_vector2d@@@std@@YA$$QAVc_vector2d@@AAV1@@Z 10002b50 f i c_renderer.obj
 0001:00001b50       ?select_on_container_copy_construction@?$_Default_allocator_traits@V?$allocator@U?$_Tree_node@U?$pair@$$CBV?$basic_string@DU?$char_traits@D@std@@V?$allocator@D@2@@std@@V?$basic_json@Vmap@std@@Vvector@2@V?$basic_string@DU?$char_traits@D@std@@V?$allocator@D@2@@2@_N_J_KNVallocator@2@Uadl_serializer@nlohmann@@@nlohmann@@@std@@PAX@std@@@std@@@std@@SA?AV?$allocator@U?$_Tree_node@U?$pair@$$CBV?$basic_string@DU?$char_traits@D@std@@V?$allocator@D@2@@std@@V?$basic_json@Vmap@std@@Vvector@2@V?$basic_string@DU?$char_traits@D@std@@V?$allocator@D@2@@2@_N_J_KNVallocator@2@Uadl_serializer@nlohmann@@@nlohmann@@@std@@PAX@std@@@2@ABV32@@Z 10002b50 f i c_conf.obj
 0001:00001b50       ??$addressof@V?$_Tree_val@U?$_Tree_simple_types@U?$pair@$$CBV?$basic_string@DU?$char_traits@D@std@@V?$allocator@D@2@@std@@V?$basic_json@Vmap@std@@Vvector@2@V?$basic_string@DU?$char_traits@D@std@@V?$allocator@D@2@@2@_N_J_KNVallocator@2@Uadl_serializer@nlohmann@@@nlohmann@@@std@@@std@@@std@@@std@@YAPAV?$_Tree_val@U?$_Tree_simple_types@U?$pair@$$CBV?$basic_string@DU?$char_traits@D@std@@V?$allocator@D@2@@std@@V?$basic_json@Vmap@std@@Vvector@2@V?$basic_string@DU?$char_traits@D@std@@V?$allocator@D@2@@2@_N_J_KNVallocator@2@Uadl_serializer@nlohmann@@@nlohmann@@@std@@@std@@@0@AAV10@@Z 10002b50 f i c_conf.obj
 0001:00001b50       ??$forward@PAUanimation@c_animation_system@@@std@@YA$$QAPAUanimation@c_animation_system@@AAPAU12@@Z 10002b50 f i c_aimhelper.obj
 0001:00001b50       ??$forward@AAU?$pair@$$CBHH@std@@@std@@YAAAU?$pair@$$CBHH@0@AAU10@@Z 10002b50 f i c_prediction_.obj
 0001:00001b50       ??$forward@ABV?$_List_unchecked_iterator@V?$_List_val@U?$_List_simple_types@U?$pair@$$CBIV?$unordered_map@IUnetvar@c_netvar@@U?$hash@I@std@@U?$equal_to@I@4@V?$allocator@U?$pair@$$CBIUnetvar@c_netvar@@@std@@@4@@std@@@std@@@std@@@std@@@std@@@std@@YAABV?$_List_unchecked_iterator@V?$_List_val@U?$_List_simple_types@U?$pair@$$CBIV?$unordered_map@IUnetvar@c_netvar@@U?$hash@I@std@@U?$equal_to@I@4@V?$allocator@U?$pair@$$CBIUnetvar@c_netvar@@@std@@@4@@std@@@std@@@std@@@std@@@0@ABV10@@Z 10002b50 f i c_aimhelper.obj
 0001:00001b50       ??$forward@Vc_color@@@std@@YA$$QAVc_color@@AAV1@@Z 10002b50 f i c_checkbox.obj
 0001:00001b50       ??$forward@ABV?$allocator@U?$pair@$$CBIUnetvar@c_netvar@@@std@@@std@@@std@@YAABV?$allocator@U?$pair@$$CBIUnetvar@c_netvar@@@std@@@0@ABV10@@Z 10002b50 f i c_aimhelper.obj
 0001:00001b50       ??$_Unfancy@Uaim_info@c_aimhelper@@@std@@YAPAUaim_info@c_aimhelper@@PAU12@@Z 10002b50 f i c_aimhelper.obj
 0001:00001b50       ??$forward@AAPAUanimation@c_animation_system@@@std@@YAAAPAUanimation@c_animation_system@@AAPAU12@@Z 10002b50 f i c_aimhelper.obj
 0001:00001b50       ??$addressof@V?$_Deque_val@U?$_Deque_simple_types@Ushot@resolver@@@std@@@std@@@std@@YAPAV?$_Deque_val@U?$_Deque_simple_types@Ushot@resolver@@@std@@@0@AAV10@@Z 10002b50 f i c_resolver.obj
 0001:00001b50       ??$_Unfancy@W4hitbox@c_cs_player@@@std@@YAPAW4hitbox@c_cs_player@@PAW412@@Z 10002b50 f i c_ragebot.obj
 0001:00001b50       ??$forward@V?$tuple@ABI@std@@@std@@YA$$QAV?$tuple@ABI@0@AAV10@@Z 10002b50 f i c_esp.obj
 0001:00001b50       ??$move@AAV?$shared_ptr@Vc_group_box@@@std@@@std@@YA$$QAV?$shared_ptr@Vc_group_box@@@0@AAV10@@Z 10002b50 f i c_aiming.obj
 0001:00001b50       ??$_Unfancy@Uc_incoming_sequence@@@std@@YAPAUc_incoming_sequence@@PAU1@@Z 10002b50 f i c_fake_ping.obj
 0001:00001b50       ??$forward@PAVc_cs_player@@@std@@YA$$QAPAVc_cs_player@@AAPAV1@@Z 10002b50 f i c_aimhelper.obj
 0001:00001b50       ??$addressof@V?$_List_val@U?$_List_simple_types@U?$pair@$$CBIUnetvar@c_netvar@@@std@@@std@@@std@@@std@@YAPAV?$_List_val@U?$_List_simple_types@U?$pair@$$CBIUnetvar@c_netvar@@@std@@@std@@@0@AAV10@@Z 10002b50 f i c_aimhelper.obj
 0001:00001b50       ??$forward@Unade_info@c_esp@@@std@@YA$$QAUnade_info@c_esp@@AAU12@@Z 10002b50 f i c_esp.obj
 0001:00001b50       ??$addressof@$$CBV?$_Vector_val@U?$_Simple_types@V?$basic_json@Vmap@std@@Vvector@2@V?$basic_string@DU?$char_traits@D@std@@V?$allocator@D@2@@2@_N_J_KNVallocator@2@Uadl_serializer@nlohmann@@@nlohmann@@@std@@@std@@@std@@YAPBV?$_Vector_val@U?$_Simple_types@V?$basic_json@Vmap@std@@Vvector@2@V?$basic_string@DU?$char_traits@D@std@@V?$allocator@D@2@@2@_N_J_KNVallocator@2@Uadl_serializer@nlohmann@@@nlohmann@@@std@@@0@ABV10@@Z 10002b50 f i c_conf.obj
 0001:00001b50       ?select_on_container_copy_construction@?$_Default_allocator_traits@V?$allocator@D@std@@@std@@SA?AV?$allocator@D@2@ABV32@@Z 10002b50 f i c_miscellaneous.obj
 0001:00001b50       ??$forward@U?$pair@PAVc_cs_player@@M@std@@@std@@YA$$QAU?$pair@PAVc_cs_player@@M@0@AAU10@@Z 10002b50 f i c_chams.obj
 0001:00001b50       ??$addressof@V?$_Vector_val@U?$_Simple_types@Uhitmarker_info@@@std@@@std@@@std@@YAPAV?$_Vector_val@U?$_Simple_types@Uhitmarker_info@@@std@@@0@AAV10@@Z 10002b50 f i c_hitmarker.obj
 0001:00001b50       ??$forward@ABV?$allocator@D@std@@@std@@YAABV?$allocator@D@0@ABV10@@Z 10002b50 f i c_damage_esp.obj
 0001:00001b50       ??$forward@ABUchams@chams_conf@config_conf@c_config@@@std@@YAABUchams@chams_conf@config_conf@c_config@@ABU1234@@Z 10002b50 f i c_conf.obj
 0001:00001b50       ??$forward@H@std@@YA$$QAHAAH@Z 10002b50 f i c_aimhelper.obj
 0001:00001b50       ??$move@AAV?$tuple@$$QAI@std@@@std@@YA$$QAV?$tuple@$$QAI@0@AAV10@@Z 10002b50 f i c_aimhelper.obj
 0001:00001b50       ??$forward@V?$allocator@H@std@@@std@@YA$$QAV?$allocator@H@0@AAV10@@Z 10002b50 f i c_aimhelper.obj
 0001:00001b50       ??$move@AAUplayer_info@c_esp@@@std@@YA$$QAUplayer_info@c_esp@@AAU12@@Z 10002b50 f i c_esp.obj
 0001:00001b50       ??$addressof@$$CBV?$_List_val@U?$_List_simple_types@U?$pair@$$CBIUanimation_info@c_animation_system@@@std@@@std@@@std@@@std@@YAPBV?$_List_val@U?$_List_simple_types@U?$pair@$$CBIUanimation_info@c_animation_system@@@std@@@std@@@0@ABV10@@Z 10002b50 f i c_animation_system.obj
 0001:00001b50       ??$addressof@V?$vector@Vc_vector3d@@V?$allocator@Vc_vector3d@@@std@@@std@@@std@@YAPAV?$vector@Vc_vector3d@@V?$allocator@Vc_vector3d@@@std@@@0@AAV10@@Z 10002b50 f i c_resolver.obj
 0001:00001b50       ??$forward@ABV?$allocator@_W@std@@@std@@YAABV?$allocator@_W@0@ABV10@@Z 10002b50 f i c_miscellaneous.obj
 0001:00001b50       ??$_Unfancy@V?$function@$$A6AXXZ@std@@@std@@YAPAV?$function@$$A6AXXZ@0@PAV10@@Z 10002b50 f i c_damage_esp.obj
 0001:00001b50       ??$forward@ABV<lambda_2_>@@@std@@YAABV<lambda_2_>@@ABV1@@Z 10002b50 f i c_conf.obj
 0001:00001b50       ??$forward@AAPAU?$_List_node@U?$pair@$$CBIUnetvar@c_netvar@@@std@@PAX@std@@@std@@YAAAPAU?$_List_node@U?$pair@$$CBIUnetvar@c_netvar@@@std@@PAX@0@AAPAU10@@Z 10002b50 f i c_aimhelper.obj
 0001:00001b50       ??$addressof@Uanimation@c_animation_system@@@std@@YAPAUanimation@c_animation_system@@AAU12@@Z 10002b50 f i c_animation_system.obj
 0001:00001b50       ??$forward@U?$pair@V?$shared_ptr@Vc_drawable@@@std@@U?$pair@Vc_vector2d@@V1@@2@@std@@@std@@YA$$QAU?$pair@V?$shared_ptr@Vc_drawable@@@std@@U?$pair@Vc_vector2d@@V1@@2@@0@AAU10@@Z 10002b50 f i c_aiming.obj
 0001:00001b50       ??$forward@ABI@std@@YAABIABI@Z 10002b50 f i c_animation_system.obj
 0001:00001b50       ??$move@AAV?$shared_ptr@Uinput_adapter_protocol@detail@nlohmann@@@std@@@std@@YA$$QAV?$shared_ptr@Uinput_adapter_protocol@detail@nlohmann@@@0@AAV10@@Z 10002b50 f i c_conf.obj
 0001:00001b50       ??$move@AAV?$allocator@U?$pair@V?$basic_string@DU?$char_traits@D@std@@V?$allocator@D@2@@std@@D@std@@@std@@@std@@YA$$QAV?$allocator@U?$pair@V?$basic_string@DU?$char_traits@D@std@@V?$allocator@D@2@@std@@D@std@@@0@AAV10@@Z 10002b50 f i c_misc.obj
 0001:00001b50       ??$_Unfancy@V?$_List_unchecked_iterator@V?$_List_val@U?$_List_simple_types@U?$pair@$$CBIU?$pair@HH@std@@@std@@@std@@@std@@@std@@@std@@YAPAV?$_List_unchecked_iterator@V?$_List_val@U?$_List_simple_types@U?$pair@$$CBIU?$pair@HH@std@@@std@@@std@@@std@@@0@PAV10@@Z 10002b50 f i c_esp.obj
 0001:00001b50       ??$forward@AAW4hitbox@c_cs_player@@@std@@YAAAW4hitbox@c_cs_player@@AAW412@@Z 10002b50 f i c_aimhelper.obj
 0001:00001b50       ??$addressof@V?$tuple@Vc_vector3d@@MPAUanimation@c_animation_system@@@std@@@std@@YAPAV?$tuple@Vc_vector3d@@MPAUanimation@c_animation_system@@@0@AAV10@@Z 10002b50 f i c_legitbot.obj
 0001:00001b50       ??$addressof@$$CBV?$_List_val@U?$_List_simple_types@U?$pair@$$CBIVc_font@@@std@@@std@@@std@@@std@@YAPBV?$_List_val@U?$_List_simple_types@U?$pair@$$CBIVc_font@@@std@@@std@@@0@ABV10@@Z 10002b50 f i c_renderer.obj
 0001:00001b50       ??$forward@V?$tuple@$$QAI@std@@@std@@YA$$QAV?$tuple@$$QAI@0@AAV10@@Z 10002b50 f i c_aimhelper.obj
 0001:00001b50       ??$forward@V?$allocator@D@std@@@std@@YA$$QAV?$allocator@D@0@AAV10@@Z 10002b50 f i c_damage_esp.obj
 0001:00001b50       ??$move@AAV?$shared_ptr@Vinput_buffer_adapter@detail@nlohmann@@@std@@@std@@YA$$QAV?$shared_ptr@Vinput_buffer_adapter@detail@nlohmann@@@0@AAV10@@Z 10002b50 f i c_conf.obj
 0001:00001b50       ??$_Refancy@PAD$0A@@std@@YAPADPAD@Z 10002b50 f i dll.obj
 0001:00001b50       ??$forward@ABU?$less@X@std@@@std@@YAABU?$less@X@0@ABU10@@Z 10002b50 f i c_conf.obj
 0001:00001b50       ??$addressof@U?$pair@QAVc_hotkey_select@@V?$function@$$A6AXI@Z@std@@@std@@@std@@YAPAU?$pair@QAVc_hotkey_select@@V?$function@$$A6AXI@Z@std@@@0@AAU10@@Z 10002b50 f i c_fake_ping.obj
 0001:00001b50       ??$move@AAV?$allocator@Vc_vector3d@@@std@@@std@@YA$$QAV?$allocator@Vc_vector3d@@@0@AAV10@@Z 10002b50 f i c_resolver.obj
 0001:00001b50       ??$_Get_unwrapped@U?$pair@V?$basic_string@DU?$char_traits@D@std@@V?$allocator@D@2@@std@@D@std@@@std@@YAPAU?$pair@V?$basic_string@DU?$char_traits@D@std@@V?$allocator@D@2@@std@@D@0@QAU10@@Z 10002b50 f i c_float_select.obj
 0001:00001b50       ??$_Unfancy@Ushot@resolver@@@std@@YAPAUshot@resolver@@PAU12@@Z 10002b50 f i c_animation_system.obj
 0001:00001b50       ??$forward@Ushot@resolver@@@std@@YA$$QAUshot@resolver@@AAU12@@Z 10002b50 f i c_resolver.obj
 0001:00001b50       ??$move@AAV?$shared_ptr@Vc_text@@@std@@@std@@YA$$QAV?$shared_ptr@Vc_text@@@0@AAV10@@Z 10002b50 f i c_checkbox.obj
 0001:00001b50       ??$move@AAV?$_Func_class@XI@std@@@std@@YA$$QAV?$_Func_class@XI@0@AAV10@@Z 10002b50 f i c_hotkeys.obj
 0001:00001b50       ??$addressof@$$CBV?$_Deque_val@U?$_Deque_simple_types@Uanimation@c_animation_system@@@std@@@std@@@std@@YAPBV?$_Deque_val@U?$_Deque_simple_types@Uanimation@c_animation_system@@@std@@@0@ABV10@@Z 10002b50 f i c_animation_system.obj
 0001:00001b50       ??$_Get_unwrapped@Uhitmarker_info@@@std@@YAPAUhitmarker_info@@QAU1@@Z 10002b50 f i c_hitmarker.obj
 0001:00001b50       ??$forward@V?$function@$$A6AXI@Z@std@@@std@@YA$$QAV?$function@$$A6AXI@Z@0@AAV10@@Z 10002b50 f i c_hotkeys.obj
 0001:00001b50       ??$forward@ABV?$allocator@U?$pair@QAVc_hotkey_select@@V?$function@$$A6AXI@Z@std@@@std@@@std@@@std@@YAABV?$allocator@U?$pair@QAVc_hotkey_select@@V?$function@$$A6AXI@Z@std@@@std@@@0@ABV10@@Z 10002b50 f i c_hotkeys.obj
 0001:00001b50       ??$_Get_unwrapped_n@Unade_info@c_esp@@H$0A@@std@@YAPAUnade_info@c_esp@@QAU12@H@Z 10002b50 f i c_esp.obj
 0001:00001b50       ??$addressof@V?$_Deque_val@U?$_Deque_simple_types@Uc_incoming_sequence@@@std@@@std@@@std@@YAPAV?$_Deque_val@U?$_Deque_simple_types@Uc_incoming_sequence@@@std@@@0@AAV10@@Z 10002b50 f i c_fake_ping.obj
 0001:00001b50       ??$addressof@$$CBV?$vector@MV?$allocator@M@std@@@std@@@std@@YAPBV?$vector@MV?$allocator@M@std@@@0@ABV10@@Z 10002b50 f i c_renderer.obj
 0001:00001b50       ??$forward@V?$allocator@U?$pair@V?$basic_string@DU?$char_traits@D@std@@V?$allocator@D@2@@std@@D@std@@@std@@@std@@YA$$QAV?$allocator@U?$pair@V?$basic_string@DU?$char_traits@D@std@@V?$allocator@D@2@@std@@D@std@@@0@AAV10@@Z 10002b50 f i c_misc.obj
 0001:00001b50       ??$forward@ABUplayer@esp_conf@config_conf@c_config@@@std@@YAABUplayer@esp_conf@config_conf@c_config@@ABU1234@@Z 10002b50 f i c_conf.obj
 0001:00001b50       ??$forward@AAPAV?$map@V?$basic_string@DU?$char_traits@D@std@@V?$allocator@D@2@@std@@V?$basic_json@Vmap@std@@Vvector@2@V?$basic_string@DU?$char_traits@D@std@@V?$allocator@D@2@@2@_N_J_KNVallocator@2@Uadl_serializer@nlohmann@@@nlohmann@@U?$less@X@2@V?$allocator@U?$pair@$$CBV?$basic_string@DU?$char_traits@D@std@@V?$allocator@D@2@@std@@V?$basic_json@Vmap@std@@Vvector@2@V?$basic_string@DU?$char_traits@D@std@@V?$allocator@D@2@@2@_N_J_KNVallocator@2@Uadl_serializer@nlohmann@@@nlohmann@@@std@@@2@@std@@@std@@YAAAPAV?$map@V?$basic_string@DU?$char_traits@D@std@@V?$allocator@D@2@@std@@V?$basic_json@Vmap@std@@Vvector@2@V?$basic_string@DU?$char_traits@D@std@@V?$allocator@D@2@@2@_N_J_KNVallocator@2@Uadl_serializer@nlohmann@@@nlohmann@@U?$less@X@2@V?$allocator@U?$pair@$$CBV?$basic_string@DU?$char_traits@D@std@@V?$allocator@D@2@@std@@V?$basic_json@Vmap@std@@Vvector@2@V?$basic_string@DU?$char_traits@D@std@@V?$allocator@D@2@@2@_N_J_KNVallocator@2@Uadl_serializer@nlohmann@@@nlohmann@@@std@@@2@@0@AAPAV10@@Z 10002b50 f i c_conf.obj
 0001:00001b50       ??$_Get_unwrapped_n@Uaim_info@c_aimhelper@@H$0A@@std@@YAPAUaim_info@c_aimhelper@@QAU12@H@Z 10002b50 f i c_aimhelper.obj
 0001:00001b50       ??$forward@AAU?$pair@$$CBIUnetvar@c_netvar@@@std@@@std@@YAAAU?$pair@$$CBIUnetvar@c_netvar@@@0@AAU10@@Z 10002b50 f i c_aimhelper.obj
 0001:00001b50       ??$forward@ABV?$allocator@U?$pair@$$CBIUanimation_info@c_animation_system@@@std@@@std@@@std@@YAABV?$allocator@U?$pair@$$CBIUanimation_info@c_animation_system@@@std@@@0@ABV10@@Z 10002b50 f i c_aimhelper.obj
 0001:00001b50       ??$_Get_unwrapped_n@Uhitmarker_info@@H$0A@@std@@YAPAUhitmarker_info@@QAU1@H@Z 10002b50 f i c_hitmarker.obj
 0001:00001b50       ??$_Get_unwrapped@PAUc_incoming_sequence@@@std@@YAPAPAUc_incoming_sequence@@QAPAU1@@Z 10002b50 f i c_net_channel_.obj
 0001:00001b50       ??$move@AAV?$function@$$A6AXXZ@std@@@std@@YA$$QAV?$function@$$A6AXXZ@0@AAV10@@Z 10002b50 f i c_renderer.obj
 0001:00001b50       ??$move@AAV?$shared_ptr@Vc_welcome_message@@@std@@@std@@YA$$QAV?$shared_ptr@Vc_welcome_message@@@0@AAV10@@Z 10002b50 f i c_menu.obj
 0001:00001b50       ??$_Refancy@PBD$0A@@std@@YAPBDPBD@Z 10002b50 f i c_conf.obj
 0001:00001b50       ??$move@AAU?$default_delete@$$BY0A@I@std@@@std@@YA$$QAU?$default_delete@$$BY0A@I@0@AAU10@@Z 10002b50 f i c_client.obj
 0001:00001b50       ??$move@AAV?$shared_ptr@Vc_checkbox@@@std@@@std@@YA$$QAV?$shared_ptr@Vc_checkbox@@@0@AAV10@@Z 10002b50 f i c_aiming.obj
 0001:00001b50       ??$_Unfancy@_W@std@@YAPA_WPA_W@Z 10002b50 f i c_miscellaneous.obj
 0001:00001b50       ??$move@AAV?$shared_ptr@Vc_misc@@@std@@@std@@YA$$QAV?$shared_ptr@Vc_misc@@@0@AAV10@@Z 10002b50 f i c_menu.obj
 0001:00001b50       ??$_Unfancy@V?$_List_unchecked_iterator@V?$_List_val@U?$_List_simple_types@U?$pair@$$CBIVc_font@@@std@@@std@@@std@@@std@@@std@@YAPAV?$_List_unchecked_iterator@V?$_List_val@U?$_List_simple_types@U?$pair@$$CBIVc_font@@@std@@@std@@@std@@@0@PAV10@@Z 10002b50 f i c_renderer.obj
 0001:00001b50       ??$_Get_unwrapped_n@HH$0A@@std@@YAPAHQAHH@Z 10002b50 f i c_aimhelper.obj
 0001:00001b50       ??$move@AAV?$shared_ptr@Vc_select@@@std@@@std@@YA$$QAV?$shared_ptr@Vc_select@@@0@AAV10@@Z 10002b50 f i c_misc.obj
 0001:00001b50       ??$_Kfn@$$CBIU?$pair@HH@std@@@?$_Umap_traits@IU?$pair@HH@std@@V?$_Uhash_compare@IU?$hash@I@std@@U?$equal_to@I@2@@2@V?$allocator@U?$pair@$$CBIU?$pair@HH@std@@@std@@@2@$0A@@std@@SAABIABU?$pair@$$CBIU?$pair@HH@std@@@1@@Z 10002b50 f i c_esp.obj
 0001:00001b50       ??$forward@ABQAVc_cs_player@@@std@@YAABQAVc_cs_player@@ABQAV1@@Z 10002b50 f i c_animation_system.obj
 0001:00001b50       ??$addressof@V?$_List_val@U?$_List_simple_types@U?$pair@$$CBIV?$unordered_map@IUnetvar@c_netvar@@U?$hash@I@std@@U?$equal_to@I@4@V?$allocator@U?$pair@$$CBIUnetvar@c_netvar@@@std@@@4@@std@@@std@@@std@@@std@@@std@@YAPAV?$_List_val@U?$_List_simple_types@U?$pair@$$CBIV?$unordered_map@IUnetvar@c_netvar@@U?$hash@I@std@@U?$equal_to@I@4@V?$allocator@U?$pair@$$CBIUnetvar@c_netvar@@@std@@@4@@std@@@std@@@std@@@0@AAV10@@Z 10002b50 f i c_aimhelper.obj
 0001:00001b50       ??$_Unfancy_maybe_null@D@std@@YAPADPAD@Z 10002b50 f i c_miscellaneous.obj
 0001:00001b50       ??$forward@ABU?$pair@V?$basic_string@DU?$char_traits@D@std@@V?$allocator@D@2@@std@@D@std@@@std@@YAABU?$pair@V?$basic_string@DU?$char_traits@D@std@@V?$allocator@D@2@@std@@D@0@ABU10@@Z 10002b50 f i c_menu.obj
 0001:00001b50       ??$forward@AAV?$basic_string@DU?$char_traits@D@std@@V?$allocator@D@2@@std@@@std@@YAAAV?$basic_string@DU?$char_traits@D@std@@V?$allocator@D@2@@0@AAV10@@Z 10002b50 f i c_conf.obj
 0001:00001b50       ??$forward@ABV?$vector@V?$basic_json@Vmap@std@@Vvector@2@V?$basic_string@DU?$char_traits@D@std@@V?$allocator@D@2@@2@_N_J_KNVallocator@2@Uadl_serializer@nlohmann@@@nlohmann@@V?$allocator@V?$basic_json@Vmap@std@@Vvector@2@V?$basic_string@DU?$char_traits@D@std@@V?$allocator@D@2@@2@_N_J_KNVallocator@2@Uadl_serializer@nlohmann@@@nlohmann@@@std@@@std@@@std@@YAABV?$vector@V?$basic_json@Vmap@std@@Vvector@2@V?$basic_string@DU?$char_traits@D@std@@V?$allocator@D@2@@2@_N_J_KNVallocator@2@Uadl_serializer@nlohmann@@@nlohmann@@V?$allocator@V?$basic_json@Vmap@std@@Vvector@2@V?$basic_string@DU?$char_traits@D@std@@V?$allocator@D@2@@2@_N_J_KNVallocator@2@Uadl_serializer@nlohmann@@@nlohmann@@@std@@@0@ABV10@@Z 10002b50 f i c_conf.obj
 0001:00001b50       ??$move@AAUshot@resolver@@@std@@YA$$QAUshot@resolver@@AAU12@@Z 10002b50 f i c_ragebot.obj
 0001:00001b50       ??$forward@V?$function@$$A6AXXZ@std@@@std@@YA$$QAV?$function@$$A6AXXZ@0@AAV10@@Z 10002b50 f i c_renderer.obj
 0001:00001b50       ??$_Unfancy@Unade_info@c_esp@@@std@@YAPAUnade_info@c_esp@@PAU12@@Z 10002b50 f i c_esp.obj
 0001:00001b50       ??$move@AAV?$shared_ptr@V?$output_string_adapter@DV?$basic_string@DU?$char_traits@D@std@@V?$allocator@D@2@@std@@@detail@nlohmann@@@std@@@std@@YA$$QAV?$shared_ptr@V?$output_string_adapter@DV?$basic_string@DU?$char_traits@D@std@@V?$allocator@D@2@@std@@@detail@nlohmann@@@0@AAV10@@Z 10002b50 f i c_conf.obj
 0001:00001b50       ??$move@AAV?$shared_ptr@Vc_visuals@@@std@@@std@@YA$$QAV?$shared_ptr@Vc_visuals@@@0@AAV10@@Z 10002b50 f i c_menu.obj
 0001:00001b50       ??$_Get_unwrapped@V?$_List_unchecked_iterator@V?$_List_val@U?$_List_simple_types@U?$pair@QAVc_hotkey_select@@V?$function@$$A6AXI@Z@std@@@std@@@std@@@std@@@std@@@std@@YAPAV?$_List_unchecked_iterator@V?$_List_val@U?$_List_simple_types@U?$pair@QAVc_hotkey_select@@V?$function@$$A6AXI@Z@std@@@std@@@std@@@std@@@0@QAV10@@Z 10002b50 f i c_hotkeys.obj
 0001:00001b50       ??$forward@ABV?$allocator@V?$basic_string@DU?$char_traits@D@std@@V?$allocator@D@2@@std@@@std@@@std@@YAABV?$allocator@V?$basic_string@DU?$char_traits@D@std@@V?$allocator@D@2@@std@@@0@ABV10@@Z 10002b50 f i c_miscellaneous.obj
 0001:00001b50       ??$_Get_unwrapped@Vc_vector2d@@@std@@YAPAVc_vector2d@@QAV1@@Z 10002b50 f i c_renderer.obj
 0001:00001b50       ??$forward@ABV?$allocator@V?$basic_json@Vmap@std@@Vvector@2@V?$basic_string@DU?$char_traits@D@std@@V?$allocator@D@2@@2@_N_J_KNVallocator@2@Uadl_serializer@nlohmann@@@nlohmann@@@std@@@std@@YAABV?$allocator@V?$basic_json@Vmap@std@@Vvector@2@V?$basic_string@DU?$char_traits@D@std@@V?$allocator@D@2@@2@_N_J_KNVallocator@2@Uadl_serializer@nlohmann@@@nlohmann@@@0@ABV10@@Z 10002b50 f i c_conf.obj
 0001:00001b50       ??$_Get_unwrapped_n@Vc_vector2d@@H$0A@@std@@YAPAVc_vector2d@@QAV1@H@Z 10002b50 f i c_renderer.obj
 0001:00001b50       ??$forward@ABD@std@@YAABDABD@Z 10002b50 f i c_esp.obj
 0001:00001b50       ??$forward@AAPAV_Facet_base@std@@@std@@YAAAPAV_Facet_base@0@AAPAV10@@Z 10002b50 f i dll.obj
 0001:00001b50       ??$_Unfancy@Uimpact_info@@@std@@YAPAUimpact_info@@PAU1@@Z 10002b50 f i c_hitmarker.obj
 0001:00001b50       ??$addressof@U?$pair@$$CBV?$basic_string@DU?$char_traits@D@std@@V?$allocator@D@2@@std@@V?$basic_json@Vmap@std@@Vvector@2@V?$basic_string@DU?$char_traits@D@std@@V?$allocator@D@2@@2@_N_J_KNVallocator@2@Uadl_serializer@nlohmann@@@nlohmann@@@std@@@std@@YAPAU?$pair@$$CBV?$basic_string@DU?$char_traits@D@std@@V?$allocator@D@2@@std@@V?$basic_json@Vmap@std@@Vvector@2@V?$basic_string@DU?$char_traits@D@std@@V?$allocator@D@2@@2@_N_J_KNVallocator@2@Uadl_serializer@nlohmann@@@nlohmann@@@0@AAU10@@Z 10002b50 f i c_conf.obj
 0001:00001b50       ??$_Unfancy@Uhitmarker_info@@@std@@YAPAUhitmarker_info@@PAU1@@Z 10002b50 f i c_hitmarker.obj
 0001:00001b50       ??$move@AAV?$deque@Uanimation@c_animation_system@@V?$allocator@Uanimation@c_animation_system@@@std@@@std@@@std@@YA$$QAV?$deque@Uanimation@c_animation_system@@V?$allocator@Uanimation@c_animation_system@@@std@@@0@AAV10@@Z 10002b50 f i c_animation_system.obj
 0001:00001b50       ??$forward@AAPAV?$c_hook@I@@@std@@YAAAPAV?$c_hook@I@@AAPAV1@@Z 10002b50 f i c_cs_player_.obj
 0001:00001b50       ??$_Get_unwrapped_n@EH$0A@@std@@YAPAEQAEH@Z 10002b50 f i c_miscellaneous.obj
 0001:00001b50       ??$forward@ABV<lambda_1>@?1???$create@V?$basic_string@DU?$char_traits@D@std@@V?$allocator@D@2@@std@@V12@@?$basic_json@Vmap@std@@Vvector@2@V?$basic_string@DU?$char_traits@D@std@@V?$allocator@D@2@@2@_N_J_KNVallocator@2@Uadl_serializer@nlohmann@@@nlohmann@@CAPAV?$basic_string@DU?$char_traits@D@std@@V?$allocator@D@2@@std@@$$QAV45@@Z@@std@@YAABV<lambda_1>@?1???$create@V?$basic_string@DU?$char_traits@D@std@@V?$allocator@D@2@@std@@V12@@?$basic_json@Vmap@std@@Vvector@2@V?$basic_string@DU?$char_traits@D@std@@V?$allocator@D@2@@2@_N_J_KNVallocator@2@Uadl_serializer@nlohmann@@@nlohmann@@CAPAV?$basic_string@DU?$char_traits@D@std@@V?$allocator@D@2@@0@$$QAV40@@Z@ABV1?1???$create@V?$basic_string@DU?$char_traits@D@std@@V?$allocator@D@2@@std@@V12@@23@CAPAV40@0@Z@@Z 10002b50 f i c_conf.obj
 0001:00001b50       ??$forward@V?$tuple@MPAUanimation@c_animation_system@@@std@@@std@@YA$$QAV?$tuple@MPAUanimation@c_animation_system@@@0@AAV10@@Z 10002b50 f i c_legitbot.obj
 0001:00001b50       ??$forward@ABV?$allocator@V?$_List_unchecked_iterator@V?$_List_val@U?$_List_simple_types@U?$pair@$$CBIUnetvar@c_netvar@@@std@@@std@@@std@@@std@@@std@@@std@@YAABV?$allocator@V?$_List_unchecked_iterator@V?$_List_val@U?$_List_simple_types@U?$pair@$$CBIUnetvar@c_netvar@@@std@@@std@@@std@@@std@@@0@ABV10@@Z 10002b50 f i c_aimhelper.obj
 0001:00001b50       ??$move@AAV?$_List_unchecked_iterator@V?$_List_val@U?$_List_simple_types@U?$pair@$$CBIV?$unordered_map@IUnetvar@c_netvar@@U?$hash@I@std@@U?$equal_to@I@4@V?$allocator@U?$pair@$$CBIUnetvar@c_netvar@@@std@@@4@@std@@@std@@@std@@@std@@@std@@@std@@YA$$QAV?$_List_unchecked_iterator@V?$_List_val@U?$_List_simple_types@U?$pair@$$CBIV?$unordered_map@IUnetvar@c_netvar@@U?$hash@I@std@@U?$equal_to@I@4@V?$allocator@U?$pair@$$CBIUnetvar@c_netvar@@@std@@@4@@std@@@std@@@std@@@std@@@0@AAV10@@Z 10002b50 f i c_aimhelper.obj
 0001:00001b50       ??$move@AAU?$pair@PAVc_cs_player@@M@std@@@std@@YA$$QAU?$pair@PAVc_cs_player@@M@0@AAU10@@Z 10002b50 f i c_chams.obj
 0001:00001b50       ??$forward@AAPAU?$_Tree_node@U?$pair@$$CBHH@std@@PAX@std@@@std@@YAAAPAU?$_Tree_node@U?$pair@$$CBHH@std@@PAX@0@AAPAU10@@Z 10002b50 f i c_prediction_.obj
 0001:00001b50       ??$_Get_unwrapped@U?$pair@PAVc_cs_player@@M@std@@@std@@YAPAU?$pair@PAVc_cs_player@@M@0@QAU10@@Z 10002b50 f i c_chams.obj
 0001:00001b50       ??$forward@V?$allocator@M@std@@@std@@YA$$QAV?$allocator@M@0@AAV10@@Z 10002b50 f i c_font.obj
 0001:00001b50       ??$_Get_unwrapped_n@PAUshot@resolver@@H$0A@@std@@YAPAPAUshot@resolver@@QAPAU12@H@Z 10002b50 f i c_resolver.obj
 0001:00001b50       ??$_Unfancy@PAUanimation@c_animation_system@@@std@@YAPAPAUanimation@c_animation_system@@PAPAU12@@Z 10002b50 f i c_animation_system.obj
 0001:00001b50       ??$addressof@PAU?$_Tree_node@U?$pair@$$CBHH@std@@PAX@std@@@std@@YAPAPAU?$_Tree_node@U?$pair@$$CBHH@std@@PAX@0@AAPAU10@@Z 10002b50 f i c_prediction_.obj
 0001:00001b50       ??$forward@AAPAU?$_List_node@U?$pair@$$CBIV?$unordered_map@IUnetvar@c_netvar@@U?$hash@I@std@@U?$equal_to@I@4@V?$allocator@U?$pair@$$CBIUnetvar@c_netvar@@@std@@@4@@std@@@std@@PAX@std@@@std@@YAAAPAU?$_List_node@U?$pair@$$CBIV?$unordered_map@IUnetvar@c_netvar@@U?$hash@I@std@@U?$equal_to@I@4@V?$allocator@U?$pair@$$CBIUnetvar@c_netvar@@@std@@@4@@std@@@std@@PAX@0@AAPAU10@@Z 10002b50 f i c_aimhelper.obj
 0001:00001b50       ??$addressof@Ushot@resolver@@@std@@YAPAUshot@resolver@@AAU12@@Z 10002b50 f i c_resolver.obj
 0001:00001b50       ??$forward@V?$initializer_list@V?$shared_ptr@Vc_drawable@@@std@@@std@@@std@@YA$$QAV?$initializer_list@V?$shared_ptr@Vc_drawable@@@std@@@0@AAV10@@Z 10002b50 f i c_aiming.obj
 0001:00001b50       ??$addressof@V?$unique_ptr@V?$c_hook@I@@U?$default_delete@V?$c_hook@I@@@std@@@std@@@std@@YAPAV?$unique_ptr@V?$c_hook@I@@U?$default_delete@V?$c_hook@I@@@std@@@0@AAV10@@Z 10002b50 f i c_cs_player_.obj
 0001:00001b50       ??$forward@ABV?$_List_unchecked_iterator@V?$_List_val@U?$_List_simple_types@U?$pair@$$CBIUnetvar@c_netvar@@@std@@@std@@@std@@@std@@@std@@YAABV?$_List_unchecked_iterator@V?$_List_val@U?$_List_simple_types@U?$pair@$$CBIUnetvar@c_netvar@@@std@@@std@@@std@@@0@ABV10@@Z 10002b50 f i c_aimhelper.obj
 0001:00001b50       ??$_Unfancy@H@std@@YAPAHPAH@Z 10002b50 f i c_aimhelper.obj
 0001:00001b50       ??$forward@ABUaim_info@c_aimhelper@@@std@@YAABUaim_info@c_aimhelper@@ABU12@@Z 10002b50 f i c_ragebot.obj
 0001:00001b50       ??$forward@ABV<lambda_1>@?1???$create@V?$vector@V?$basic_json@Vmap@std@@Vvector@2@V?$basic_string@DU?$char_traits@D@std@@V?$allocator@D@2@@2@_N_J_KNVallocator@2@Uadl_serializer@nlohmann@@@nlohmann@@V?$allocator@V?$basic_json@Vmap@std@@Vvector@2@V?$basic_string@DU?$char_traits@D@std@@V?$allocator@D@2@@2@_N_J_KNVallocator@2@Uadl_serializer@nlohmann@@@nlohmann@@@std@@@std@@ABV12@@?$basic_json@Vmap@std@@Vvector@2@V?$basic_string@DU?$char_traits@D@std@@V?$allocator@D@2@@2@_N_J_KNVallocator@2@Uadl_serializer@nlohmann@@@nlohmann@@CAPAV?$vector@V?$basic_json@Vmap@std@@Vvector@2@V?$basic_string@DU?$char_traits@D@std@@V?$allocator@D@2@@2@_N_J_KNVallocator@2@Uadl_serializer@nlohmann@@@nlohmann@@V?$allocator@V?$basic_json@Vmap@std@@Vvector@2@V?$basic_string@DU?$char_traits@D@std@@V?$allocator@D@2@@2@_N_J_KNVallocator@2@Uadl_serializer@nlohmann@@@nlohmann@@@std@@@std@@ABV45@@Z@@std@@YAABV<lambda_1>@?1???$create@V?$vector@V?$basic_json@Vmap@std@@Vvector@2@V?$basic_string@DU?$char_traits@D@std@@V?$allocator@D@2@@2@_N_J_KNVallocator@2@Uadl_serializer@nlohmann@@@nlohmann@@V?$allocator@V?$basic_json@Vmap@std@@Vvector@2@V?$basic_string@DU?$char_traits@D@std@@V?$allocator@D@2@@2@_N_J_KNVallocator@2@Uadl_serializer@nlohmann@@@nlohmann@@@std@@@std@@ABV12@@?$basic_json@Vmap@std@@Vvector@2@V?$basic_string@DU?$char_traits@D@std@@V?$allocator@D@2@@2@_N_J_KNVallocator@2@Uadl_serializer@nlohmann@@@nlohmann@@CAPAV?$vector@V?$basic_json@Vmap@std@@Vvector@2@V?$basic_string@DU?$char_traits@D@std@@V?$allocator@D@2@@2@_N_J_KNVallocator@2@Uadl_serializer@nlohmann@@@nlohmann@@V?$allocator@V?$basic_json@Vmap@std@@Vvector@2@V?$basic_string@DU?$char_traits@D@std@@V?$allocator@D@2@@2@_N_J_KNVallocator@2@Uadl_serializer@nlohmann@@@nlohmann@@@std@@@0@ABV40@@Z@ABV1?1???$create@V?$vector@V?$basic_json@Vmap@std@@Vvector@2@V?$basic_string@DU?$char_traits@D@std@@V?$allocator@D@2@@2@_N_J_KNVallocator@2@Uadl_serializer@nlohmann@@@nlohmann@@V?$allocator@V?$basic_json@Vmap@std@@Vvector@2@V?$basic_string@DU?$char_traits@D@std@@V?$allocator@D@2@@2@_N_J_KNVallocator@2@Uadl_serializer@nlohmann@@@nlohmann@@@std@@@std@@ABV12@@23@CAPAV40@0@Z@@Z 10002b50 f i c_conf.obj
 0001:00001b50       ??$forward@V?$_List_unchecked_iterator@V?$_List_val@U?$_List_simple_types@U?$pair@$$CBIV?$unordered_map@IUnetvar@c_netvar@@U?$hash@I@std@@U?$equal_to@I@4@V?$allocator@U?$pair@$$CBIUnetvar@c_netvar@@@std@@@4@@std@@@std@@@std@@@std@@@std@@@std@@YA$$QAV?$_List_unchecked_iterator@V?$_List_val@U?$_List_simple_types@U?$pair@$$CBIV?$unordered_map@IUnetvar@c_netvar@@U?$hash@I@std@@U?$equal_to@I@4@V?$allocator@U?$pair@$$CBIUnetvar@c_netvar@@@std@@@4@@std@@@std@@@std@@@std@@@0@AAV10@@Z 10002b50 f i c_aimhelper.obj
 0001:00001b50       ??$move@AAU?$pair@V?$shared_ptr@Vc_drawable@@@std@@U?$pair@Vc_vector2d@@V1@@2@@std@@@std@@YA$$QAU?$pair@V?$shared_ptr@Vc_drawable@@@std@@U?$pair@Vc_vector2d@@V1@@2@@0@AAU10@@Z 10002b50 f i c_aiming.obj
 0001:00001b50       ??$move@AAV?$basic_string@DU?$char_traits@D@std@@V?$allocator@D@2@@std@@@std@@YA$$QAV?$basic_string@DU?$char_traits@D@std@@V?$allocator@D@2@@0@AAV10@@Z 10002b50 f i c_esp.obj
 0001:00001b50       ??$forward@V?$basic_string@DU?$char_traits@D@std@@V?$allocator@D@2@@std@@@std@@YA$$QAV?$basic_string@DU?$char_traits@D@std@@V?$allocator@D@2@@0@AAV10@@Z 10002b50 f i c_esp.obj
 0001:00001b50       ??$move@AAPAUanimation@c_animation_system@@@std@@YA$$QAPAUanimation@c_animation_system@@AAPAU12@@Z 10002b50 f i c_animation_system.obj
 0001:00001b50       ??$forward@PBD@std@@YA$$QAPBDAAPBD@Z 10002b50 f i c_conf.obj
 0001:00001b50       ??$_Convert_size@I@std@@YAII@Z 10002b50 f i c_damage_esp.obj
 0001:00001b50       ??$_Get_unwrapped@V?$_List_unchecked_iterator@V?$_List_val@U?$_List_simple_types@U?$pair@$$CBIU?$pair@HH@std@@@std@@@std@@@std@@@std@@@std@@YAPAV?$_List_unchecked_iterator@V?$_List_val@U?$_List_simple_types@U?$pair@$$CBIU?$pair@HH@std@@@std@@@std@@@std@@@0@QAV10@@Z 10002b50 f i c_esp.obj
 0001:00001b50       ??$_Get_unwrapped@V?$_List_unchecked_iterator@V?$_List_val@U?$_List_simple_types@U?$pair@$$CBIUanimation_info@c_animation_system@@@std@@@std@@@std@@@std@@@std@@YAPAV?$_List_unchecked_iterator@V?$_List_val@U?$_List_simple_types@U?$pair@$$CBIUanimation_info@c_animation_system@@@std@@@std@@@std@@@0@QAV10@@Z 10002b50 f i c_animation_system.obj
 0001:00001b50       ??$forward@AAU?$pair@$$CBIV?$unordered_map@IUnetvar@c_netvar@@U?$hash@I@std@@U?$equal_to@I@4@V?$allocator@U?$pair@$$CBIUnetvar@c_netvar@@@std@@@4@@std@@@std@@@std@@YAAAU?$pair@$$CBIV?$unordered_map@IUnetvar@c_netvar@@U?$hash@I@std@@U?$equal_to@I@4@V?$allocator@U?$pair@$$CBIUnetvar@c_netvar@@@std@@@4@@std@@@0@AAU10@@Z 10002b50 f i c_aimhelper.obj
 0001:00001b50       ??$forward@AAM@std@@YAAAMAAM@Z 10002b50 f i c_aimhelper.obj
 0001:00001b50       ??$forward@PAU_Container_base12@std@@@std@@YA$$QAPAU_Container_base12@0@AAPAU10@@Z 10002b50 f i c_animation_system.obj
 0001:00001b50       ??$move@AAV?$allocator@M@std@@@std@@YA$$QAV?$allocator@M@0@AAV10@@Z 10002b50 f i c_font.obj
 0001:00001b50       ??$_Unfancy@D@std@@YAPADPAD@Z 10002b50 f i dll.obj
 0001:00001b50       ??$_Get_unwrapped@$$CBV?$basic_string@DU?$char_traits@D@std@@V?$allocator@D@2@@std@@@std@@YAPBV?$basic_string@DU?$char_traits@D@std@@V?$allocator@D@2@@0@QBV10@@Z 10002b50 f i c_miscellaneous.obj
 0001:00001b50       ??$forward@AAPAI@std@@YAAAPAIAAPAI@Z 10002b50 f i c_client.obj
 0001:00001b50       ??$forward@Uanimation_info@c_animation_system@@@std@@YA$$QAUanimation_info@c_animation_system@@AAU12@@Z 10002b50 f i c_animation_system.obj
 0001:00001b50       ??$forward@ABV?$allocator@V?$_List_unchecked_iterator@V?$_List_val@U?$_List_simple_types@U?$pair@$$CBIV?$unordered_map@IUnetvar@c_netvar@@U?$hash@I@std@@U?$equal_to@I@4@V?$allocator@U?$pair@$$CBIUnetvar@c_netvar@@@std@@@4@@std@@@std@@@std@@@std@@@std@@@std@@@std@@YAABV?$allocator@V?$_List_unchecked_iterator@V?$_List_val@U?$_List_simple_types@U?$pair@$$CBIV?$unordered_map@IUnetvar@c_netvar@@U?$hash@I@std@@U?$equal_to@I@4@V?$allocator@U?$pair@$$CBIUnetvar@c_netvar@@@std@@@4@@std@@@std@@@std@@@std@@@std@@@0@ABV10@@Z 10002b50 f i c_netvar.obj
 0001:00001b50       ??$move@AAUc_incoming_sequence@@@std@@YA$$QAUc_incoming_sequence@@AAU1@@Z 10002b50 f i c_net_channel_.obj
 0001:00001b50       ??$addressof@PAU?$_List_node@U?$pair@$$CBIUanimation_info@c_animation_system@@@std@@PAX@std@@@std@@YAPAPAU?$_List_node@U?$pair@$$CBIUanimation_info@c_animation_system@@@std@@PAX@0@AAPAU10@@Z 10002b50 f i c_aimhelper.obj
 0001:00001b50       ??$_Unfancy@V?$basic_string@DU?$char_traits@D@std@@V?$allocator@D@2@@std@@@std@@YAPAV?$basic_string@DU?$char_traits@D@std@@V?$allocator@D@2@@0@PAV10@@Z 10002b50 f i c_miscellaneous.obj
 0001:00001b50       ??$forward@ABV?$allocator@E@std@@@std@@YAABV?$allocator@E@0@ABV10@@Z 10002b50 f i c_miscellaneous.obj
 0001:00001b50       ??$forward@ABVc_color@@@std@@YAABVc_color@@ABV1@@Z 10002b50 f i c_conf.obj
 0001:00001b50       ??$forward@V?$allocator@PAUanimation@c_animation_system@@@std@@@std@@YA$$QAV?$allocator@PAUanimation@c_animation_system@@@0@AAV10@@Z 10002b50 f i c_aimhelper.obj
 0001:00001b50       ??$addressof@V?$basic_string@DU?$char_traits@D@std@@V?$allocator@D@2@@std@@@std@@YAPAV?$basic_string@DU?$char_traits@D@std@@V?$allocator@D@2@@0@AAV10@@Z 10002b50 f i c_conf.obj
 0001:00001b50       ??$get@$01MMM@std@@YAABMABV?$tuple@MMM@0@@Z 10002b50 f i c_color.obj
 0001:00001b50       ??$forward@ABV<lambda_1>@?1???$create@V?$basic_string@DU?$char_traits@D@std@@V?$allocator@D@2@@std@@ABV12@@?$basic_json@Vmap@std@@Vvector@2@V?$basic_string@DU?$char_traits@D@std@@V?$allocator@D@2@@2@_N_J_KNVallocator@2@Uadl_serializer@nlohmann@@@nlohmann@@CAPAV?$basic_string@DU?$char_traits@D@std@@V?$allocator@D@2@@std@@ABV45@@Z@@std@@YAABV<lambda_1>@?1???$create@V?$basic_string@DU?$char_traits@D@std@@V?$allocator@D@2@@std@@ABV12@@?$basic_json@Vmap@std@@Vvector@2@V?$basic_string@DU?$char_traits@D@std@@V?$allocator@D@2@@2@_N_J_KNVallocator@2@Uadl_serializer@nlohmann@@@nlohmann@@CAPAV?$basic_string@DU?$char_traits@D@std@@V?$allocator@D@2@@0@ABV40@@Z@ABV1?1???$create@V?$basic_string@DU?$char_traits@D@std@@V?$allocator@D@2@@std@@ABV12@@23@CAPAV40@0@Z@@Z 10002b50 f i c_conf.obj
 0001:00001b50       ??$_Get_unwrapped_n@V?$function@$$A6AXXZ@std@@H$0A@@std@@YAPAV?$function@$$A6AXXZ@0@QAV10@H@Z 10002b50 f i c_renderer.obj
 0001:00001b50       ??$forward@V?$_List_unchecked_iterator@V?$_List_val@U?$_List_simple_types@U?$pair@$$CBIUanimation_info@c_animation_system@@@std@@@std@@@std@@@std@@@std@@YA$$QAV?$_List_unchecked_iterator@V?$_List_val@U?$_List_simple_types@U?$pair@$$CBIUanimation_info@c_animation_system@@@std@@@std@@@std@@@0@AAV10@@Z 10002b50 f i c_animation_system.obj
 0001:00001b50       ??$forward@V<lambda_2_>@@@std@@YA$$QAV<lambda_2_>@@AAV1@@Z 10002b50 f i c_conf.obj
 0001:00001b50       ??$addressof@U?$pair@$$CBIUnetvar@c_netvar@@@std@@@std@@YAPAU?$pair@$$CBIUnetvar@c_netvar@@@0@AAU10@@Z 10002b50 f i dllmain.obj
 0001:00001b50       ??$_Get_unwrapped@U?$pair@V?$shared_ptr@Vc_drawable@@@std@@U?$pair@Vc_vector2d@@V1@@2@@std@@@std@@YAPAU?$pair@V?$shared_ptr@Vc_drawable@@@std@@U?$pair@Vc_vector2d@@V1@@2@@0@QAU10@@Z 10002b50 f i c_aiming.obj
 0001:00001b50       ??$forward@AAPAVc_renderer@@@std@@YAAAPAVc_renderer@@AAPAV1@@Z 10002b50 f i idirect3ddevice9.obj
 0001:00001b50       ??$forward@V?$tuple@Vc_vector3d@@MPAUanimation@c_animation_system@@@std@@@std@@YA$$QAV?$tuple@Vc_vector3d@@MPAUanimation@c_animation_system@@@0@AAV10@@Z 10002b50 f i c_aimhelper.obj
 0001:00001b50       ??$move@AAW4hitbox@c_cs_player@@@std@@YA$$QAW4hitbox@c_cs_player@@AAW412@@Z 10002b50 f i c_ragebot.obj
 0001:00001b50       ??$forward@AAV?$_List_iterator@V?$_List_val@U?$_List_simple_types@U?$pair@$$CBIUnetvar@c_netvar@@@std@@@std@@@std@@@std@@@std@@YAAAV?$_List_iterator@V?$_List_val@U?$_List_simple_types@U?$pair@$$CBIUnetvar@c_netvar@@@std@@@std@@@std@@@0@AAV10@@Z 10002b50 f i c_aimhelper.obj
 0001:00001b50       ??$forward@ABQAUanimation@c_animation_system@@@std@@YAABQAUanimation@c_animation_system@@ABQAU12@@Z 10002b50 f i c_aimhelper.obj
 0001:00001b50       ??$forward@V?$allocator@Vc_vector3d@@@std@@@std@@YA$$QAV?$allocator@Vc_vector3d@@@0@AAV10@@Z 10002b50 f i c_resolver.obj
 0001:00001b50       ??$addressof@U?$pair@$$CBIUanimation_info@c_animation_system@@@std@@@std@@YAPAU?$pair@$$CBIUanimation_info@c_animation_system@@@0@AAU10@@Z 10002b50 f i c_aimhelper.obj
 0001:00001b50       ??$forward@V?$_List_iterator@V?$_List_val@U?$_List_simple_types@U?$pair@QAVc_hotkey_select@@V?$function@$$A6AXI@Z@std@@@std@@@std@@@std@@@std@@@std@@YA$$QAV?$_List_iterator@V?$_List_val@U?$_List_simple_types@U?$pair@QAVc_hotkey_select@@V?$function@$$A6AXI@Z@std@@@std@@@std@@@std@@@0@AAV10@@Z 10002b50 f i c_hotkeys.obj
 0001:00001b50       ??$forward@AAU?$pair@$$CBIUanimation_info@c_animation_system@@@std@@@std@@YAAAU?$pair@$$CBIUanimation_info@c_animation_system@@@0@AAU10@@Z 10002b50 f i c_animation_system.obj
 0001:00001b50       ??$_Get_unwrapped@Uaim_info@c_aimhelper@@@std@@YAPAUaim_info@c_aimhelper@@QAU12@@Z 10002b50 f i c_aimhelper.obj
 0001:00001b50       ??$forward@$$QAI@std@@YA$$QAIAAI@Z 10002b50 f i c_aimhelper.obj
 0001:00001b50       ??$move@AAV?$shared_ptr@Vc_router@@@std@@@std@@YA$$QAV?$shared_ptr@Vc_router@@@0@AAV10@@Z 10002b50 f i c_menu.obj
 0001:00001b50       ??$_Get_unwrapped_n@V?$_List_unchecked_iterator@V?$_List_val@U?$_List_simple_types@U?$pair@$$CBIV?$unordered_map@IUnetvar@c_netvar@@U?$hash@I@std@@U?$equal_to@I@4@V?$allocator@U?$pair@$$CBIUnetvar@c_netvar@@@std@@@4@@std@@@std@@@std@@@std@@@std@@H$0A@@std@@YAPAV?$_List_unchecked_iterator@V?$_List_val@U?$_List_simple_types@U?$pair@$$CBIV?$unordered_map@IUnetvar@c_netvar@@U?$hash@I@std@@U?$equal_to@I@4@V?$allocator@U?$pair@$$CBIUnetvar@c_netvar@@@std@@@4@@std@@@std@@@std@@@std@@@0@QAV10@H@Z 10002b50 f i c_aimhelper.obj
 0001:00001b50       ??$forward@U?$default_delete@V?$c_hook@I@@@std@@@std@@YA$$QAU?$default_delete@V?$c_hook@I@@@0@AAU10@@Z 10002b50 f i c_cs_player_.obj
 0001:00001b50       ??$forward@U?$less@X@std@@@std@@YA$$QAU?$less@X@0@AAU10@@Z 10002b50 f i c_conf.obj
 0001:00001b50       ??$forward@AAV?$_List_iterator@V?$_List_val@U?$_List_simple_types@U?$pair@$$CBIV?$unordered_map@IUnetvar@c_netvar@@U?$hash@I@std@@U?$equal_to@I@4@V?$allocator@U?$pair@$$CBIUnetvar@c_netvar@@@std@@@4@@std@@@std@@@std@@@std@@@std@@@std@@YAAAV?$_List_iterator@V?$_List_val@U?$_List_simple_types@U?$pair@$$CBIV?$unordered_map@IUnetvar@c_netvar@@U?$hash@I@std@@U?$equal_to@I@4@V?$allocator@U?$pair@$$CBIUnetvar@c_netvar@@@std@@@4@@std@@@std@@@std@@@std@@@0@AAV10@@Z 10002b50 f i c_aimhelper.obj
 0001:00001b50       ??$_Const_cast@$$CBD@std@@YAPADPBD@Z 10002b50 f i c_damage_esp.obj
 0001:00001b50       ??$_Get_unwrapped_n@Uplayer_info@c_esp@@H$0A@@std@@YAPAUplayer_info@c_esp@@QAU12@H@Z 10002b50 f i c_esp.obj
 0001:00001b50       ??$_Get_unwrapped@V?$_List_unchecked_iterator@V?$_List_val@U?$_List_simple_types@U?$pair@$$CBIVc_font@@@std@@@std@@@std@@@std@@@std@@YAPAV?$_List_unchecked_iterator@V?$_List_val@U?$_List_simple_types@U?$pair@$$CBIVc_font@@@std@@@std@@@std@@@0@QAV10@@Z 10002b50 f i c_renderer.obj
 0001:00001b50       ??$_Get_unwrapped@W4hitbox@c_cs_player@@@std@@YAPAW4hitbox@c_cs_player@@QAW412@@Z 10002b50 f i c_ragebot.obj
 0001:00001b50       ??$forward@V?$vector@U?$pair@V?$basic_string@DU?$char_traits@D@std@@V?$allocator@D@2@@std@@D@std@@V?$allocator@U?$pair@V?$basic_string@DU?$char_traits@D@std@@V?$allocator@D@2@@std@@D@std@@@2@@std@@@std@@YA$$QAV?$vector@U?$pair@V?$basic_string@DU?$char_traits@D@std@@V?$allocator@D@2@@std@@D@std@@V?$allocator@U?$pair@V?$basic_string@DU?$char_traits@D@std@@V?$allocator@D@2@@std@@D@std@@@2@@0@AAV10@@Z 10002b50 f i c_misc.obj
 0001:00001b50       ??$forward@V?$shared_ptr@Vc_drawable@@@std@@@std@@YA$$QAV?$shared_ptr@Vc_drawable@@@0@AAV10@@Z 10002b50 f i c_flow_layout.obj
 0001:00001b50       ??$_Get_unwrapped@D@std@@YAPADQAD@Z 10002b50 f i c_conf.obj
 0001:00001b50       ??$forward@_N@std@@YA$$QA_NAA_N@Z 10002b50 f i c_aimhelper.obj
 0001:00001b50       ??$forward@ABV?$_List_unchecked_iterator@V?$_List_val@U?$_List_simple_types@U?$pair@QAVc_hotkey_select@@V?$function@$$A6AXI@Z@std@@@std@@@std@@@std@@@std@@@std@@YAABV?$_List_unchecked_iterator@V?$_List_val@U?$_List_simple_types@U?$pair@QAVc_hotkey_select@@V?$function@$$A6AXI@Z@std@@@std@@@std@@@std@@@0@ABV10@@Z 10002b50 f i c_hotkeys.obj
 0001:00001b50       ??$forward@ABUnade_info@c_esp@@@std@@YAABUnade_info@c_esp@@ABU12@@Z 10002b50 f i c_esp.obj
 0001:00001b50       ??$_Get_unwrapped@M@std@@YAPAMQAM@Z 10002b50 f i c_font.obj
 0001:00001b50       ??$forward@PAVc_client_entity@@@std@@YA$$QAPAVc_client_entity@@AAPAV1@@Z 10002b50 f i c_esp.obj
 0001:00001b50       ?select_on_container_copy_construction@?$_Default_allocator_traits@V?$allocator@V?$basic_json@Vmap@std@@Vvector@2@V?$basic_string@DU?$char_traits@D@std@@V?$allocator@D@2@@2@_N_J_KNVallocator@2@Uadl_serializer@nlohmann@@@nlohmann@@@std@@@std@@SA?AV?$allocator@V?$basic_json@Vmap@std@@Vvector@2@V?$basic_string@DU?$char_traits@D@std@@V?$allocator@D@2@@2@_N_J_KNVallocator@2@Uadl_serializer@nlohmann@@@nlohmann@@@2@ABV32@@Z 10002b50 f i c_conf.obj
 0001:00001b50       ??$move@AAV?$_List_unchecked_iterator@V?$_List_val@U?$_List_simple_types@U?$pair@$$CBIU?$pair@HH@std@@@std@@@std@@@std@@@std@@@std@@YA$$QAV?$_List_unchecked_iterator@V?$_List_val@U?$_List_simple_types@U?$pair@$$CBIU?$pair@HH@std@@@std@@@std@@@std@@@0@AAV10@@Z 10002b50 f i c_esp.obj
 0001:00001b50       ??$_Get_unwrapped@V?$_List_unchecked_iterator@V?$_List_val@U?$_List_simple_types@U?$pair@$$CBIV?$unordered_map@IUnetvar@c_netvar@@U?$hash@I@std@@U?$equal_to@I@4@V?$allocator@U?$pair@$$CBIUnetvar@c_netvar@@@std@@@4@@std@@@std@@@std@@@std@@@std@@@std@@YAPAV?$_List_unchecked_iterator@V?$_List_val@U?$_List_simple_types@U?$pair@$$CBIV?$unordered_map@IUnetvar@c_netvar@@U?$hash@I@std@@U?$equal_to@I@4@V?$allocator@U?$pair@$$CBIUnetvar@c_netvar@@@std@@@4@@std@@@std@@@std@@@std@@@0@QAV10@@Z 10002b50 f i c_aimhelper.obj
 0001:00001b50       ??$forward@ABV?$_List_unchecked_iterator@V?$_List_val@U?$_List_simple_types@U?$pair@$$CBIVc_font@@@std@@@std@@@std@@@std@@@std@@YAABV?$_List_unchecked_iterator@V?$_List_val@U?$_List_simple_types@U?$pair@$$CBIVc_font@@@std@@@std@@@std@@@0@ABV10@@Z 10002b50 f i c_renderer.obj
 0001:00001b50       ??$move@AAUaim_info@c_aimhelper@@@std@@YA$$QAUaim_info@c_aimhelper@@AAU12@@Z 10002b50 f i c_aimhelper.obj
 0001:00001b50       ??$forward@ABQAU?$_List_node@U?$pair@$$CBIUnetvar@c_netvar@@@std@@PAX@std@@@std@@YAABQAU?$_List_node@U?$pair@$$CBIUnetvar@c_netvar@@@std@@PAX@0@ABQAU10@@Z 10002b50 f i c_aimhelper.obj
 0001:00001b50       ??$_Get_unwrapped@V?$basic_json@Vmap@std@@Vvector@2@V?$basic_string@DU?$char_traits@D@std@@V?$allocator@D@2@@2@_N_J_KNVallocator@2@Uadl_serializer@nlohmann@@@nlohmann@@@std@@YAPAV?$basic_json@Vmap@std@@Vvector@2@V?$basic_string@DU?$char_traits@D@std@@V?$allocator@D@2@@2@_N_J_KNVallocator@2@Uadl_serializer@nlohmann@@@nlohmann@@QAV12@@Z 10002b50 f i c_conf.obj
 0001:00001b50       ??$addressof@PA_W@std@@YAPAPA_WAAPA_W@Z 10002b50 f i c_miscellaneous.obj
 0001:00001b50       ??$_Unfancy@U?$pair@PAVc_cs_player@@M@std@@@std@@YAPAU?$pair@PAVc_cs_player@@M@0@PAU10@@Z 10002b50 f i c_chams.obj
 0001:00001b50       ??$forward@U?$pair@V?$basic_string@DU?$char_traits@D@std@@V?$allocator@D@2@@std@@D@std@@@std@@YA$$QAU?$pair@V?$basic_string@DU?$char_traits@D@std@@V?$allocator@D@2@@std@@D@0@AAU10@@Z 10002b50 f i c_aiming.obj
 0001:00001b50       ??$forward@ABQAU?$_List_node@U?$pair@$$CBIU?$pair@HH@std@@@std@@PAX@std@@@std@@YAABQAU?$_List_node@U?$pair@$$CBIU?$pair@HH@std@@@std@@PAX@0@ABQAU10@@Z 10002b50 f i c_esp.obj
 0001:00001b50       ??$forward@PAU?$_Tree_node@U?$pair@$$CBHH@std@@PAX@std@@@std@@YA$$QAPAU?$_Tree_node@U?$pair@$$CBHH@std@@PAX@0@AAPAU10@@Z 10002b50 f i c_prediction_.obj
 0001:00001b50       ??$move@AAV?$_List_unchecked_iterator@V?$_List_val@U?$_List_simple_types@U?$pair@$$CBIVc_font@@@std@@@std@@@std@@@std@@@std@@YA$$QAV?$_List_unchecked_iterator@V?$_List_val@U?$_List_simple_types@U?$pair@$$CBIVc_font@@@std@@@std@@@std@@@0@AAV10@@Z 10002b50 f i c_renderer.obj
 0001:00001b50       ??$_Get_unwrapped_n@V?$function@$$A6AXI@Z@std@@H$0A@@std@@YAPAV?$function@$$A6AXI@Z@0@QAV10@H@Z 10002b50 f i c_hotkeys.obj
 0001:00001b50       ??$_Get_unwrapped_n@V?$basic_json@Vmap@std@@Vvector@2@V?$basic_string@DU?$char_traits@D@std@@V?$allocator@D@2@@2@_N_J_KNVallocator@2@Uadl_serializer@nlohmann@@@nlohmann@@H$0A@@std@@YAPAV?$basic_json@Vmap@std@@Vvector@2@V?$basic_string@DU?$char_traits@D@std@@V?$allocator@D@2@@2@_N_J_KNVallocator@2@Uadl_serializer@nlohmann@@@nlohmann@@QAV12@H@Z 10002b50 f i c_conf.obj
 0001:00001b50       ??$forward@V?$_Tree_iterator@V?$_Tree_val@U?$_Tree_simple_types@U?$pair@$$CBV?$basic_string@DU?$char_traits@D@std@@V?$allocator@D@2@@std@@V?$basic_json@Vmap@std@@Vvector@2@V?$basic_string@DU?$char_traits@D@std@@V?$allocator@D@2@@2@_N_J_KNVallocator@2@Uadl_serializer@nlohmann@@@nlohmann@@@std@@@std@@@std@@@std@@@std@@YA$$QAV?$_Tree_iterator@V?$_Tree_val@U?$_Tree_simple_types@U?$pair@$$CBV?$basic_string@DU?$char_traits@D@std@@V?$allocator@D@2@@std@@V?$basic_json@Vmap@std@@Vvector@2@V?$basic_string@DU?$char_traits@D@std@@V?$allocator@D@2@@2@_N_J_KNVallocator@2@Uadl_serializer@nlohmann@@@nlohmann@@@std@@@std@@@std@@@0@AAV10@@Z 10002b50 f i c_conf.obj
 0001:00001b50       ??$_Kfn@$$CBIV?$unordered_map@IUnetvar@c_netvar@@U?$hash@I@std@@U?$equal_to@I@4@V?$allocator@U?$pair@$$CBIUnetvar@c_netvar@@@std@@@4@@std@@@?$_Umap_traits@IV?$unordered_map@IUnetvar@c_netvar@@U?$hash@I@std@@U?$equal_to@I@4@V?$allocator@U?$pair@$$CBIUnetvar@c_netvar@@@std@@@4@@std@@V?$_Uhash_compare@IU?$hash@I@std@@U?$equal_to@I@2@@2@V?$allocator@U?$pair@$$CBIV?$unordered_map@IUnetvar@c_netvar@@U?$hash@I@std@@U?$equal_to@I@4@V?$allocator@U?$pair@$$CBIUnetvar@c_netvar@@@std@@@4@@std@@@std@@@2@$0A@@std@@SAABIABU?$pair@$$CBIV?$unordered_map@IUnetvar@c_netvar@@U?$hash@I@std@@U?$equal_to@I@4@V?$allocator@U?$pair@$$CBIUnetvar@c_netvar@@@std@@@4@@std@@@1@@Z 10002b50 f i c_aimhelper.obj
 0001:00001b50       ??$_Get_unwrapped@Unade_info@c_esp@@@std@@YAPAUnade_info@c_esp@@QAU12@@Z 10002b50 f i c_esp.obj
 0001:00001b50       ??$forward@AAE@std@@YAAAEAAE@Z 10002b50 f i c_menu.obj
 0001:00001b50       ?select_on_container_copy_construction@?$_Default_allocator_traits@V?$allocator@M@std@@@std@@SA?AV?$allocator@M@2@ABV32@@Z 10002b50 f i c_renderer.obj
 0001:00001b50       ??$move@AAV?$tuple@MMM@std@@@std@@YA$$QAV?$tuple@MMM@0@AAV10@@Z 10002b50 f i c_aimhelper.obj
 0001:00001b50       ??$addressof@$$CBV<lambda_1>@?1??for_each_player_fixed_z_order@c_client_entity_list@@QAEXV?$function@$$A6AXPAVc_cs_player@@@Z@std@@@Z@@std@@YAPBV<lambda_1>@?1??for_each_player_fixed_z_order@c_client_entity_list@@QAEXV?$function@$$A6AXPAVc_cs_player@@@Z@0@@Z@ABV1?1??23@QAEX0@Z@@Z 10002b50 f i c_chams.obj
 0001:00001b50       ??$_Get_unwrapped@$$CBE@std@@YAPBEQBE@Z 10002b50 f i c_miscellaneous.obj
 0001:00001b50       ??$forward@PBV?$json_ref@V?$basic_json@Vmap@std@@Vvector@2@V?$basic_string@DU?$char_traits@D@std@@V?$allocator@D@2@@2@_N_J_KNVallocator@2@Uadl_serializer@nlohmann@@@nlohmann@@@detail@nlohmann@@@std@@YA$$QAPBV?$json_ref@V?$basic_json@Vmap@std@@Vvector@2@V?$basic_string@DU?$char_traits@D@std@@V?$allocator@D@2@@2@_N_J_KNVallocator@2@Uadl_serializer@nlohmann@@@nlohmann@@@detail@nlohmann@@AAPBV123@@Z 10002b50 f i c_conf.obj
 0001:00001b50       ??$move@AAV?$shared_ptr@Vc_navbar@@@std@@@std@@YA$$QAV?$shared_ptr@Vc_navbar@@@0@AAV10@@Z 10002b50 f i c_menu.obj
 0001:00001b50       ??$move@AAV?$shared_ptr@Vc_hotkey_select@@@std@@@std@@YA$$QAV?$shared_ptr@Vc_hotkey_select@@@0@AAV10@@Z 10002b50 f i c_aiming.obj
 0001:00001b50       ??$forward@ABV?$map@V?$basic_string@DU?$char_traits@D@std@@V?$allocator@D@2@@std@@V?$basic_json@Vmap@std@@Vvector@2@V?$basic_string@DU?$char_traits@D@std@@V?$allocator@D@2@@2@_N_J_KNVallocator@2@Uadl_serializer@nlohmann@@@nlohmann@@U?$less@X@2@V?$allocator@U?$pair@$$CBV?$basic_string@DU?$char_traits@D@std@@V?$allocator@D@2@@std@@V?$basic_json@Vmap@std@@Vvector@2@V?$basic_string@DU?$char_traits@D@std@@V?$allocator@D@2@@2@_N_J_KNVallocator@2@Uadl_serializer@nlohmann@@@nlohmann@@@std@@@2@@std@@@std@@YAABV?$map@V?$basic_string@DU?$char_traits@D@std@@V?$allocator@D@2@@std@@V?$basic_json@Vmap@std@@Vvector@2@V?$basic_string@DU?$char_traits@D@std@@V?$allocator@D@2@@2@_N_J_KNVallocator@2@Uadl_serializer@nlohmann@@@nlohmann@@U?$less@X@2@V?$allocator@U?$pair@$$CBV?$basic_string@DU?$char_traits@D@std@@V?$allocator@D@2@@std@@V?$basic_json@Vmap@std@@Vvector@2@V?$basic_string@DU?$char_traits@D@std@@V?$allocator@D@2@@2@_N_J_KNVallocator@2@Uadl_serializer@nlohmann@@@nlohmann@@@std@@@2@@0@ABV10@@Z 10002b50 f i c_conf.obj
 0001:00001b50       ??$forward@U_One_then_variadic_args_t@std@@@std@@YA$$QAU_One_then_variadic_args_t@0@AAU10@@Z 10002b50 f i c_aimhelper.obj
 0001:00001b50       ??$addressof@V?$_Tree_val@U?$_Tree_simple_types@U?$pair@$$CBHH@std@@@std@@@std@@@std@@YAPAV?$_Tree_val@U?$_Tree_simple_types@U?$pair@$$CBHH@std@@@std@@@0@AAV10@@Z 10002b50 f i c_prediction_.obj
 0001:00001b50       ??$_Get_unwrapped@H@std@@YAPAHQAH@Z 10002b50 f i c_aimhelper.obj
 0001:00001b50       ??$forward@AAV?$_List_iterator@V?$_List_val@U?$_List_simple_types@U?$pair@QAVc_hotkey_select@@V?$function@$$A6AXI@Z@std@@@std@@@std@@@std@@@std@@@std@@YAAAV?$_List_iterator@V?$_List_val@U?$_List_simple_types@U?$pair@QAVc_hotkey_select@@V?$function@$$A6AXI@Z@std@@@std@@@std@@@std@@@0@AAV10@@Z 10002b50 f i c_hotkeys.obj
 0001:00001b50       ??$addressof@U?$pair@$$CBHH@std@@@std@@YAPAU?$pair@$$CBHH@0@AAU10@@Z 10002b50 f i c_prediction_.obj
 0001:00001b50       ??$forward@ABV<lambda_1>@?1???$create@V?$vector@V?$basic_json@Vmap@std@@Vvector@2@V?$basic_string@DU?$char_traits@D@std@@V?$allocator@D@2@@2@_N_J_KNVallocator@2@Uadl_serializer@nlohmann@@@nlohmann@@V?$allocator@V?$basic_json@Vmap@std@@Vvector@2@V?$basic_string@DU?$char_traits@D@std@@V?$allocator@D@2@@2@_N_J_KNVallocator@2@Uadl_serializer@nlohmann@@@nlohmann@@@std@@@std@@PBV?$json_ref@V?$basic_json@Vmap@std@@Vvector@2@V?$basic_string@DU?$char_traits@D@std@@V?$allocator@D@2@@2@_N_J_KNVallocator@2@Uadl_serializer@nlohmann@@@nlohmann@@@detail@nlohmann@@PBV345@@?$basic_json@Vmap@std@@Vvector@2@V?$basic_string@DU?$char_traits@D@std@@V?$allocator@D@2@@2@_N_J_KNVallocator@2@Uadl_serializer@nlohmann@@@nlohmann@@CAPAV?$vector@V?$basic_json@Vmap@std@@Vvector@2@V?$basic_string@DU?$char_traits@D@std@@V?$allocator@D@2@@2@_N_J_KNVallocator@2@Uadl_serializer@nlohmann@@@nlohmann@@V?$allocator@V?$basic_json@Vmap@std@@Vvector@2@V?$basic_string@DU?$char_traits@D@std@@V?$allocator@D@2@@2@_N_J_KNVallocator@2@Uadl_serializer@nlohmann@@@nlohmann@@@std@@@std@@$$QAPBV?$json_ref@V?$basic_json@Vmap@std@@Vvector@2@V?$basic_string@DU?$char_traits@D@std@@V?$allocator@D@2@@2@_N_J_KNVallocator@2@Uadl_serializer@nlohmann@@@nlohmann@@@detail@3@0@Z@@std@@YAABV<lambda_1>@?1???$create@V?$vector@V?$basic_json@Vmap@std@@Vvector@2@V?$basic_string@DU?$char_traits@D@std@@V?$allocator@D@2@@2@_N_J_KNVallocator@2@Uadl_serializer@nlohmann@@@nlohmann@@V?$allocator@V?$basic_json@Vmap@std@@Vvector@2@V?$basic_string@DU?$char_traits@D@std@@V?$allocator@D@2@@2@_N_J_KNVallocator@2@Uadl_serializer@nlohmann@@@nlohmann@@@std@@@std@@PBV?$json_ref@V?$basic_json@Vmap@std@@Vvector@2@V?$basic_string@DU?$char_traits@D@std@@V?$allocator@D@2@@2@_N_J_KNVallocator@2@Uadl_serializer@nlohmann@@@nlohmann@@@detail@nlohmann@@PBV345@@?$basic_json@Vmap@std@@Vvector@2@V?$basic_string@DU?$char_traits@D@std@@V?$allocator@D@2@@2@_N_J_KNVallocator@2@Uadl_serializer@nlohmann@@@nlohmann@@CAPAV?$vector@V?$basic_json@Vmap@std@@Vvector@2@V?$basic_string@DU?$char_traits@D@std@@V?$allocator@D@2@@2@_N_J_KNVallocator@2@Uadl_serializer@nlohmann@@@nlohmann@@V?$allocator@V?$basic_json@Vmap@std@@Vvector@2@V?$basic_string@DU?$char_traits@D@std@@V?$allocator@D@2@@2@_N_J_KNVallocator@2@Uadl_serializer@nlohmann@@@nlohmann@@@std@@@0@$$QAPBV?$json_ref@V?$basic_json@Vmap@std@@Vvector@2@V?$basic_string@DU?$char_traits@D@std@@V?$allocator@D@2@@2@_N_J_KNVallocator@2@Uadl_serializer@nlohmann@@@nlohmann@@@detail@3@0@Z@ABV1?1???$create@V?$vector@V?$basic_json@Vmap@std@@Vvector@2@V?$basic_string@DU?$char_traits@D@std@@V?$allocator@D@2@@2@_N_J_KNVallocator@2@Uadl_serializer@nlohmann@@@nlohmann@@V?$allocator@V?$basic_json@Vmap@std@@Vvector@2@V?$basic_string@DU?$char_traits@D@std@@V?$allocator@D@2@@2@_N_J_KNVallocator@2@Uadl_serializer@nlohmann@@@nlohmann@@@std@@@std@@PBV?$json_ref@V?$basic_json@Vmap@std@@Vvector@2@V?$basic_string@DU?$char_traits@D@std@@V?$allocator@D@2@@2@_N_J_KNVallocator@2@Uadl_serializer@nlohmann@@@nlohmann@@@detail@nlohmann@@PBV345@@23@CAPAV40@00@Z@@Z 10002b50 f i c_conf.obj
 0001:00001b50       ??$addressof@V?$_Vector_val@U?$_Simple_types@Uimpact_info@@@std@@@std@@@std@@YAPAV?$_Vector_val@U?$_Simple_types@Uimpact_info@@@std@@@0@AAV10@@Z 10002b50 f i c_hitmarker.obj
 0001:00001b50       ??$forward@ABH@std@@YAABHABH@Z 10002b50 f i c_client.obj
 0001:00001b50       ??$_Get_unwrapped@PAUanimation@c_animation_system@@@std@@YAPAPAUanimation@c_animation_system@@QAPAU12@@Z 10002b50 f i c_animation_system.obj
 0001:00001b50       ??$forward@V?$_List_unchecked_iterator@V?$_List_val@U?$_List_simple_types@U?$pair@$$CBIVc_font@@@std@@@std@@@std@@@std@@@std@@YA$$QAV?$_List_unchecked_iterator@V?$_List_val@U?$_List_simple_types@U?$pair@$$CBIVc_font@@@std@@@std@@@std@@@0@AAV10@@Z 10002b50 f i c_renderer.obj
 0001:00001b50       ??$addressof@PAD@std@@YAPAPADAAPAD@Z 10002b50 f i dll.obj
 0001:00001b50       ??$_Get_unwrapped@Uplayer_info@c_esp@@@std@@YAPAUplayer_info@c_esp@@QAU12@@Z 10002b50 f i c_esp.obj
 0001:00001b50       ??$forward@V?$_List_iterator@V?$_List_val@U?$_List_simple_types@U?$pair@$$CBIVc_font@@@std@@@std@@@std@@@std@@@std@@YA$$QAV?$_List_iterator@V?$_List_val@U?$_List_simple_types@U?$pair@$$CBIVc_font@@@std@@@std@@@std@@@0@AAV10@@Z 10002b50 f i c_renderer.obj
 0001:00001b50       ??$forward@AAPAU?$pair@PAVc_cs_player@@M@std@@@std@@YAAAPAU?$pair@PAVc_cs_player@@M@0@AAPAU10@@Z 10002b50 f i c_chams.obj
 0001:00001b50       ??$forward@V?$tuple@PAUanimation@c_animation_system@@M@std@@@std@@YA$$QAV?$tuple@PAUanimation@c_animation_system@@M@0@AAV10@@Z 10002b50 f i c_aimhelper.obj
 0001:00001b50       ??$addressof@PAU?$_Tree_node@U?$pair@$$CBV?$basic_string@DU?$char_traits@D@std@@V?$allocator@D@2@@std@@V?$basic_json@Vmap@std@@Vvector@2@V?$basic_string@DU?$char_traits@D@std@@V?$allocator@D@2@@2@_N_J_KNVallocator@2@Uadl_serializer@nlohmann@@@nlohmann@@@std@@PAX@std@@@std@@YAPAPAU?$_Tree_node@U?$pair@$$CBV?$basic_string@DU?$char_traits@D@std@@V?$allocator@D@2@@std@@V?$basic_json@Vmap@std@@Vvector@2@V?$basic_string@DU?$char_traits@D@std@@V?$allocator@D@2@@2@_N_J_KNVallocator@2@Uadl_serializer@nlohmann@@@nlohmann@@@std@@PAX@0@AAPAU10@@Z 10002b50 f i c_conf.obj
 0001:00001b50       ??$addressof@PAU?$_List_node@U?$pair@$$CBIVc_font@@@std@@PAX@std@@@std@@YAPAPAU?$_List_node@U?$pair@$$CBIVc_font@@@std@@PAX@0@AAPAU10@@Z 10002b50 f i c_damage_esp.obj
 0001:00001b50       ??$addressof@$$CBU?$pair@$$CBV?$basic_string@DU?$char_traits@D@std@@V?$allocator@D@2@@std@@V?$basic_json@Vmap@std@@Vvector@2@V?$basic_string@DU?$char_traits@D@std@@V?$allocator@D@2@@2@_N_J_KNVallocator@2@Uadl_serializer@nlohmann@@@nlohmann@@@std@@@std@@YAPBU?$pair@$$CBV?$basic_string@DU?$char_traits@D@std@@V?$allocator@D@2@@std@@V?$basic_json@Vmap@std@@Vvector@2@V?$basic_string@DU?$char_traits@D@std@@V?$allocator@D@2@@2@_N_J_KNVallocator@2@Uadl_serializer@nlohmann@@@nlohmann@@@0@ABU10@@Z 10002b50 f i c_conf.obj
 0001:00001b50       ??$forward@V?$_List_iterator@V?$_List_val@U?$_List_simple_types@U?$pair@$$CBIV?$unordered_map@IUnetvar@c_netvar@@U?$hash@I@std@@U?$equal_to@I@4@V?$allocator@U?$pair@$$CBIUnetvar@c_netvar@@@std@@@4@@std@@@std@@@std@@@std@@@std@@@std@@YA$$QAV?$_List_iterator@V?$_List_val@U?$_List_simple_types@U?$pair@$$CBIV?$unordered_map@IUnetvar@c_netvar@@U?$hash@I@std@@U?$equal_to@I@4@V?$allocator@U?$pair@$$CBIUnetvar@c_netvar@@@std@@@4@@std@@@std@@@std@@@std@@@0@AAV10@@Z 10002b50 f i c_aimhelper.obj
 0001:00001b50       ??$addressof@V?$_List_val@U?$_List_simple_types@U?$pair@$$CBIUanimation_info@c_animation_system@@@std@@@std@@@std@@@std@@YAPAV?$_List_val@U?$_List_simple_types@U?$pair@$$CBIUanimation_info@c_animation_system@@@std@@@std@@@0@AAV10@@Z 10002b50 f i c_animation_system.obj
 0001:00001b50       ??$forward@AAV?$_List_iterator@V?$_List_val@U?$_List_simple_types@U?$pair@$$CBIU?$pair@HH@std@@@std@@@std@@@std@@@std@@@std@@YAAAV?$_List_iterator@V?$_List_val@U?$_List_simple_types@U?$pair@$$CBIU?$pair@HH@std@@@std@@@std@@@std@@@0@AAV10@@Z 10002b50 f i c_esp.obj
 0001:00001b50       ??$move@AAV?$_List_unchecked_iterator@V?$_List_val@U?$_List_simple_types@U?$pair@$$CBIUnetvar@c_netvar@@@std@@@std@@@std@@@std@@@std@@YA$$QAV?$_List_unchecked_iterator@V?$_List_val@U?$_List_simple_types@U?$pair@$$CBIUnetvar@c_netvar@@@std@@@std@@@std@@@0@AAV10@@Z 10002b50 f i c_aimhelper.obj
 0001:00001b50       ??$forward@AAU?$hash@PAVc_hotkey_select@@@std@@@std@@YAAAU?$hash@PAVc_hotkey_select@@@0@AAU10@@Z 10002b50 f i c_hotkeys.obj
 0001:00001b50       ??$move@AAV?$_List_unchecked_iterator@V?$_List_val@U?$_List_simple_types@U?$pair@QAVc_hotkey_select@@V?$function@$$A6AXI@Z@std@@@std@@@std@@@std@@@std@@@std@@YA$$QAV?$_List_unchecked_iterator@V?$_List_val@U?$_List_simple_types@U?$pair@QAVc_hotkey_select@@V?$function@$$A6AXI@Z@std@@@std@@@std@@@std@@@0@AAV10@@Z 10002b50 f i c_hotkeys.obj
 0001:00001b50       ??$forward@V?$_List_unchecked_iterator@V?$_List_val@U?$_List_simple_types@U?$pair@$$CBIU?$pair@HH@std@@@std@@@std@@@std@@@std@@@std@@YA$$QAV?$_List_unchecked_iterator@V?$_List_val@U?$_List_simple_types@U?$pair@$$CBIU?$pair@HH@std@@@std@@@std@@@std@@@0@AAV10@@Z 10002b50 f i c_esp.obj
 0001:00001b50       ??$addressof@$$CBV?$basic_string@DU?$char_traits@D@std@@V?$allocator@D@2@@std@@@std@@YAPBV?$basic_string@DU?$char_traits@D@std@@V?$allocator@D@2@@0@ABV10@@Z 10002b50 f i c_miscellaneous.obj
 0001:00001b50       ??$forward@ABV?$allocator@U?$pair@$$CBIVc_font@@@std@@@std@@@std@@YAABV?$allocator@U?$pair@$$CBIVc_font@@@std@@@0@ABV10@@Z 10002b50 f i c_renderer.obj
 0001:00001b50       ??$addressof@$$CBV<lambda_2_>@@@std@@YAPBV<lambda_2_>@@ABV1@@Z 10002b50 f i c_conf.obj
 0001:00001b50       ??$addressof@V?$_String_val@U?$_Simple_types@D@std@@@std@@@std@@YAPAV?$_String_val@U?$_Simple_types@D@std@@@0@AAV10@@Z 10002b50 f i dll.obj
 0001:00001b50       ??$forward@ABU?$less@H@std@@@std@@YAABU?$less@H@0@ABU10@@Z 10002b50 f i c_prediction_.obj
 0001:00001b50       ??$_Get_unwrapped@Vc_vector3d@@@std@@YAPAVc_vector3d@@QAV1@@Z 10002b50 f i c_resolver.obj
 0001:00001b50       ??$addressof@D@std@@YAPADAAD@Z 10002b50 f i c_esp.obj
 0001:00001b50       ??$move@AAV?$shared_ptr@Vc_aiming@@@std@@@std@@YA$$QAV?$shared_ptr@Vc_aiming@@@0@AAV10@@Z 10002b50 f i c_menu.obj
 0001:00001b50       ??$_Unfancy@Uanimation@c_animation_system@@@std@@YAPAUanimation@c_animation_system@@PAU12@@Z 10002b50 f i c_aimhelper.obj
 0001:00001b50       ??$move@AAV?$shared_ptr@Vc_conf@@@std@@@std@@YA$$QAV?$shared_ptr@Vc_conf@@@0@AAV10@@Z 10002b50 f i c_menu.obj
 0001:00001b50       ??$forward@V?$allocator@V?$basic_json@Vmap@std@@Vvector@2@V?$basic_string@DU?$char_traits@D@std@@V?$allocator@D@2@@2@_N_J_KNVallocator@2@Uadl_serializer@nlohmann@@@nlohmann@@@std@@@std@@YA$$QAV?$allocator@V?$basic_json@Vmap@std@@Vvector@2@V?$basic_string@DU?$char_traits@D@std@@V?$allocator@D@2@@2@_N_J_KNVallocator@2@Uadl_serializer@nlohmann@@@nlohmann@@@0@AAV10@@Z 10002b50 f i c_conf.obj
 0001:00001b50       ??$_Get_unwrapped_n@V?$_List_unchecked_iterator@V?$_List_val@U?$_List_simple_types@U?$pair@$$CBIUanimation_info@c_animation_system@@@std@@@std@@@std@@@std@@H$0A@@std@@YAPAV?$_List_unchecked_iterator@V?$_List_val@U?$_List_simple_types@U?$pair@$$CBIUanimation_info@c_animation_system@@@std@@@std@@@std@@@0@QAV10@H@Z 10002b50 f i c_animation_system.obj
 0001:00001b50       ??$_Get_unwrapped_n@U?$pair@V?$basic_string@DU?$char_traits@D@std@@V?$allocator@D@2@@std@@D@std@@H$0A@@std@@YAPAU?$pair@V?$basic_string@DU?$char_traits@D@std@@V?$allocator@D@2@@std@@D@0@QAU10@H@Z 10002b50 f i c_menu.obj
 0001:00001b50       ??$_Kfn@$$CBV?$basic_string@DU?$char_traits@D@std@@V?$allocator@D@2@@std@@V?$basic_json@Vmap@std@@Vvector@2@V?$basic_string@DU?$char_traits@D@std@@V?$allocator@D@2@@2@_N_J_KNVallocator@2@Uadl_serializer@nlohmann@@@nlohmann@@@?$_Tmap_traits@V?$basic_string@DU?$char_traits@D@std@@V?$allocator@D@2@@std@@V?$basic_json@Vmap@std@@Vvector@2@V?$basic_string@DU?$char_traits@D@std@@V?$allocator@D@2@@2@_N_J_KNVallocator@2@Uadl_serializer@nlohmann@@@nlohmann@@U?$less@X@2@V?$allocator@U?$pair@$$CBV?$basic_string@DU?$char_traits@D@std@@V?$allocator@D@2@@std@@V?$basic_json@Vmap@std@@Vvector@2@V?$basic_string@DU?$char_traits@D@std@@V?$allocator@D@2@@2@_N_J_KNVallocator@2@Uadl_serializer@nlohmann@@@nlohmann@@@std@@@2@$0A@@std@@SAABV?$basic_string@DU?$char_traits@D@std@@V?$allocator@D@2@@1@ABU?$pair@$$CBV?$basic_string@DU?$char_traits@D@std@@V?$allocator@D@2@@std@@V?$basic_json@Vmap@std@@Vvector@2@V?$basic_string@DU?$char_traits@D@std@@V?$allocator@D@2@@2@_N_J_KNVallocator@2@Uadl_serializer@nlohmann@@@nlohmann@@@1@@Z 10002b50 f i c_conf.obj
 0001:00001b50       ??$addressof@PAU?$_List_node@U?$pair@$$CBIU?$pair@HH@std@@@std@@PAX@std@@@std@@YAPAPAU?$_List_node@U?$pair@$$CBIU?$pair@HH@std@@@std@@PAX@0@AAPAU10@@Z 10002b50 f i c_esp.obj
 0001:00001b50       ??$forward@ABV?$allocator@PAUanimation@c_animation_system@@@std@@@std@@YAABV?$allocator@PAUanimation@c_animation_system@@@0@ABV10@@Z 10002b50 f i c_aimhelper.obj
 0001:00001b50       ??$get@$01Vc_vector3d@@MPAUanimation@c_animation_system@@@std@@YAABQAUanimation@c_animation_system@@ABV?$tuple@Vc_vector3d@@MPAUanimation@c_animation_system@@@0@@Z 10002b50 f i c_antiaim.obj
 0001:00001b50       ??$forward@AAV?$_Deque_iterator@V?$_Deque_val@U?$_Deque_simple_types@Ushot@resolver@@@std@@@std@@@std@@@std@@YAAAV?$_Deque_iterator@V?$_Deque_val@U?$_Deque_simple_types@Ushot@resolver@@@std@@@std@@@0@AAV10@@Z 10002b50 f i c_resolver.obj
 0001:00001b50       ??$forward@M@std@@YA$$QAMAAM@Z 10002b50 f i c_aimhelper.obj
 0001:00001b50       ??$_Unfancy@V?$_List_unchecked_iterator@V?$_List_val@U?$_List_simple_types@U?$pair@$$CBIV?$unordered_map@IUnetvar@c_netvar@@U?$hash@I@std@@U?$equal_to@I@4@V?$allocator@U?$pair@$$CBIUnetvar@c_netvar@@@std@@@4@@std@@@std@@@std@@@std@@@std@@@std@@YAPAV?$_List_unchecked_iterator@V?$_List_val@U?$_List_simple_types@U?$pair@$$CBIV?$unordered_map@IUnetvar@c_netvar@@U?$hash@I@std@@U?$equal_to@I@4@V?$allocator@U?$pair@$$CBIUnetvar@c_netvar@@@std@@@4@@std@@@std@@@std@@@std@@@0@PAV10@@Z 10002b50 f i c_aimhelper.obj
 0001:00001b50       ??$get@$01Vc_vector3d@@PAUanimation@c_animation_system@@M@std@@YAAAMAAV?$tuple@Vc_vector3d@@PAUanimation@c_animation_system@@M@0@@Z 10002b50 f i c_aimhelper.obj
 0001:00001b50       ??$_Unfancy@V?$vector@MV?$allocator@M@std@@@std@@@std@@YAPAV?$vector@MV?$allocator@M@std@@@0@PAV10@@Z 10002b50 f i c_font.obj
 0001:00001b50       ??$forward@ABV?$_List_unchecked_iterator@V?$_List_val@U?$_List_simple_types@U?$pair@$$CBIUanimation_info@c_animation_system@@@std@@@std@@@std@@@std@@@std@@YAABV?$_List_unchecked_iterator@V?$_List_val@U?$_List_simple_types@U?$pair@$$CBIUanimation_info@c_animation_system@@@std@@@std@@@std@@@0@ABV10@@Z 10002b50 f i c_aimhelper.obj
 0001:00001b50       ??$forward@PAI@std@@YA$$QAPAIAAPAI@Z 10002b50 f i c_net_channel_.obj
 0001:00001b50       ??$_Get_unwrapped_n@V?$vector@MV?$allocator@M@std@@@std@@H$0A@@std@@YAPAV?$vector@MV?$allocator@M@std@@@0@QAV10@H@Z 10002b50 f i c_font.obj
 0001:00001b50       ??$move@AAV?$shared_ptr@Vc_float_select@@@std@@@std@@YA$$QAV?$shared_ptr@Vc_float_select@@@0@AAV10@@Z 10002b50 f i c_aiming.obj
 0001:00001b50       ??$get@$01MMM@std@@YAAAMAAV?$tuple@MMM@0@@Z 10002b50 f i c_aimhelper.obj
 0001:00001b50       ??$addressof@$$CBV?$vector@V?$vector@MV?$allocator@M@std@@@std@@V?$allocator@V?$vector@MV?$allocator@M@std@@@std@@@2@@std@@@std@@YAPBV?$vector@V?$vector@MV?$allocator@M@std@@@std@@V?$allocator@V?$vector@MV?$allocator@M@std@@@std@@@2@@0@ABV10@@Z 10002b50 f i c_renderer.obj
 0001:00001b50       ??$forward@AAPAU?$_List_node@U?$pair@$$CBIUanimation_info@c_animation_system@@@std@@PAX@std@@@std@@YAAAPAU?$_List_node@U?$pair@$$CBIUanimation_info@c_animation_system@@@std@@PAX@0@AAPAU10@@Z 10002b50 f i c_aimhelper.obj
 0001:00001b50       ??$_Get_unwrapped_n@PAUanimation@c_animation_system@@H$0A@@std@@YAPAPAUanimation@c_animation_system@@QAPAU12@H@Z 10002b50 f i c_aimhelper.obj
 0001:00001b50       ??$move@AAU?$pair@V?$basic_string@DU?$char_traits@D@std@@V?$allocator@D@2@@std@@D@std@@@std@@YA$$QAU?$pair@V?$basic_string@DU?$char_traits@D@std@@V?$allocator@D@2@@std@@D@0@AAU10@@Z 10002b50 f i c_float_select.obj
 0001:00001b50       ??$addressof@PAUshot@resolver@@@std@@YAPAPAUshot@resolver@@AAPAU12@@Z 10002b50 f i c_animation_system.obj
 0001:00001b50       ??$move@AAPAUinput_adapter_protocol@detail@nlohmann@@@std@@YA$$QAPAUinput_adapter_protocol@detail@nlohmann@@AAPAU123@@Z 10002b50 f i c_conf.obj
 0001:00001b50       ??$forward@AAVc_vector3d@@@std@@YAAAVc_vector3d@@AAV1@@Z 10002b50 f i c_aimhelper.obj
 0001:00001b50       ??$_Get_unwrapped@V?$function@$$A6AXXZ@std@@@std@@YAPAV?$function@$$A6AXXZ@0@QAV10@@Z 10002b50 f i c_renderer.obj
 0001:00001b50       ??$forward@ABQAD@std@@YAABQADABQAD@Z 10002b50 f i dll.obj
 0001:00001b50       ??$forward@PAU?$_Tree_node@U?$pair@$$CBV?$basic_string@DU?$char_traits@D@std@@V?$allocator@D@2@@std@@V?$basic_json@Vmap@std@@Vvector@2@V?$basic_string@DU?$char_traits@D@std@@V?$allocator@D@2@@2@_N_J_KNVallocator@2@Uadl_serializer@nlohmann@@@nlohmann@@@std@@PAX@std@@@std@@YA$$QAPAU?$_Tree_node@U?$pair@$$CBV?$basic_string@DU?$char_traits@D@std@@V?$allocator@D@2@@std@@V?$basic_json@Vmap@std@@Vvector@2@V?$basic_string@DU?$char_traits@D@std@@V?$allocator@D@2@@2@_N_J_KNVallocator@2@Uadl_serializer@nlohmann@@@nlohmann@@@std@@PAX@0@AAPAU10@@Z 10002b50 f i c_conf.obj
 0001:00001b50       ??$_Unfancy_maybe_null@H@std@@YAPAHPAH@Z 10002b50 f i c_aimhelper.obj
 0001:00001b50       ??$forward@ABV<lambda_1>@?1???$create@V?$basic_string@DU?$char_traits@D@std@@V?$allocator@D@2@@std@@AAY00$$CBD@?$basic_json@Vmap@std@@Vvector@2@V?$basic_string@DU?$char_traits@D@std@@V?$allocator@D@2@@2@_N_J_KNVallocator@2@Uadl_serializer@nlohmann@@@nlohmann@@CAPAV?$basic_string@DU?$char_traits@D@std@@V?$allocator@D@2@@std@@AAY00$$CBD@Z@@std@@YAABV<lambda_1>@?1???$create@V?$basic_string@DU?$char_traits@D@std@@V?$allocator@D@2@@std@@AAY00$$CBD@?$basic_json@Vmap@std@@Vvector@2@V?$basic_string@DU?$char_traits@D@std@@V?$allocator@D@2@@2@_N_J_KNVallocator@2@Uadl_serializer@nlohmann@@@nlohmann@@CAPAV?$basic_string@DU?$char_traits@D@std@@V?$allocator@D@2@@0@AAY00$$CBD@Z@ABV1?1???$create@V?$basic_string@DU?$char_traits@D@std@@V?$allocator@D@2@@std@@AAY00$$CBD@23@CAPAV40@0@Z@@Z 10002b50 f i c_conf.obj
 0001:00001b50       ??$forward@AAY0JICH@E@std@@YAAAY0JICH@EAAY0JICH@E@Z 10002b50 f i c_menu.obj
 0001:00001b50       ??$move@AAUanimation@c_animation_system@@@std@@YA$$QAUanimation@c_animation_system@@AAU12@@Z 10002b50 f i c_animation_system.obj
 0001:00001b50       ??$forward@V?$_List_iterator@V?$_List_val@U?$_List_simple_types@U?$pair@$$CBIUanimation_info@c_animation_system@@@std@@@std@@@std@@@std@@@std@@YA$$QAV?$_List_iterator@V?$_List_val@U?$_List_simple_types@U?$pair@$$CBIUanimation_info@c_animation_system@@@std@@@std@@@std@@@0@AAV10@@Z 10002b50 f i c_animation_system.obj
 0001:00001b50       ??$move@AAM@std@@YA$$QAMAAM@Z 10002b50 f i c_chams.obj
 0001:00001b50       ??$forward@AAV?$basic_json@Vmap@std@@Vvector@2@V?$basic_string@DU?$char_traits@D@std@@V?$allocator@D@2@@2@_N_J_KNVallocator@2@Uadl_serializer@nlohmann@@@nlohmann@@@std@@YAAAV?$basic_json@Vmap@std@@Vvector@2@V?$basic_string@DU?$char_traits@D@std@@V?$allocator@D@2@@2@_N_J_KNVallocator@2@Uadl_serializer@nlohmann@@@nlohmann@@AAV12@@Z 10002b50 f i c_conf.obj
 0001:00001b50       ??$forward@V<lambda_1>@?1??for_each_player_fixed_z_order@c_client_entity_list@@QAEXV?$function@$$A6AXPAVc_cs_player@@@Z@std@@@Z@@std@@YA$$QAV<lambda_1>@?1??for_each_player_fixed_z_order@c_client_entity_list@@QAEXV?$function@$$A6AXPAVc_cs_player@@@Z@0@@Z@AAV1?1??23@QAEX0@Z@@Z 10002b50 f i c_chams.obj
 0001:00001b50       ??$_Get_unwrapped_n@V?$_List_unchecked_iterator@V?$_List_val@U?$_List_simple_types@U?$pair@$$CBIVc_font@@@std@@@std@@@std@@@std@@H$0A@@std@@YAPAV?$_List_unchecked_iterator@V?$_List_val@U?$_List_simple_types@U?$pair@$$CBIVc_font@@@std@@@std@@@std@@@0@QAV10@H@Z 10002b50 f i c_renderer.obj
 0001:00001b50       ??$addressof@PAU?$_List_node@U?$pair@QAVc_hotkey_select@@V?$function@$$A6AXI@Z@std@@@std@@PAX@std@@@std@@YAPAPAU?$_List_node@U?$pair@QAVc_hotkey_select@@V?$function@$$A6AXI@Z@std@@@std@@PAX@0@AAPAU10@@Z 10002b50 f i c_fake_ping.obj
 0001:00001b50       ??$forward@V?$tuple@PAUanimation@c_animation_system@@@std@@@std@@YA$$QAV?$tuple@PAUanimation@c_animation_system@@@0@AAV10@@Z 10002b50 f i c_legitbot.obj
 0001:00001b50       ??$addressof@$$CBV?$codecvt@DDU_Mbstatet@@@std@@@std@@YAPBV?$codecvt@DDU_Mbstatet@@@0@ABV10@@Z 10002b50 f i dll.obj
 0001:00001b50       ??$forward@AAV?$_List_iterator@V?$_List_val@U?$_List_simple_types@U?$pair@$$CBIVc_font@@@std@@@std@@@std@@@std@@@std@@YAAAV?$_List_iterator@V?$_List_val@U?$_List_simple_types@U?$pair@$$CBIVc_font@@@std@@@std@@@std@@@0@AAV10@@Z 10002b50 f i c_renderer.obj
 0001:00001b50       ??$move@AAV<lambda_1>@?1??for_each_player_fixed_z_order@c_client_entity_list@@QAEXV?$function@$$A6AXPAVc_cs_player@@@Z@std@@@Z@@std@@YA$$QAV<lambda_1>@?1??for_each_player_fixed_z_order@c_client_entity_list@@QAEXV?$function@$$A6AXPAVc_cs_player@@@Z@0@@Z@AAV1?1??23@QAEX0@Z@@Z 10002b50 f i c_chams.obj
 0001:00001b50       ??$forward@ABV?$allocator@V?$_List_unchecked_iterator@V?$_List_val@U?$_List_simple_types@U?$pair@$$CBIU?$pair@HH@std@@@std@@@std@@@std@@@std@@@std@@@std@@YAABV?$allocator@V?$_List_unchecked_iterator@V?$_List_val@U?$_List_simple_types@U?$pair@$$CBIU?$pair@HH@std@@@std@@@std@@@std@@@std@@@0@ABV10@@Z 10002b50 f i c_esp.obj
 0001:00001b50       ??$move@AAV?$vector@MV?$allocator@M@std@@@std@@@std@@YA$$QAV?$vector@MV?$allocator@M@std@@@0@AAV10@@Z 10002b50 f i c_font.obj
 0001:00001b50       ??$_Get_unwrapped@Uimpact_info@@@std@@YAPAUimpact_info@@QAU1@@Z 10002b50 f i c_hitmarker.obj
 0001:00001b50       ??$addressof@$$CBV?$_Tree_val@U?$_Tree_simple_types@U?$pair@$$CBV?$basic_string@DU?$char_traits@D@std@@V?$allocator@D@2@@std@@V?$basic_json@Vmap@std@@Vvector@2@V?$basic_string@DU?$char_traits@D@std@@V?$allocator@D@2@@2@_N_J_KNVallocator@2@Uadl_serializer@nlohmann@@@nlohmann@@@std@@@std@@@std@@@std@@YAPBV?$_Tree_val@U?$_Tree_simple_types@U?$pair@$$CBV?$basic_string@DU?$char_traits@D@std@@V?$allocator@D@2@@std@@V?$basic_json@Vmap@std@@Vvector@2@V?$basic_string@DU?$char_traits@D@std@@V?$allocator@D@2@@2@_N_J_KNVallocator@2@Uadl_serializer@nlohmann@@@nlohmann@@@std@@@std@@@0@ABV10@@Z 10002b50 f i c_conf.obj
 0001:00001b50       ??$_Get_unwrapped@V?$vector@MV?$allocator@M@std@@@std@@@std@@YAPAV?$vector@MV?$allocator@M@std@@@0@QAV10@@Z 10002b50 f i c_font.obj
 0001:00001b50       ??$move@AAVc_vector3d@@@std@@YA$$QAVc_vector3d@@AAV1@@Z 10002b50 f i c_resolver.obj
 0001:00001b50       ??$_Unfancy@Uplayer_info@c_esp@@@std@@YAPAUplayer_info@c_esp@@PAU12@@Z 10002b50 f i c_esp.obj
 0001:00001b50       ??$_Unfancy@V?$basic_json@Vmap@std@@Vvector@2@V?$basic_string@DU?$char_traits@D@std@@V?$allocator@D@2@@2@_N_J_KNVallocator@2@Uadl_serializer@nlohmann@@@nlohmann@@@std@@YAPAV?$basic_json@Vmap@std@@Vvector@2@V?$basic_string@DU?$char_traits@D@std@@V?$allocator@D@2@@2@_N_J_KNVallocator@2@Uadl_serializer@nlohmann@@@nlohmann@@PAV12@@Z 10002b50 f i c_conf.obj
 0001:00001b50       ??$_Unfancy@Vc_vector2d@@@std@@YAPAVc_vector2d@@PAV1@@Z 10002b50 f i c_renderer.obj
 0001:00001b50       ??$move@AAW4value_t@detail@nlohmann@@@std@@YA$$QAW4value_t@detail@nlohmann@@AAW4123@@Z 10002b50 f i c_conf.obj
 0001:00001b50       ??$forward@ABV<lambda_1>@?1???$create@V?$map@V?$basic_string@DU?$char_traits@D@std@@V?$allocator@D@2@@std@@V?$basic_json@Vmap@std@@Vvector@2@V?$basic_string@DU?$char_traits@D@std@@V?$allocator@D@2@@2@_N_J_KNVallocator@2@Uadl_serializer@nlohmann@@@nlohmann@@U?$less@X@2@V?$allocator@U?$pair@$$CBV?$basic_string@DU?$char_traits@D@std@@V?$allocator@D@2@@std@@V?$basic_json@Vmap@std@@Vvector@2@V?$basic_string@DU?$char_traits@D@std@@V?$allocator@D@2@@2@_N_J_KNVallocator@2@Uadl_serializer@nlohmann@@@nlohmann@@@std@@@2@@std@@ABV12@@?$basic_json@Vmap@std@@Vvector@2@V?$basic_string@DU?$char_traits@D@std@@V?$allocator@D@2@@2@_N_J_KNVallocator@2@Uadl_serializer@nlohmann@@@nlohmann@@CAPAV?$map@V?$basic_string@DU?$char_traits@D@std@@V?$allocator@D@2@@std@@V?$basic_json@Vmap@std@@Vvector@2@V?$basic_string@DU?$char_traits@D@std@@V?$allocator@D@2@@2@_N_J_KNVallocator@2@Uadl_serializer@nlohmann@@@nlohmann@@U?$less@X@2@V?$allocator@U?$pair@$$CBV?$basic_string@DU?$char_traits@D@std@@V?$allocator@D@2@@std@@V?$basic_json@Vmap@std@@Vvector@2@V?$basic_string@DU?$char_traits@D@std@@V?$allocator@D@2@@2@_N_J_KNVallocator@2@Uadl_serializer@nlohmann@@@nlohmann@@@std@@@2@@std@@ABV45@@Z@@std@@YAABV<lambda_1>@?1???$create@V?$map@V?$basic_string@DU?$char_traits@D@std@@V?$allocator@D@2@@std@@V?$basic_json@Vmap@std@@Vvector@2@V?$basic_string@DU?$char_traits@D@std@@V?$allocator@D@2@@2@_N_J_KNVallocator@2@Uadl_serializer@nlohmann@@@nlohmann@@U?$less@X@2@V?$allocator@U?$pair@$$CBV?$basic_string@DU?$char_traits@D@std@@V?$allocator@D@2@@std@@V?$basic_json@Vmap@std@@Vvector@2@V?$basic_string@DU?$char_traits@D@std@@V?$allocator@D@2@@2@_N_J_KNVallocator@2@Uadl_serializer@nlohmann@@@nlohmann@@@std@@@2@@std@@ABV12@@?$basic_json@Vmap@std@@Vvector@2@V?$basic_string@DU?$char_traits@D@std@@V?$allocator@D@2@@2@_N_J_KNVallocator@2@Uadl_serializer@nlohmann@@@nlohmann@@CAPAV?$map@V?$basic_string@DU?$char_traits@D@std@@V?$allocator@D@2@@std@@V?$basic_json@Vmap@std@@Vvector@2@V?$basic_string@DU?$char_traits@D@std@@V?$allocator@D@2@@2@_N_J_KNVallocator@2@Uadl_serializer@nlohmann@@@nlohmann@@U?$less@X@2@V?$allocator@U?$pair@$$CBV?$basic_string@DU?$char_traits@D@std@@V?$allocator@D@2@@std@@V?$basic_json@Vmap@std@@Vvector@2@V?$basic_string@DU?$char_traits@D@std@@V?$allocator@D@2@@2@_N_J_KNVallocator@2@Uadl_serializer@nlohmann@@@nlohmann@@@std@@@2@@0@ABV40@@Z@ABV1?1???$create@V?$map@V?$basic_string@DU?$char_traits@D@std@@V?$allocator@D@2@@std@@V?$basic_json@Vmap@std@@Vvector@2@V?$basic_string@DU?$char_traits@D@std@@V?$allocator@D@2@@2@_N_J_KNVallocator@2@Uadl_serializer@nlohmann@@@nlohmann@@U?$less@X@2@V?$allocator@U?$pair@$$CBV?$basic_string@DU?$char_traits@D@std@@V?$allocator@D@2@@std@@V?$basic_json@Vmap@std@@Vvector@2@V?$basic_string@DU?$char_traits@D@std@@V?$allocator@D@2@@2@_N_J_KNVallocator@2@Uadl_serializer@nlohmann@@@nlohmann@@@std@@@2@@std@@ABV12@@23@CAPAV40@0@Z@@Z 10002b50 f i c_conf.obj
 0001:00001b50       ??$forward@ABV?$function@$$A6AXI@Z@std@@@std@@YAABV?$function@$$A6AXI@Z@0@ABV10@@Z 10002b50 f i c_hotkeys.obj
 0001:00001b50       ??$forward@V?$allocator@U?$_Tree_node@U?$pair@$$CBV?$basic_string@DU?$char_traits@D@std@@V?$allocator@D@2@@std@@V?$basic_json@Vmap@std@@Vvector@2@V?$basic_string@DU?$char_traits@D@std@@V?$allocator@D@2@@2@_N_J_KNVallocator@2@Uadl_serializer@nlohmann@@@nlohmann@@@std@@PAX@std@@@std@@@std@@YA$$QAV?$allocator@U?$_Tree_node@U?$pair@$$CBV?$basic_string@DU?$char_traits@D@std@@V?$allocator@D@2@@std@@V?$basic_json@Vmap@std@@Vvector@2@V?$basic_string@DU?$char_traits@D@std@@V?$allocator@D@2@@2@_N_J_KNVallocator@2@Uadl_serializer@nlohmann@@@nlohmann@@@std@@PAX@std@@@0@AAV10@@Z 10002b50 f i c_conf.obj
 0001:00001b50       ??$_Kfn@$$CBHH@?$_Tmap_traits@HHU?$less@H@std@@V?$allocator@U?$pair@$$CBHH@std@@@2@$0A@@std@@SAABHABU?$pair@$$CBHH@1@@Z 10002b50 f i c_prediction_.obj
 0001:00001b50       ??$forward@U?$pair@PAUanimation@c_animation_system@@PAU12@@std@@@std@@YA$$QAU?$pair@PAUanimation@c_animation_system@@PAU12@@0@AAU10@@Z 10002b50 f i c_animation_system.obj
 0001:00001b50       ??$forward@ABUmisc_conf@config_conf@c_config@@@std@@YAABUmisc_conf@config_conf@c_config@@ABU123@@Z 10002b50 f i c_conf.obj
 0001:00001b50       ??$_Get_unwrapped@QAUanimation@c_animation_system@@@std@@YAPBQAUanimation@c_animation_system@@QBQAU12@@Z 10002b50 f i c_aimhelper.obj
 0001:00001b50       ??$addressof@$$CBV?$_Tree_val@U?$_Tree_simple_types@U?$pair@$$CBHH@std@@@std@@@std@@@std@@YAPBV?$_Tree_val@U?$_Tree_simple_types@U?$pair@$$CBHH@std@@@std@@@0@ABV10@@Z 10002b50 f i c_prediction_.obj
 0001:00001b50       ??$move@AAV?$allocator@Uaim_info@c_aimhelper@@@std@@@std@@YA$$QAV?$allocator@Uaim_info@c_aimhelper@@@0@AAV10@@Z 10002b50 f i c_aimhelper.obj
 0001:00001b50       ??$forward@AAU?$equal_to@I@std@@@std@@YAAAU?$equal_to@I@0@AAU10@@Z 10002b50 f i c_aimhelper.obj
 0001:00001b50       ??$addressof@U?$pair@$$CBIU?$pair@HH@std@@@std@@@std@@YAPAU?$pair@$$CBIU?$pair@HH@std@@@0@AAU10@@Z 10002b50 f i c_esp.obj
 0001:00001b50       ??$move@AAV?$shared_ptr@U?$output_adapter_protocol@D@detail@nlohmann@@@std@@@std@@YA$$QAV?$shared_ptr@U?$output_adapter_protocol@D@detail@nlohmann@@@0@AAV10@@Z 10002b50 f i c_conf.obj
 0001:00001b50       ??$forward@ABV?$_List_unchecked_iterator@V?$_List_val@U?$_List_simple_types@U?$pair@$$CBIU?$pair@HH@std@@@std@@@std@@@std@@@std@@@std@@YAABV?$_List_unchecked_iterator@V?$_List_val@U?$_List_simple_types@U?$pair@$$CBIU?$pair@HH@std@@@std@@@std@@@std@@@0@ABV10@@Z 10002b50 f i c_esp.obj
 0001:00001b50       ??$_Get_unwrapped_n@Vc_vector3d@@H$0A@@std@@YAPAVc_vector3d@@QAV1@H@Z 10002b50 f i c_resolver.obj
 0001:00001b50       ??$forward@ABQAU?$_List_node@U?$pair@$$CBIV?$unordered_map@IUnetvar@c_netvar@@U?$hash@I@std@@U?$equal_to@I@4@V?$allocator@U?$pair@$$CBIUnetvar@c_netvar@@@std@@@4@@std@@@std@@PAX@std@@@std@@YAABQAU?$_List_node@U?$pair@$$CBIV?$unordered_map@IUnetvar@c_netvar@@U?$hash@I@std@@U?$equal_to@I@4@V?$allocator@U?$pair@$$CBIUnetvar@c_netvar@@@std@@@4@@std@@@std@@PAX@0@ABQAU10@@Z 10002b50 f i c_aimhelper.obj
 0001:00001b50       ??$forward@V?$allocator@Uanimation@c_animation_system@@@std@@@std@@YA$$QAV?$allocator@Uanimation@c_animation_system@@@0@AAV10@@Z 10002b50 f i c_animation_system.obj
 0001:00001b50       ??$forward@AB_N@std@@YAAB_NAB_N@Z 10002b50 f i c_aimhelper.obj
 0001:00001b50       ??$forward@AAVc_color@@@std@@YAAAVc_color@@AAV1@@Z 10002b50 f i c_visuals.obj
 0001:00001b50       ??$addressof@U?$pair@$$CBIV?$unordered_map@IUnetvar@c_netvar@@U?$hash@I@std@@U?$equal_to@I@4@V?$allocator@U?$pair@$$CBIUnetvar@c_netvar@@@std@@@4@@std@@@std@@@std@@YAPAU?$pair@$$CBIV?$unordered_map@IUnetvar@c_netvar@@U?$hash@I@std@@U?$equal_to@I@4@V?$allocator@U?$pair@$$CBIUnetvar@c_netvar@@@std@@@4@@std@@@0@AAU10@@Z 10002b50 f i dllmain.obj
 0001:00001b50       ??$forward@U?$pair@Vc_vector2d@@V1@@std@@@std@@YA$$QAU?$pair@Vc_vector2d@@V1@@0@AAU10@@Z 10002b50 f i c_flow_layout.obj
 0001:00001b50       ??$forward@AAV<lambda_2_>@@@std@@YAAAV<lambda_2_>@@AAV1@@Z 10002b50 f i c_conf.obj
 0001:00001b50       ??$forward@ABQAVc_hotkey_select@@@std@@YAABQAVc_hotkey_select@@ABQAV1@@Z 10002b50 f i c_hotkeys.obj
 0001:00001b50       ??$forward@ABV?$allocator@V?$_List_unchecked_iterator@V?$_List_val@U?$_List_simple_types@U?$pair@$$CBIUanimation_info@c_animation_system@@@std@@@std@@@std@@@std@@@std@@@std@@YAABV?$allocator@V?$_List_unchecked_iterator@V?$_List_val@U?$_List_simple_types@U?$pair@$$CBIUanimation_info@c_animation_system@@@std@@@std@@@std@@@std@@@0@ABV10@@Z 10002b50 f i c_aimhelper.obj
 0001:00001b50       ??$forward@ABUesp_conf@config_conf@c_config@@@std@@YAABUesp_conf@config_conf@c_config@@ABU123@@Z 10002b50 f i c_conf.obj
 0001:00001b50       ??$forward@Uwall_pen@c_trace_system@@@std@@YA$$QAUwall_pen@c_trace_system@@AAU12@@Z 10002b50 f i c_trace_system.obj
 0001:00001b50       ??$_Get_unwrapped_n@U?$pair@V?$shared_ptr@Vc_drawable@@@std@@U?$pair@Vc_vector2d@@V1@@2@@std@@H$0A@@std@@YAPAU?$pair@V?$shared_ptr@Vc_drawable@@@std@@U?$pair@Vc_vector2d@@V1@@2@@0@QAU10@H@Z 10002b50 f i c_aiming.obj
 0001:00001b50       ??$addressof@QAVc_hotkey_select@@@std@@YAPBQAVc_hotkey_select@@ABQAV1@@Z 10002b50 f i c_hotkeys.obj
 0001:00001b50       ??$_Unfancy@M@std@@YAPAMPAM@Z 10002b50 f i c_renderer.obj
 0001:00001b50       ??$addressof@V?$_Vector_val@U?$_Simple_types@U?$pair@PAVc_cs_player@@M@std@@@std@@@std@@@std@@YAPAV?$_Vector_val@U?$_Simple_types@U?$pair@PAVc_cs_player@@M@std@@@std@@@0@AAV10@@Z 10002b50 f i c_chams.obj
 0001:00001b50       ??$forward@AAV?$vector@MV?$allocator@M@std@@@std@@@std@@YAAAV?$vector@MV?$allocator@M@std@@@0@AAV10@@Z 10002b50 f i c_renderer.obj
 0001:00001b50       ??$_Unfancy@V?$_List_unchecked_iterator@V?$_List_val@U?$_List_simple_types@U?$pair@$$CBIUnetvar@c_netvar@@@std@@@std@@@std@@@std@@@std@@YAPAV?$_List_unchecked_iterator@V?$_List_val@U?$_List_simple_types@U?$pair@$$CBIUnetvar@c_netvar@@@std@@@std@@@std@@@0@PAV10@@Z 10002b50 f i c_aimhelper.obj
 0001:00001b50       ??$_Get_unwrapped_n@PAUc_incoming_sequence@@H$0A@@std@@YAPAPAUc_incoming_sequence@@QAPAU1@H@Z 10002b50 f i c_net_channel_.obj
 0001:00001b50       ??$move@AAV?$shared_ptr@Vc_color_select_preview@c_color_select@@@std@@@std@@YA$$QAV?$shared_ptr@Vc_color_select_preview@c_color_select@@@0@AAV10@@Z 10002b50 f i c_color_select.obj
 0001:00001b50       ??$addressof@$$CBV?$_List_val@U?$_List_simple_types@U?$pair@QAVc_hotkey_select@@V?$function@$$A6AXI@Z@std@@@std@@@std@@@std@@@std@@YAPBV?$_List_val@U?$_List_simple_types@U?$pair@QAVc_hotkey_select@@V?$function@$$A6AXI@Z@std@@@std@@@std@@@0@ABV10@@Z 10002b50 f i c_hotkeys.obj
 0001:00001b50       ??$forward@V?$_List_unchecked_iterator@V?$_List_val@U?$_List_simple_types@U?$pair@$$CBIUnetvar@c_netvar@@@std@@@std@@@std@@@std@@@std@@YA$$QAV?$_List_unchecked_iterator@V?$_List_val@U?$_List_simple_types@U?$pair@$$CBIUnetvar@c_netvar@@@std@@@std@@@std@@@0@AAV10@@Z 10002b50 f i c_aimhelper.obj
 0001:00001b50       ??$move@AAV?$function@$$A6AXI@Z@std@@@std@@YA$$QAV?$function@$$A6AXI@Z@0@AAV10@@Z 10002b50 f i c_hotkeys.obj
 0001:00001b50       ??$addressof@V?$_Vector_val@U?$_Simple_types@U?$pair@V?$shared_ptr@Vc_drawable@@@std@@U?$pair@Vc_vector2d@@V1@@2@@std@@@std@@@std@@@std@@YAPAV?$_Vector_val@U?$_Simple_types@U?$pair@V?$shared_ptr@Vc_drawable@@@std@@U?$pair@Vc_vector2d@@V1@@2@@std@@@std@@@0@AAV10@@Z 10002b50 f i c_flow_layout.obj
 0001:00001b50       ??$move@AAV?$allocator@D@std@@@std@@YA$$QAV?$allocator@D@0@AAV10@@Z 10002b50 f i c_damage_esp.obj
 0001:00001b50       ??$_Get_unwrapped_n@MH$0A@@std@@YAPAMQAMH@Z 10002b50 f i c_font.obj
 0001:00001b50       ??$_Get_unwrapped@V?$function@$$A6AXI@Z@std@@@std@@YAPAV?$function@$$A6AXI@Z@0@QAV10@@Z 10002b50 f i c_hotkeys.obj
 0001:00001b50       ??$forward@V?$_List_iterator@V?$_List_val@U?$_List_simple_types@U?$pair@$$CBIU?$pair@HH@std@@@std@@@std@@@std@@@std@@@std@@YA$$QAV?$_List_iterator@V?$_List_val@U?$_List_simple_types@U?$pair@$$CBIU?$pair@HH@std@@@std@@@std@@@std@@@0@AAV10@@Z 10002b50 f i c_esp.obj
 0001:00001b50       ??$forward@V?$initializer_list@U?$pair@V?$basic_string@DU?$char_traits@D@std@@V?$allocator@D@2@@std@@D@std@@@std@@@std@@YA$$QAV?$initializer_list@U?$pair@V?$basic_string@DU?$char_traits@D@std@@V?$allocator@D@2@@std@@D@std@@@0@AAV10@@Z 10002b50 f i c_menu.obj
 0001:00001b50       ?select_on_container_copy_construction@?$_Default_allocator_traits@V?$allocator@U?$pair@V?$basic_string@DU?$char_traits@D@std@@V?$allocator@D@2@@std@@D@std@@@std@@@std@@SA?AV?$allocator@U?$pair@V?$basic_string@DU?$char_traits@D@std@@V?$allocator@D@2@@std@@D@std@@@2@ABV32@@Z 10002b50 f i c_select.obj
 0001:00001b50       ??$_Get_unwrapped@PAUshot@resolver@@@std@@YAPAPAUshot@resolver@@QAPAU12@@Z 10002b50 f i c_resolver.obj
 0001:00001b50       ??$forward@ABV?$basic_json@Vmap@std@@Vvector@2@V?$basic_string@DU?$char_traits@D@std@@V?$allocator@D@2@@2@_N_J_KNVallocator@2@Uadl_serializer@nlohmann@@@nlohmann@@@std@@YAABV?$basic_json@Vmap@std@@Vvector@2@V?$basic_string@DU?$char_traits@D@std@@V?$allocator@D@2@@2@_N_J_KNVallocator@2@Uadl_serializer@nlohmann@@@nlohmann@@ABV12@@Z 10002b50 f i c_conf.obj
 0001:00001b50       ??$forward@AAPAV?$vector@V?$basic_json@Vmap@std@@Vvector@2@V?$basic_string@DU?$char_traits@D@std@@V?$allocator@D@2@@2@_N_J_KNVallocator@2@Uadl_serializer@nlohmann@@@nlohmann@@V?$allocator@V?$basic_json@Vmap@std@@Vvector@2@V?$basic_string@DU?$char_traits@D@std@@V?$allocator@D@2@@2@_N_J_KNVallocator@2@Uadl_serializer@nlohmann@@@nlohmann@@@std@@@std@@@std@@YAAAPAV?$vector@V?$basic_json@Vmap@std@@Vvector@2@V?$basic_string@DU?$char_traits@D@std@@V?$allocator@D@2@@2@_N_J_KNVallocator@2@Uadl_serializer@nlohmann@@@nlohmann@@V?$allocator@V?$basic_json@Vmap@std@@Vvector@2@V?$basic_string@DU?$char_traits@D@std@@V?$allocator@D@2@@2@_N_J_KNVallocator@2@Uadl_serializer@nlohmann@@@nlohmann@@@std@@@0@AAPAV10@@Z 10002b50 f i c_conf.obj
 0001:00001b50       ??$forward@Uc_incoming_sequence@@@std@@YA$$QAUc_incoming_sequence@@AAU1@@Z 10002b50 f i c_net_channel_.obj
 0001:00001b50       ??$forward@AAU?$pair@QAVc_hotkey_select@@V?$function@$$A6AXI@Z@std@@@std@@@std@@YAAAU?$pair@QAVc_hotkey_select@@V?$function@$$A6AXI@Z@std@@@0@AAU10@@Z 10002b50 f i c_hotkeys.obj
 0001:00001b50       ??$forward@AAPAU?$_List_node@U?$pair@QAVc_hotkey_select@@V?$function@$$A6AXI@Z@std@@@std@@PAX@std@@@std@@YAAAPAU?$_List_node@U?$pair@QAVc_hotkey_select@@V?$function@$$A6AXI@Z@std@@@std@@PAX@0@AAPAU10@@Z 10002b50 f i c_hotkeys.obj
 0001:00001b50       ??$forward@AAV?$_List_iterator@V?$_List_val@U?$_List_simple_types@U?$pair@$$CBIUanimation_info@c_animation_system@@@std@@@std@@@std@@@std@@@std@@YAAAV?$_List_iterator@V?$_List_val@U?$_List_simple_types@U?$pair@$$CBIUanimation_info@c_animation_system@@@std@@@std@@@std@@@0@AAV10@@Z 10002b50 f i c_animation_system.obj
 0001:00001b50       ??$forward@ABQAU?$_List_node@U?$pair@$$CBIVc_font@@@std@@PAX@std@@@std@@YAABQAU?$_List_node@U?$pair@$$CBIVc_font@@@std@@PAX@0@ABQAU10@@Z 10002b50 f i c_renderer.obj
 0001:00001b50       ??$addressof@$$CBV?$_Deque_val@U?$_Deque_simple_types@Ushot@resolver@@@std@@@std@@@std@@YAPBV?$_Deque_val@U?$_Deque_simple_types@Ushot@resolver@@@std@@@0@ABV10@@Z 10002b50 f i c_resolver.obj
 0001:00001b50       ??$addressof@$$CBV?$_String_val@U?$_Simple_types@D@std@@@std@@@std@@YAPBV?$_String_val@U?$_Simple_types@D@std@@@0@ABV10@@Z 10002b50 f i c_conf.obj
 0001:00001b50       ??$forward@ABM@std@@YAABMABM@Z 10002b50 f i c_aimhelper.obj
 0001:00001b50       ??$_Get_unwrapped_n@V?$tuple@MMM@std@@H$0A@@std@@YAPAV?$tuple@MMM@0@QAV10@H@Z 10002b50 f i c_aimhelper.obj
 0001:00001b50       ??$_Get_unwrapped_n@V?$_List_unchecked_iterator@V?$_List_val@U?$_List_simple_types@U?$pair@$$CBIU?$pair@HH@std@@@std@@@std@@@std@@@std@@H$0A@@std@@YAPAV?$_List_unchecked_iterator@V?$_List_val@U?$_List_simple_types@U?$pair@$$CBIU?$pair@HH@std@@@std@@@std@@@std@@@0@QAV10@H@Z 10002b50 f i c_esp.obj
 0001:00001b50       ??$forward@ABV?$json_ref@V?$basic_json@Vmap@std@@Vvector@2@V?$basic_string@DU?$char_traits@D@std@@V?$allocator@D@2@@2@_N_J_KNVallocator@2@Uadl_serializer@nlohmann@@@nlohmann@@@detail@nlohmann@@@std@@YAABV?$json_ref@V?$basic_json@Vmap@std@@Vvector@2@V?$basic_string@DU?$char_traits@D@std@@V?$allocator@D@2@@2@_N_J_KNVallocator@2@Uadl_serializer@nlohmann@@@nlohmann@@@detail@nlohmann@@ABV123@@Z 10002b50 f i c_conf.obj
 0001:00001b50       ??$_Get_unwrapped_n@V?$_List_unchecked_iterator@V?$_List_val@U?$_List_simple_types@U?$pair@$$CBIUnetvar@c_netvar@@@std@@@std@@@std@@@std@@H$0A@@std@@YAPAV?$_List_unchecked_iterator@V?$_List_val@U?$_List_simple_types@U?$pair@$$CBIUnetvar@c_netvar@@@std@@@std@@@std@@@0@QAV10@H@Z 10002b50 f i c_aimhelper.obj
 0001:00001b50       ??$forward@AAPAU?$_List_node@U?$pair@$$CBIU?$pair@HH@std@@@std@@PAX@std@@@std@@YAAAPAU?$_List_node@U?$pair@$$CBIU?$pair@HH@std@@@std@@PAX@0@AAPAU10@@Z 10002b50 f i c_esp.obj
 0001:00001b50       ??$forward@ABV<lambda_1>@?1??for_each_player_fixed_z_order@c_client_entity_list@@QAEXV?$function@$$A6AXPAVc_cs_player@@@Z@std@@@Z@@std@@YAABV<lambda_1>@?1??for_each_player_fixed_z_order@c_client_entity_list@@QAEXV?$function@$$A6AXPAVc_cs_player@@@Z@0@@Z@ABV1?1??23@QAEX0@Z@@Z 10002b50 f i c_chams.obj
 0001:00001b50       ??$forward@$$T@std@@YA$$QA$$TAA$$T@Z 10002b50 f i c_aimhelper.obj
 0001:00001b50       ??$_Get_unwrapped@$$CBU?$pair@$$CBHH@std@@@std@@YAPBU?$pair@$$CBHH@0@QBU10@@Z 10002b50 f i c_prediction_.obj
 0001:00001b50       ??$move@AAV?$shared_ptr@Vc_flow_layout@@@std@@@std@@YA$$QAV?$shared_ptr@Vc_flow_layout@@@0@AAV10@@Z 10002b50 f i c_menu.obj
 0001:00001b50       ??$forward@ABU?$pair@$$CBHH@std@@@std@@YAABU?$pair@$$CBHH@0@ABU10@@Z 10002b50 f i c_prediction_.obj
 0001:00001b50       ??$forward@ABV?$allocator@U?$pair@V?$basic_string@DU?$char_traits@D@std@@V?$allocator@D@2@@std@@D@std@@@std@@@std@@YAABV?$allocator@U?$pair@V?$basic_string@DU?$char_traits@D@std@@V?$allocator@D@2@@std@@D@std@@@0@ABV10@@Z 10002b50 f i c_menu.obj
 0001:00001b50       ??$_Kfn@QAVc_hotkey_select@@V?$function@$$A6AXI@Z@std@@@?$_Umap_traits@PAVc_hotkey_select@@V?$function@$$A6AXI@Z@std@@V?$_Uhash_compare@PAVc_hotkey_select@@U?$hash@PAVc_hotkey_select@@@std@@U?$equal_to@PAVc_hotkey_select@@@3@@3@V?$allocator@U?$pair@QAVc_hotkey_select@@V?$function@$$A6AXI@Z@std@@@std@@@3@$0A@@std@@SAABQAVc_hotkey_select@@ABU?$pair@QAVc_hotkey_select@@V?$function@$$A6AXI@Z@std@@@1@@Z 10002b50 f i c_hotkeys.obj
 0001:00001b50       ??$_Get_unwrapped_n@Uimpact_info@@H$0A@@std@@YAPAUimpact_info@@QAU1@H@Z 10002b50 f i c_hitmarker.obj
 0001:00001b50       ??$forward@AAPAU?$_Tree_node@U?$pair@$$CBV?$basic_string@DU?$char_traits@D@std@@V?$allocator@D@2@@std@@V?$basic_json@Vmap@std@@Vvector@2@V?$basic_string@DU?$char_traits@D@std@@V?$allocator@D@2@@2@_N_J_KNVallocator@2@Uadl_serializer@nlohmann@@@nlohmann@@@std@@PAX@std@@@std@@YAAAPAU?$_Tree_node@U?$pair@$$CBV?$basic_string@DU?$char_traits@D@std@@V?$allocator@D@2@@std@@V?$basic_json@Vmap@std@@Vvector@2@V?$basic_string@DU?$char_traits@D@std@@V?$allocator@D@2@@2@_N_J_KNVallocator@2@Uadl_serializer@nlohmann@@@nlohmann@@@std@@PAX@0@AAPAU10@@Z 10002b50 f i c_conf.obj
 0001:00001b50       ??$_Get_unwrapped@$$CBV?$json_ref@V?$basic_json@Vmap@std@@Vvector@2@V?$basic_string@DU?$char_traits@D@std@@V?$allocator@D@2@@2@_N_J_KNVallocator@2@Uadl_serializer@nlohmann@@@nlohmann@@@detail@nlohmann@@@std@@YAPBV?$json_ref@V?$basic_json@Vmap@std@@Vvector@2@V?$basic_string@DU?$char_traits@D@std@@V?$allocator@D@2@@2@_N_J_KNVallocator@2@Uadl_serializer@nlohmann@@@nlohmann@@@detail@nlohmann@@QBV123@@Z 10002b50 f i c_conf.obj
 0001:00001b50       ??$forward@ABV?$allocator@U?$pair@$$CBIU?$pair@HH@std@@@std@@@std@@@std@@YAABV?$allocator@U?$pair@$$CBIU?$pair@HH@std@@@std@@@0@ABV10@@Z 10002b50 f i c_esp.obj
 0001:00001b50       ??$forward@ABV?$allocator@V?$_List_unchecked_iterator@V?$_List_val@U?$_List_simple_types@U?$pair@QAVc_hotkey_select@@V?$function@$$A6AXI@Z@std@@@std@@@std@@@std@@@std@@@std@@@std@@YAABV?$allocator@V?$_List_unchecked_iterator@V?$_List_val@U?$_List_simple_types@U?$pair@QAVc_hotkey_select@@V?$function@$$A6AXI@Z@std@@@std@@@std@@@std@@@std@@@0@ABV10@@Z 10002b50 f i c_hotkeys.obj
 0001:00001b50       ??$move@AAV?$basic_json@Vmap@std@@Vvector@2@V?$basic_string@DU?$char_traits@D@std@@V?$allocator@D@2@@2@_N_J_KNVallocator@2@Uadl_serializer@nlohmann@@@nlohmann@@@std@@YA$$QAV?$basic_json@Vmap@std@@Vvector@2@V?$basic_string@DU?$char_traits@D@std@@V?$allocator@D@2@@2@_N_J_KNVallocator@2@Uadl_serializer@nlohmann@@@nlohmann@@AAV12@@Z 10002b50 f i c_conf.obj
 0001:00001b50       ??$forward@V?$tuple@M@std@@@std@@YA$$QAV?$tuple@M@0@AAV10@@Z 10002b50 f i c_aimhelper.obj
 0001:00001b50       ??$addressof@V?$deque@Uanimation@c_animation_system@@V?$allocator@Uanimation@c_animation_system@@@std@@@std@@@std@@YAPAV?$deque@Uanimation@c_animation_system@@V?$allocator@Uanimation@c_animation_system@@@std@@@0@AAV10@@Z 10002b50 f i c_animation_system.obj
 0001:00001b50       ??$_Unfancy@U?$pair@V?$shared_ptr@Vc_drawable@@@std@@U?$pair@Vc_vector2d@@V1@@2@@std@@@std@@YAPAU?$pair@V?$shared_ptr@Vc_drawable@@@std@@U?$pair@Vc_vector2d@@V1@@2@@0@PAU10@@Z 10002b50 f i dllmain.obj
 0001:00001b50       ??$move@AAV?$shared_ptr@Vc_button@@@std@@@std@@YA$$QAV?$shared_ptr@Vc_button@@@0@AAV10@@Z 10002b50 f i c_conf.obj
 0001:00001b50       ??$forward@ABUhitmarker_info@@@std@@YAABUhitmarker_info@@ABU1@@Z 10002b50 f i c_hitmarker.obj
 0001:00001b50       ??$move@AAPAVc_drawable@@@std@@YA$$QAPAVc_drawable@@AAPAV1@@Z 10002b50 f i c_flow_layout.obj
 0001:00001b50       ??$_Get_unwrapped@V?$_List_unchecked_iterator@V?$_List_val@U?$_List_simple_types@U?$pair@$$CBIUnetvar@c_netvar@@@std@@@std@@@std@@@std@@@std@@YAPAV?$_List_unchecked_iterator@V?$_List_val@U?$_List_simple_types@U?$pair@$$CBIUnetvar@c_netvar@@@std@@@std@@@std@@@0@QAV10@@Z 10002b50 f i c_aimhelper.obj
 0001:00001b50       ??$addressof@U?$pair@$$CBIVc_font@@@std@@@std@@YAPAU?$pair@$$CBIVc_font@@@0@AAU10@@Z 10002b50 f i c_damage_esp.obj
 0001:00001b50       ??$addressof@V?$_List_val@U?$_List_simple_types@U?$pair@QAVc_hotkey_select@@V?$function@$$A6AXI@Z@std@@@std@@@std@@@std@@@std@@YAPAV?$_List_val@U?$_List_simple_types@U?$pair@QAVc_hotkey_select@@V?$function@$$A6AXI@Z@std@@@std@@@std@@@0@AAV10@@Z 10002b50 f i c_hotkeys.obj
 0001:00001b50       ??$forward@ABV?$basic_string@DU?$char_traits@D@std@@V?$allocator@D@2@@std@@@std@@YAABV?$basic_string@DU?$char_traits@D@std@@V?$allocator@D@2@@0@ABV10@@Z 10002b50 f i c_miscellaneous.obj
 0001:00001b50       ??$forward@V?$shared_ptr@Vc_image@@@std@@@std@@YA$$QAV?$shared_ptr@Vc_image@@@0@AAV10@@Z 10002b50 f i c_menu.obj
 0001:00001b50       ??$_Refancy@PAM$0A@@std@@YAPAMPAM@Z 10002b50 f i c_renderer.obj
 0001:00001b50       ??$_Get_unwrapped@$$CBU?$pair@V?$shared_ptr@Vc_drawable@@@std@@U?$pair@Vc_vector2d@@V1@@2@@std@@@std@@YAPBU?$pair@V?$shared_ptr@Vc_drawable@@@std@@U?$pair@Vc_vector2d@@V1@@2@@0@QBU10@@Z 10002b50 f i c_checkbox.obj
 0001:00001b50       ??$_Get_unwrapped_n@DH$0A@@std@@YAPADQADH@Z 10002b50 f i c_conf.obj
 0001:00001b50       ??$addressof@PAU?$_List_node@U?$pair@$$CBIV?$unordered_map@IUnetvar@c_netvar@@U?$hash@I@std@@U?$equal_to@I@4@V?$allocator@U?$pair@$$CBIUnetvar@c_netvar@@@std@@@4@@std@@@std@@PAX@std@@@std@@YAPAPAU?$_List_node@U?$pair@$$CBIV?$unordered_map@IUnetvar@c_netvar@@U?$hash@I@std@@U?$equal_to@I@4@V?$allocator@U?$pair@$$CBIUnetvar@c_netvar@@@std@@@4@@std@@@std@@PAX@0@AAPAU10@@Z 10002b50 f i dllmain.obj
 0001:00001b50       ??$addressof@$$CBV?$_List_val@U?$_List_simple_types@U?$pair@$$CBIUnetvar@c_netvar@@@std@@@std@@@std@@@std@@YAPBV?$_List_val@U?$_List_simple_types@U?$pair@$$CBIUnetvar@c_netvar@@@std@@@std@@@0@ABV10@@Z 10002b50 f i c_aimhelper.obj
 0001:00001b50       ??$_Get_unwrapped_n@U?$pair@PAVc_cs_player@@M@std@@H$0A@@std@@YAPAU?$pair@PAVc_cs_player@@M@0@QAU10@H@Z 10002b50 f i c_chams.obj
 0001:00001b50       ??$move@AAI@std@@YA$$QAIAAI@Z 10002b50 f i c_aimhelper.obj
 0001:00001b50       ??$addressof@V?$_Vector_val@U?$_Simple_types@H@std@@@std@@@std@@YAPAV?$_Vector_val@U?$_Simple_types@H@std@@@0@AAV10@@Z 10002b50 f i c_client_state_.obj
 0001:00001b50       ??$move@AAPAV_Ref_count_base@std@@@std@@YA$$QAPAV_Ref_count_base@0@AAPAV10@@Z 10002b50 f i c_conf.obj
 0001:00001b50       ??$forward@AAPAV?$basic_string@DU?$char_traits@D@std@@V?$allocator@D@2@@std@@@std@@YAAAPAV?$basic_string@DU?$char_traits@D@std@@V?$allocator@D@2@@0@AAPAV10@@Z 10002b50 f i c_conf.obj
 0001:00001b50       ??$_Get_unwrapped@$$CBU?$pair@V?$basic_string@DU?$char_traits@D@std@@V?$allocator@D@2@@std@@D@std@@@std@@YAPBU?$pair@V?$basic_string@DU?$char_traits@D@std@@V?$allocator@D@2@@std@@D@0@QBU10@@Z 10002b50 f i c_menu.obj
 0001:00001b50       ??$move@AATjson_value@?$basic_json@Vmap@std@@Vvector@2@V?$basic_string@DU?$char_traits@D@std@@V?$allocator@D@2@@2@_N_J_KNVallocator@2@Uadl_serializer@nlohmann@@@nlohmann@@@std@@YA$$QATjson_value@?$basic_json@Vmap@std@@Vvector@2@V?$basic_string@DU?$char_traits@D@std@@V?$allocator@D@2@@2@_N_J_KNVallocator@2@Uadl_serializer@nlohmann@@@nlohmann@@AAT123@@Z 10002b50 f i c_conf.obj
 0001:00001b50       ??$forward@ABUlegit_conf@config_conf@c_config@@@std@@YAABUlegit_conf@config_conf@c_config@@ABU123@@Z 10002b50 f i c_conf.obj
 0001:00001b50       ??$addressof@V?$_List_val@U?$_List_simple_types@U?$pair@$$CBIU?$pair@HH@std@@@std@@@std@@@std@@@std@@YAPAV?$_List_val@U?$_List_simple_types@U?$pair@$$CBIU?$pair@HH@std@@@std@@@std@@@0@AAV10@@Z 10002b50 f i c_esp.obj
 0001:00001b50       ??$forward@AAPAU?$_List_node@U?$pair@$$CBIVc_font@@@std@@PAX@std@@@std@@YAAAPAU?$_List_node@U?$pair@$$CBIVc_font@@@std@@PAX@0@AAPAU10@@Z 10002b50 f i c_renderer.obj
 0001:00001b50       ??$_Unfancy@V?$function@$$A6AXI@Z@std@@@std@@YAPAV?$function@$$A6AXI@Z@0@PAV10@@Z 10002b50 f i c_fake_ping.obj
 0001:00001b50       ??$forward@V?$_List_unchecked_iterator@V?$_List_val@U?$_List_simple_types@U?$pair@QAVc_hotkey_select@@V?$function@$$A6AXI@Z@std@@@std@@@std@@@std@@@std@@@std@@YA$$QAV?$_List_unchecked_iterator@V?$_List_val@U?$_List_simple_types@U?$pair@QAVc_hotkey_select@@V?$function@$$A6AXI@Z@std@@@std@@@std@@@std@@@0@AAV10@@Z 10002b50 f i c_hotkeys.obj
 0001:00001b50       ??$_Unfancy@V?$_List_unchecked_iterator@V?$_List_val@U?$_List_simple_types@U?$pair@QAVc_hotkey_select@@V?$function@$$A6AXI@Z@std@@@std@@@std@@@std@@@std@@@std@@YAPAV?$_List_unchecked_iterator@V?$_List_val@U?$_List_simple_types@U?$pair@QAVc_hotkey_select@@V?$function@$$A6AXI@Z@std@@@std@@@std@@@std@@@0@PAV10@@Z 10002b50 f i c_hotkeys.obj
 0001:00001b50       ??$addressof@V?$unique_ptr@$$BY0A@IU?$default_delete@$$BY0A@I@std@@@std@@@std@@YAPAV?$unique_ptr@$$BY0A@IU?$default_delete@$$BY0A@I@std@@@0@AAV10@@Z 10002b50 f i c_client.obj
 0001:00001b50       ??$forward@AAY00$$CBD@std@@YAAAY00$$CBDAAY00$$CBD@Z 10002b50 f i c_conf.obj
 0001:00001b50       ??$forward@V?$tuple@MMM@std@@@std@@YA$$QAV?$tuple@MMM@0@AAV10@@Z 10002b50 f i c_aimhelper.obj
 0001:00001b50       ??$forward@V?$basic_json@Vmap@std@@Vvector@2@V?$basic_string@DU?$char_traits@D@std@@V?$allocator@D@2@@2@_N_J_KNVallocator@2@Uadl_serializer@nlohmann@@@nlohmann@@@std@@YA$$QAV?$basic_json@Vmap@std@@Vvector@2@V?$basic_string@DU?$char_traits@D@std@@V?$allocator@D@2@@2@_N_J_KNVallocator@2@Uadl_serializer@nlohmann@@@nlohmann@@AAV12@@Z 10002b50 f i c_conf.obj
 0001:00001b50       ??$forward@ABV<lambda_1>@?1???$create@V?$vector@V?$basic_json@Vmap@std@@Vvector@2@V?$basic_string@DU?$char_traits@D@std@@V?$allocator@D@2@@2@_N_J_KNVallocator@2@Uadl_serializer@nlohmann@@@nlohmann@@V?$allocator@V?$basic_json@Vmap@std@@Vvector@2@V?$basic_string@DU?$char_traits@D@std@@V?$allocator@D@2@@2@_N_J_KNVallocator@2@Uadl_serializer@nlohmann@@@nlohmann@@@std@@@std@@$$V@?$basic_json@Vmap@std@@Vvector@2@V?$basic_string@DU?$char_traits@D@std@@V?$allocator@D@2@@2@_N_J_KNVallocator@2@Uadl_serializer@nlohmann@@@nlohmann@@CAPAV?$vector@V?$basic_json@Vmap@std@@Vvector@2@V?$basic_string@DU?$char_traits@D@std@@V?$allocator@D@2@@2@_N_J_KNVallocator@2@Uadl_serializer@nlohmann@@@nlohmann@@V?$allocator@V?$basic_json@Vmap@std@@Vvector@2@V?$basic_string@DU?$char_traits@D@std@@V?$allocator@D@2@@2@_N_J_KNVallocator@2@Uadl_serializer@nlohmann@@@nlohmann@@@std@@@std@@XZ@@std@@YAABV<lambda_1>@?1???$create@V?$vector@V?$basic_json@Vmap@std@@Vvector@2@V?$basic_string@DU?$char_traits@D@std@@V?$allocator@D@2@@2@_N_J_KNVallocator@2@Uadl_serializer@nlohmann@@@nlohmann@@V?$allocator@V?$basic_json@Vmap@std@@Vvector@2@V?$basic_string@DU?$char_traits@D@std@@V?$allocator@D@2@@2@_N_J_KNVallocator@2@Uadl_serializer@nlohmann@@@nlohmann@@@std@@@std@@$$V@?$basic_json@Vmap@std@@Vvector@2@V?$basic_string@DU?$char_traits@D@std@@V?$allocator@D@2@@2@_N_J_KNVallocator@2@Uadl_serializer@nlohmann@@@nlohmann@@CAPAV?$vector@V?$basic_json@Vmap@std@@Vvector@2@V?$basic_string@DU?$char_traits@D@std@@V?$allocator@D@2@@2@_N_J_KNVallocator@2@Uadl_serializer@nlohmann@@@nlohmann@@V?$allocator@V?$basic_json@Vmap@std@@Vvector@2@V?$basic_string@DU?$char_traits@D@std@@V?$allocator@D@2@@2@_N_J_KNVallocator@2@Uadl_serializer@nlohmann@@@nlohmann@@@std@@@0@XZ@ABV1?1???$create@V?$vector@V?$basic_json@Vmap@std@@Vvector@2@V?$basic_string@DU?$char_traits@D@std@@V?$allocator@D@2@@2@_N_J_KNVallocator@2@Uadl_serializer@nlohmann@@@nlohmann@@V?$allocator@V?$basic_json@Vmap@std@@Vvector@2@V?$basic_string@DU?$char_traits@D@std@@V?$allocator@D@2@@2@_N_J_KNVallocator@2@Uadl_serializer@nlohmann@@@nlohmann@@@std@@@std@@$$V@23@CAPAV40@XZ@@Z 10002b50 f i c_conf.obj
 0001:00001b50       ??$forward@PAVc_drawable@@@std@@YA$$QAPAVc_drawable@@AAPAV1@@Z 10002b50 f i c_welcome_message.obj
 0001:00001b50       ??$forward@ABUchams_conf@config_conf@c_config@@@std@@YAABUchams_conf@config_conf@c_config@@ABU123@@Z 10002b50 f i c_conf.obj
 0001:00001b50       ??$forward@W4parse_event_t@?$parser@V?$basic_json@Vmap@std@@Vvector@2@V?$basic_string@DU?$char_traits@D@std@@V?$allocator@D@2@@2@_N_J_KNVallocator@2@Uadl_serializer@nlohmann@@@nlohmann@@@detail@nlohmann@@@std@@YA$$QAW4parse_event_t@?$parser@V?$basic_json@Vmap@std@@Vvector@2@V?$basic_string@DU?$char_traits@D@std@@V?$allocator@D@2@@2@_N_J_KNVallocator@2@Uadl_serializer@nlohmann@@@nlohmann@@@detail@nlohmann@@AAW41234@@Z 10002b50 f i c_conf.obj
 0001:00001b50       ??$_Unfancy@Vc_vector3d@@@std@@YAPAVc_vector3d@@PAV1@@Z 10002b50 f i c_resolver.obj
 0001:00001b50       ??$forward@AAV?$function@$$A6AXXZ@std@@@std@@YAAAV?$function@$$A6AXXZ@0@AAV10@@Z 10002b50 f i c_renderer.obj
 0001:00001b50       ??$forward@AAY00I@std@@YAAAY00IAAY00I@Z 10002b50 f i c_cs_player_.obj
 0001:00001b50       ??$move@AAV?$allocator@PAUanimation@c_animation_system@@@std@@@std@@YA$$QAV?$allocator@PAUanimation@c_animation_system@@@0@AAV10@@Z 10002b50 f i c_aimhelper.obj
 0001:00001b50       ??$forward@ABUpiecewise_construct_t@std@@@std@@YAABUpiecewise_construct_t@0@ABU10@@Z 10002b50 f i c_aimhelper.obj
 0001:00001b50       ??$_Get_unwrapped_n@V?$basic_string@DU?$char_traits@D@std@@V?$allocator@D@2@@std@@H$0A@@std@@YAPAV?$basic_string@DU?$char_traits@D@std@@V?$allocator@D@2@@0@QAV10@H@Z 10002b50 f i c_miscellaneous.obj
 0001:00001b50       ??$move@AAV?$shared_ptr@Vc_checkbox_inner@c_checkbox@@@std@@@std@@YA$$QAV?$shared_ptr@Vc_checkbox_inner@c_checkbox@@@0@AAV10@@Z 10002b50 f i c_checkbox.obj
 0001:00001b50       ??$forward@ABQAU?$_List_node@U?$pair@$$CBIUanimation_info@c_animation_system@@@std@@PAX@std@@@std@@YAABQAU?$_List_node@U?$pair@$$CBIUanimation_info@c_animation_system@@@std@@PAX@0@ABQAU10@@Z 10002b50 f i c_animation_system.obj
 0001:00001b50       ??$forward@ABQAU?$_List_node@U?$pair@QAVc_hotkey_select@@V?$function@$$A6AXI@Z@std@@@std@@PAX@std@@@std@@YAABQAU?$_List_node@U?$pair@QAVc_hotkey_select@@V?$function@$$A6AXI@Z@std@@@std@@PAX@0@ABQAU10@@Z 10002b50 f i c_hotkeys.obj
 0001:00001b50       ??$move@AAV?$tuple@ABI@std@@@std@@YA$$QAV?$tuple@ABI@0@AAV10@@Z 10002b50 f i c_esp.obj
 0001:00001b50       ??$addressof@$$CBV?$_List_val@U?$_List_simple_types@U?$pair@$$CBIU?$pair@HH@std@@@std@@@std@@@std@@@std@@YAPBV?$_List_val@U?$_List_simple_types@U?$pair@$$CBIU?$pair@HH@std@@@std@@@std@@@0@ABV10@@Z 10002b50 f i c_esp.obj
 0001:00001b50       ??$addressof@$$CBV?$_List_val@U?$_List_simple_types@U?$pair@$$CBIV?$unordered_map@IUnetvar@c_netvar@@U?$hash@I@std@@U?$equal_to@I@4@V?$allocator@U?$pair@$$CBIUnetvar@c_netvar@@@std@@@4@@std@@@std@@@std@@@std@@@std@@YAPBV?$_List_val@U?$_List_simple_types@U?$pair@$$CBIV?$unordered_map@IUnetvar@c_netvar@@U?$hash@I@std@@U?$equal_to@I@4@V?$allocator@U?$pair@$$CBIUnetvar@c_netvar@@@std@@@4@@std@@@std@@@std@@@0@ABV10@@Z 10002b50 f i c_aimhelper.obj
 0001:00001b50       ??$move@AAV?$shared_ptr@Vc_drawable@@@std@@@std@@YA$$QAV?$shared_ptr@Vc_drawable@@@0@AAV10@@Z 10002b50 f i c_aiming.obj
 0001:00001b50       ??$forward@ABUplayer_info@c_esp@@@std@@YAABUplayer_info@c_esp@@ABU12@@Z 10002b50 f i c_esp.obj
 0001:00001b50       ??$forward@AA_N@std@@YAAA_NAA_N@Z 10002b50 f i c_aiming.obj
 0001:00001b50       ??$forward@ABVc_vector3d@@@std@@YAABVc_vector3d@@ABV1@@Z 10002b50 f i c_aimhelper.obj
 0001:00001b50       ??$addressof@PAUc_incoming_sequence@@@std@@YAPAPAUc_incoming_sequence@@AAPAU1@@Z 10002b50 f i c_fake_ping.obj
 0001:00001b50       ??$forward@ABUweapon_conf@rage_conf@config_conf@c_config@@@std@@YAABUweapon_conf@rage_conf@config_conf@c_config@@ABU1234@@Z 10002b50 f i c_conf.obj
 0001:00001b50       ??$forward@Vc_vector2d@@@std@@YA$$QAVc_vector2d@@AAV1@@Z 10002b50 f i c_aiming.obj
 0001:00001b50       ??$forward@AAU?$pair@$$CBV?$basic_string@DU?$char_traits@D@std@@V?$allocator@D@2@@std@@V?$basic_json@Vmap@std@@Vvector@2@V?$basic_string@DU?$char_traits@D@std@@V?$allocator@D@2@@2@_N_J_KNVallocator@2@Uadl_serializer@nlohmann@@@nlohmann@@@std@@@std@@YAAAU?$pair@$$CBV?$basic_string@DU?$char_traits@D@std@@V?$allocator@D@2@@std@@V?$basic_json@Vmap@std@@Vvector@2@V?$basic_string@DU?$char_traits@D@std@@V?$allocator@D@2@@2@_N_J_KNVallocator@2@Uadl_serializer@nlohmann@@@nlohmann@@@0@AAU10@@Z 10002b50 f i c_conf.obj
 0001:00001b50       ??$forward@V?$_List_iterator@V?$_List_val@U?$_List_simple_types@U?$pair@$$CBIUnetvar@c_netvar@@@std@@@std@@@std@@@std@@@std@@YA$$QAV?$_List_iterator@V?$_List_val@U?$_List_simple_types@U?$pair@$$CBIUnetvar@c_netvar@@@std@@@std@@@std@@@0@AAV10@@Z 10002b50 f i c_aimhelper.obj
 0001:00001b50       ??$_Get_unwrapped@V?$tuple@MMM@std@@@std@@YAPAV?$tuple@MMM@0@QAV10@@Z 10002b50 f i c_aimhelper.obj
 0001:00001b50       ??$forward@Uplayer_info@c_esp@@@std@@YA$$QAUplayer_info@c_esp@@AAU12@@Z 10002b50 f i c_esp.obj
 0001:00001b50       ??$_Unfancy@U?$pair@V?$basic_string@DU?$char_traits@D@std@@V?$allocator@D@2@@std@@D@std@@@std@@YAPAU?$pair@V?$basic_string@DU?$char_traits@D@std@@V?$allocator@D@2@@std@@D@0@PAU10@@Z 10002b50 f i c_menu.obj
 0001:00001b50       ??$addressof@$$CBI@std@@YAPBIABI@Z 10002b50 f i c_aimhelper.obj
 0001:00001b50       ??$forward@W4hitbox@c_cs_player@@@std@@YA$$QAW4hitbox@c_cs_player@@AAW412@@Z 10002b50 f i c_antiaim.obj
 0001:00001b50       ??$move@AAV<lambda_2_>@@@std@@YA$$QAV<lambda_2_>@@AAV1@@Z 10002b50 f i c_conf.obj
 0001:00001b50       ??$forward@AAV<lambda_1>@?1??for_each_player_fixed_z_order@c_client_entity_list@@QAEXV?$function@$$A6AXPAVc_cs_player@@@Z@std@@@Z@@std@@YAAAV<lambda_1>@?1??for_each_player_fixed_z_order@c_client_entity_list@@QAEXV?$function@$$A6AXPAVc_cs_player@@@Z@0@@Z@AAV1?1??23@QAEX0@Z@@Z 10002b50 f i c_chams.obj
 0001:00001b50       ??$forward@U_Zero_then_variadic_args_t@std@@@std@@YA$$QAU_Zero_then_variadic_args_t@0@AAU10@@Z 10002b50 f i c_prediction_.obj
 0001:00001b50       ??$forward@ABV?$function@$$A6AXXZ@std@@@std@@YAABV?$function@$$A6AXXZ@0@ABV10@@Z 10002b50 f i c_renderer.obj
 0001:00001b50       ??$forward@U?$_Optional_construct_base@V?$tuple@Vc_vector3d@@MPAUanimation@c_animation_system@@@std@@@std@@@std@@YA$$QAU?$_Optional_construct_base@V?$tuple@Vc_vector3d@@MPAUanimation@c_animation_system@@@std@@@0@AAU10@@Z 10002b50 f i c_legitbot.obj
 0001:00001b50       ??$forward@ABQA_W@std@@YAABQA_WABQA_W@Z 10002b50 f i c_miscellaneous.obj
 0001:00001b50       ??$forward@D@std@@YA$$QADAAD@Z 10002b50 f i c_conf.obj
 0001:00001b50       ??$move@AAV?$shared_ptr@Vc_navbar_tab@@@std@@@std@@YA$$QAV?$shared_ptr@Vc_navbar_tab@@@0@AAV10@@Z 10002b50 f i c_navbar.obj
 0001:00001b50       ??$_Kfn@$$CBIVc_font@@@?$_Umap_traits@IVc_font@@V?$_Uhash_compare@IU?$hash@I@std@@U?$equal_to@I@2@@std@@V?$allocator@U?$pair@$$CBIVc_font@@@std@@@3@$0A@@std@@SAABIABU?$pair@$$CBIVc_font@@@1@@Z 10002b50 f i c_renderer.obj
 0001:00001b50       ??$addressof@V?$_Vector_val@U?$_Simple_types@V?$basic_json@Vmap@std@@Vvector@2@V?$basic_string@DU?$char_traits@D@std@@V?$allocator@D@2@@2@_N_J_KNVallocator@2@Uadl_serializer@nlohmann@@@nlohmann@@@std@@@std@@@std@@YAPAV?$_Vector_val@U?$_Simple_types@V?$basic_json@Vmap@std@@Vvector@2@V?$basic_string@DU?$char_traits@D@std@@V?$allocator@D@2@@2@_N_J_KNVallocator@2@Uadl_serializer@nlohmann@@@nlohmann@@@std@@@0@AAV10@@Z 10002b50 f i c_conf.obj
 0001:00001b50       ??$_Kfn@$$CBIUnetvar@c_netvar@@@?$_Umap_traits@IUnetvar@c_netvar@@V?$_Uhash_compare@IU?$hash@I@std@@U?$equal_to@I@2@@std@@V?$allocator@U?$pair@$$CBIUnetvar@c_netvar@@@std@@@4@$0A@@std@@SAABIABU?$pair@$$CBIUnetvar@c_netvar@@@1@@Z 10002b50 f i c_aimhelper.obj
 0001:00001b50       ??$forward@ABUrage_conf@config_conf@c_config@@@std@@YAABUrage_conf@config_conf@c_config@@ABU123@@Z 10002b50 f i c_conf.obj
 0001:00001b50       ??$addressof@$$CBU?$pair@$$CBHH@std@@@std@@YAPBU?$pair@$$CBHH@0@ABU10@@Z 10002b50 f i c_prediction_.obj
 0001:00001b50       ??$move@AAV?$allocator@H@std@@@std@@YA$$QAV?$allocator@H@0@AAV10@@Z 10002b50 f i c_aimhelper.obj
 0001:00001b50       ??$addressof@V?$_List_val@U?$_List_simple_types@U?$pair@$$CBIVc_font@@@std@@@std@@@std@@@std@@YAPAV?$_List_val@U?$_List_simple_types@U?$pair@$$CBIVc_font@@@std@@@std@@@0@AAV10@@Z 10002b50 f i c_renderer.obj
 0001:00001b50       ??$forward@ABV?$allocator@U?$pair@V?$shared_ptr@Vc_drawable@@@std@@U?$pair@Vc_vector2d@@V1@@2@@std@@@std@@@std@@YAABV?$allocator@U?$pair@V?$shared_ptr@Vc_drawable@@@std@@U?$pair@Vc_vector2d@@V1@@2@@std@@@0@ABV10@@Z 10002b50 f i c_checkbox.obj
 0001:00001b50       ??$forward@AAUweapon_conf@rage_conf@config_conf@c_config@@@std@@YAAAUweapon_conf@rage_conf@config_conf@c_config@@AAU1234@@Z 10002b50 f i c_aimhelper.obj
 0001:00001b50       ??$forward@AAU?$pair@$$CBIU?$pair@HH@std@@@std@@@std@@YAAAU?$pair@$$CBIU?$pair@HH@std@@@0@AAU10@@Z 10002b50 f i c_esp.obj
 0001:00001b50       ??$_Unfancy@U_Container_proxy@std@@@std@@YAPAU_Container_proxy@0@PAU10@@Z 10002b50 f i c_animation_system.obj
 0001:00001b50       ??$forward@Vc_vector3d@@@std@@YA$$QAVc_vector3d@@AAV1@@Z 10002b50 f i c_aimhelper.obj
 0001:00001b50       ??$move@AAPAVc_cs_player@@@std@@YA$$QAPAVc_cs_player@@AAPAV1@@Z 10002b50 f i c_chams.obj
 0001:00001b50       ??$move@AAD@std@@YA$$QADAAD@Z 10002b50 f i c_conf.obj
 0001:00001b50       ??$forward@AAU?$hash@I@std@@@std@@YAAAU?$hash@I@0@AAU10@@Z 10002b50 f i c_aimhelper.obj
 0001:00001b50       ??$forward@AAH@std@@YAAAHAAH@Z 10002b50 f i c_aimhelper.obj
 0001:00001b50       ??$_Kfn@$$CBIUanimation_info@c_animation_system@@@?$_Umap_traits@IUanimation_info@c_animation_system@@V?$_Uhash_compare@IU?$hash@I@std@@U?$equal_to@I@2@@std@@V?$allocator@U?$pair@$$CBIUanimation_info@c_animation_system@@@std@@@4@$0A@@std@@SAABIABU?$pair@$$CBIUanimation_info@c_animation_system@@@1@@Z 10002b50 f i c_animation_system.obj
 0001:00001b50       ??$forward@AAU?$pair@$$CBIVc_font@@@std@@@std@@YAAAU?$pair@$$CBIVc_font@@@0@AAU10@@Z 10002b50 f i c_renderer.obj
 0001:00001b50       ??$move@AAUnade_info@c_esp@@@std@@YA$$QAUnade_info@c_esp@@AAU12@@Z 10002b50 f i c_esp.obj
 0001:00001b50       ??$forward@AAPAVc_cs_player@@@std@@YAAAPAVc_cs_player@@AAPAV1@@Z 10002b50 f i c_chams.obj
 0001:00001b50       ??$forward@ABU?$pair@V?$shared_ptr@Vc_drawable@@@std@@U?$pair@Vc_vector2d@@V1@@2@@std@@@std@@YAABU?$pair@V?$shared_ptr@Vc_drawable@@@std@@U?$pair@Vc_vector2d@@V1@@2@@0@ABU10@@Z 10002b50 f i c_checkbox.obj
 0001:00001b60       ??$_Max_value@PAD@std@@YAABQADABQAD0@Z 10002b60 f i c_esp.obj
 0001:00001b60       ??$_Max_value@I@std@@YAABIABI0@Z 10002b60 f i dll.obj
 0001:00001b90       ??$_Min_value@I@std@@YAABIABI0@Z 10002b90 f i dll.obj
 0001:00001bc0       ??$_Reallocate_grow_by@V<lambda_1>@?1??push_back@?$basic_string@DU?$char_traits@D@std@@V?$allocator@D@2@@std@@QAEXD@Z@D@?$basic_string@DU?$char_traits@D@std@@V?$allocator@D@2@@std@@AAEAAV01@IV<lambda_1>@?1??push_back@01@QAEXD@Z@D@Z 10002bc0 f i dll.obj
 0001:00001cf0       ??$_Ungetc@D@std@@YA_NABDPAU_iobuf@@@Z 10002cf0 f i dll.obj
 0001:00001d30       ??$construct@PAU?$_List_node@U?$pair@$$CBIV?$unordered_map@IUnetvar@c_netvar@@U?$hash@I@std@@U?$equal_to@I@4@V?$allocator@U?$pair@$$CBIUnetvar@c_netvar@@@std@@@4@@std@@@std@@PAX@std@@AAPAU12@@?$_Default_allocator_traits@V?$allocator@U?$_List_node@U?$pair@$$CBIV?$unordered_map@IUnetvar@c_netvar@@U?$hash@I@std@@U?$equal_to@I@4@V?$allocator@U?$pair@$$CBIUnetvar@c_netvar@@@std@@@4@@std@@@std@@PAX@std@@@std@@@std@@SAXAAV?$allocator@U?$_List_node@U?$pair@$$CBIV?$unordered_map@IUnetvar@c_netvar@@U?$hash@I@std@@U?$equal_to@I@4@V?$allocator@U?$pair@$$CBIUnetvar@c_netvar@@@std@@@4@@std@@@std@@PAX@std@@@1@QAPAU?$_List_node@U?$pair@$$CBIV?$unordered_map@IUnetvar@c_netvar@@U?$hash@I@std@@U?$equal_to@I@4@V?$allocator@U?$pair@$$CBIUnetvar@c_netvar@@@std@@@4@@std@@@std@@PAX@1@AAPAU31@@Z 10002d30 f i c_netvar.obj
 0001:00001d30       ??$construct@PAU?$_List_node@U?$pair@QAVc_hotkey_select@@V?$function@$$A6AXI@Z@std@@@std@@PAX@std@@AAPAU12@@?$_Default_allocator_traits@V?$allocator@U?$_List_node@U?$pair@QAVc_hotkey_select@@V?$function@$$A6AXI@Z@std@@@std@@PAX@std@@@std@@@std@@SAXAAV?$allocator@U?$_List_node@U?$pair@QAVc_hotkey_select@@V?$function@$$A6AXI@Z@std@@@std@@PAX@std@@@1@QAPAU?$_List_node@U?$pair@QAVc_hotkey_select@@V?$function@$$A6AXI@Z@std@@@std@@PAX@1@AAPAU31@@Z 10002d30 f i c_hotkeys.obj
 0001:00001d30       ??$construct@PA_WABQA_W@?$_Default_allocator_traits@V?$allocator@_W@std@@@std@@SAXAAV?$allocator@_W@1@QAPA_WABQA_W@Z 10002d30 f i c_miscellaneous.obj
 0001:00001d30       ??$construct@PAU?$_List_node@U?$pair@$$CBIV?$unordered_map@IUnetvar@c_netvar@@U?$hash@I@std@@U?$equal_to@I@4@V?$allocator@U?$pair@$$CBIUnetvar@c_netvar@@@std@@@4@@std@@@std@@PAX@std@@ABQAU12@@?$_Default_allocator_traits@V?$allocator@U?$_List_node@U?$pair@$$CBIV?$unordered_map@IUnetvar@c_netvar@@U?$hash@I@std@@U?$equal_to@I@4@V?$allocator@U?$pair@$$CBIUnetvar@c_netvar@@@std@@@4@@std@@@std@@PAX@std@@@std@@@std@@SAXAAV?$allocator@U?$_List_node@U?$pair@$$CBIV?$unordered_map@IUnetvar@c_netvar@@U?$hash@I@std@@U?$equal_to@I@4@V?$allocator@U?$pair@$$CBIUnetvar@c_netvar@@@std@@@4@@std@@@std@@PAX@std@@@1@QAPAU?$_List_node@U?$pair@$$CBIV?$unordered_map@IUnetvar@c_netvar@@U?$hash@I@std@@U?$equal_to@I@4@V?$allocator@U?$pair@$$CBIUnetvar@c_netvar@@@std@@@4@@std@@@std@@PAX@1@ABQAU31@@Z 10002d30 f i c_aimhelper.obj
 0001:00001d30       ??$construct@W4hitbox@c_cs_player@@W412@@?$_Default_allocator_traits@V?$allocator@W4hitbox@c_cs_player@@@std@@@std@@SAXAAV?$allocator@W4hitbox@c_cs_player@@@1@QAW4hitbox@c_cs_player@@$$QAW434@@Z 10002d30 f i c_ragebot.obj
 0001:00001d30       ??$construct@HABH@?$_Default_allocator_traits@V?$allocator@H@std@@@std@@SAXAAV?$allocator@H@1@QAHABH@Z 10002d30 f i c_client.obj
 0001:00001d30       ??$construct@PAUanimation@c_animation_system@@PAU12@@?$_Default_allocator_traits@V?$allocator@PAUanimation@c_animation_system@@@std@@@std@@SAXAAV?$allocator@PAUanimation@c_animation_system@@@1@QAPAUanimation@c_animation_system@@$$QAPAU34@@Z 10002d30 f i c_animation_system.obj
 0001:00001d30       ??$construct@PAU?$_List_node@U?$pair@QAVc_hotkey_select@@V?$function@$$A6AXI@Z@std@@@std@@PAX@std@@ABQAU12@@?$_Default_allocator_traits@V?$allocator@U?$_List_node@U?$pair@QAVc_hotkey_select@@V?$function@$$A6AXI@Z@std@@@std@@PAX@std@@@std@@@std@@SAXAAV?$allocator@U?$_List_node@U?$pair@QAVc_hotkey_select@@V?$function@$$A6AXI@Z@std@@@std@@PAX@std@@@1@QAPAU?$_List_node@U?$pair@QAVc_hotkey_select@@V?$function@$$A6AXI@Z@std@@@std@@PAX@1@ABQAU31@@Z 10002d30 f i c_hotkeys.obj
 0001:00001d30       ??$construct@PADABQAD@?$_Default_allocator_traits@V?$allocator@D@std@@@std@@SAXAAV?$allocator@D@1@QAPADABQAD@Z 10002d30 f i dll.obj
 0001:00001d30       ??$construct@PAU?$_List_node@U?$pair@$$CBIUanimation_info@c_animation_system@@@std@@PAX@std@@AAPAU12@@?$_Default_allocator_traits@V?$allocator@U?$_List_node@U?$pair@$$CBIUanimation_info@c_animation_system@@@std@@PAX@std@@@std@@@std@@SAXAAV?$allocator@U?$_List_node@U?$pair@$$CBIUanimation_info@c_animation_system@@@std@@PAX@std@@@1@QAPAU?$_List_node@U?$pair@$$CBIUanimation_info@c_animation_system@@@std@@PAX@1@AAPAU31@@Z 10002d30 f i c_aimhelper.obj
 0001:00001d30       ??$construct@PAU?$_Tree_node@U?$pair@$$CBHH@std@@PAX@std@@AAPAU12@@?$_Default_allocator_traits@V?$allocator@U?$_Tree_node@U?$pair@$$CBHH@std@@PAX@std@@@std@@@std@@SAXAAV?$allocator@U?$_Tree_node@U?$pair@$$CBHH@std@@PAX@std@@@1@QAPAU?$_Tree_node@U?$pair@$$CBHH@std@@PAX@1@AAPAU31@@Z 10002d30 f i c_prediction_.obj
 0001:00001d30       ??$construct@PAU?$_Tree_node@U?$pair@$$CBV?$basic_string@DU?$char_traits@D@std@@V?$allocator@D@2@@std@@V?$basic_json@Vmap@std@@Vvector@2@V?$basic_string@DU?$char_traits@D@std@@V?$allocator@D@2@@2@_N_J_KNVallocator@2@Uadl_serializer@nlohmann@@@nlohmann@@@std@@PAX@std@@AAPAU12@@?$_Default_allocator_traits@V?$allocator@U?$_Tree_node@U?$pair@$$CBV?$basic_string@DU?$char_traits@D@std@@V?$allocator@D@2@@std@@V?$basic_json@Vmap@std@@Vvector@2@V?$basic_string@DU?$char_traits@D@std@@V?$allocator@D@2@@2@_N_J_KNVallocator@2@Uadl_serializer@nlohmann@@@nlohmann@@@std@@PAX@std@@@std@@@std@@SAXAAV?$allocator@U?$_Tree_node@U?$pair@$$CBV?$basic_string@DU?$char_traits@D@std@@V?$allocator@D@2@@std@@V?$basic_json@Vmap@std@@Vvector@2@V?$basic_string@DU?$char_traits@D@std@@V?$allocator@D@2@@2@_N_J_KNVallocator@2@Uadl_serializer@nlohmann@@@nlohmann@@@std@@PAX@std@@@1@QAPAU?$_Tree_node@U?$pair@$$CBV?$basic_string@DU?$char_traits@D@std@@V?$allocator@D@2@@std@@V?$basic_json@Vmap@std@@Vvector@2@V?$basic_string@DU?$char_traits@D@std@@V?$allocator@D@2@@2@_N_J_KNVallocator@2@Uadl_serializer@nlohmann@@@nlohmann@@@std@@PAX@1@AAPAU31@@Z 10002d30 f i c_conf.obj
 0001:00001d30       ??$construct@PAU?$_List_node@U?$pair@$$CBIUnetvar@c_netvar@@@std@@PAX@std@@ABQAU12@@?$_Default_allocator_traits@V?$allocator@U?$_List_node@U?$pair@$$CBIUnetvar@c_netvar@@@std@@PAX@std@@@std@@@std@@SAXAAV?$allocator@U?$_List_node@U?$pair@$$CBIUnetvar@c_netvar@@@std@@PAX@std@@@1@QAPAU?$_List_node@U?$pair@$$CBIUnetvar@c_netvar@@@std@@PAX@1@ABQAU31@@Z 10002d30 f i c_aimhelper.obj
 0001:00001d30       ??$construct@PAU?$_List_node@U?$pair@$$CBIUnetvar@c_netvar@@@std@@PAX@std@@AAPAU12@@?$_Default_allocator_traits@V?$allocator@U?$_List_node@U?$pair@$$CBIUnetvar@c_netvar@@@std@@PAX@std@@@std@@@std@@SAXAAV?$allocator@U?$_List_node@U?$pair@$$CBIUnetvar@c_netvar@@@std@@PAX@std@@@1@QAPAU?$_List_node@U?$pair@$$CBIUnetvar@c_netvar@@@std@@PAX@1@AAPAU31@@Z 10002d30 f i c_aimhelper.obj
 0001:00001d30       ??$construct@PAU?$_List_node@U?$pair@$$CBIUanimation_info@c_animation_system@@@std@@PAX@std@@ABQAU12@@?$_Default_allocator_traits@V?$allocator@U?$_List_node@U?$pair@$$CBIUanimation_info@c_animation_system@@@std@@PAX@std@@@std@@@std@@SAXAAV?$allocator@U?$_List_node@U?$pair@$$CBIUanimation_info@c_animation_system@@@std@@PAX@std@@@1@QAPAU?$_List_node@U?$pair@$$CBIUanimation_info@c_animation_system@@@std@@PAX@1@ABQAU31@@Z 10002d30 f i c_animation_system.obj
 0001:00001d30       ??$construct@PAU?$_List_node@U?$pair@$$CBIVc_font@@@std@@PAX@std@@AAPAU12@@?$_Default_allocator_traits@V?$allocator@U?$_List_node@U?$pair@$$CBIVc_font@@@std@@PAX@std@@@std@@@std@@SAXAAV?$allocator@U?$_List_node@U?$pair@$$CBIVc_font@@@std@@PAX@std@@@1@QAPAU?$_List_node@U?$pair@$$CBIVc_font@@@std@@PAX@1@AAPAU31@@Z 10002d30 f i c_renderer.obj
 0001:00001d30       ??$construct@HH@?$_Default_allocator_traits@V?$allocator@H@std@@@std@@SAXAAV?$allocator@H@1@QAH$$QAH@Z 10002d30 f i c_aimhelper.obj
 0001:00001d30       ??$construct@PAU?$_List_node@U?$pair@$$CBIU?$pair@HH@std@@@std@@PAX@std@@AAPAU12@@?$_Default_allocator_traits@V?$allocator@U?$_List_node@U?$pair@$$CBIU?$pair@HH@std@@@std@@PAX@std@@@std@@@std@@SAXAAV?$allocator@U?$_List_node@U?$pair@$$CBIU?$pair@HH@std@@@std@@PAX@std@@@1@QAPAU?$_List_node@U?$pair@$$CBIU?$pair@HH@std@@@std@@PAX@1@AAPAU31@@Z 10002d30 f i c_esp.obj
 0001:00001d30       ??$construct@PAU?$_List_node@U?$pair@$$CBIU?$pair@HH@std@@@std@@PAX@std@@ABQAU12@@?$_Default_allocator_traits@V?$allocator@U?$_List_node@U?$pair@$$CBIU?$pair@HH@std@@@std@@PAX@std@@@std@@@std@@SAXAAV?$allocator@U?$_List_node@U?$pair@$$CBIU?$pair@HH@std@@@std@@PAX@std@@@1@QAPAU?$_List_node@U?$pair@$$CBIU?$pair@HH@std@@@std@@PAX@1@ABQAU31@@Z 10002d30 f i c_esp.obj
 0001:00001d30       ??$construct@PAU?$_List_node@U?$pair@$$CBIVc_font@@@std@@PAX@std@@ABQAU12@@?$_Default_allocator_traits@V?$allocator@U?$_List_node@U?$pair@$$CBIVc_font@@@std@@PAX@std@@@std@@@std@@SAXAAV?$allocator@U?$_List_node@U?$pair@$$CBIVc_font@@@std@@PAX@std@@@1@QAPAU?$_List_node@U?$pair@$$CBIVc_font@@@std@@PAX@1@ABQAU31@@Z 10002d30 f i c_renderer.obj
 0001:00001d60       ??$_Adl_verify_range@PAV?$_List_unchecked_iterator@V?$_List_val@U?$_List_simple_types@U?$pair@$$CBIU?$pair@HH@std@@@std@@@std@@@std@@@std@@PAV12@@std@@YAXABQAV?$_List_unchecked_iterator@V?$_List_val@U?$_List_simple_types@U?$pair@$$CBIU?$pair@HH@std@@@std@@@std@@@std@@@0@0@Z 10002d60 f i c_esp.obj
 0001:00001d60       ??$_Destroy_range@V?$allocator@V?$_List_unchecked_iterator@V?$_List_val@U?$_List_simple_types@U?$pair@$$CBIUnetvar@c_netvar@@@std@@@std@@@std@@@std@@@std@@@std@@YAXPAV?$_List_unchecked_iterator@V?$_List_val@U?$_List_simple_types@U?$pair@$$CBIUnetvar@c_netvar@@@std@@@std@@@std@@@0@0AAV?$allocator@V?$_List_unchecked_iterator@V?$_List_val@U?$_List_simple_types@U?$pair@$$CBIUnetvar@c_netvar@@@std@@@std@@@std@@@std@@@0@@Z 10002d60 f i dllmain.obj
 0001:00001d60       ??$_Adl_verify_range@PAV?$vector@MV?$allocator@M@std@@@std@@PAV12@@std@@YAXABQAV?$vector@MV?$allocator@M@std@@@0@0@Z 10002d60 f i c_renderer.obj
 0001:00001d60       ??$_Enable_shared_from_this1@Vc_misc@@V1@@std@@YAXABV?$shared_ptr@Vc_misc@@@0@PAVc_misc@@U?$integral_constant@_N$0A@@0@@Z 10002d60 f i c_menu.obj
 0001:00001d60       ??$_Enable_shared_from_this1@Vc_conf@@V1@@std@@YAXABV?$shared_ptr@Vc_conf@@@0@PAVc_conf@@U?$integral_constant@_N$0A@@0@@Z 10002d60 f i c_menu.obj
 0001:00001d60       ??$_Destroy_range@V?$allocator@W4hitbox@c_cs_player@@@std@@@std@@YAXPAW4hitbox@c_cs_player@@0AAV?$allocator@W4hitbox@c_cs_player@@@0@@Z 10002d60 f i c_ragebot.obj
 0001:00001d60       ??$destroy@Uhitmarker_info@@@?$_Default_allocator_traits@V?$allocator@Uhitmarker_info@@@std@@@std@@SAXAAV?$allocator@Uhitmarker_info@@@1@QAUhitmarker_info@@@Z 10002d60 f i c_hitmarker.obj
 0001:00001d60       ??$_Destroy_range@V?$allocator@V?$_List_unchecked_iterator@V?$_List_val@U?$_List_simple_types@U?$pair@$$CBIVc_font@@@std@@@std@@@std@@@std@@@std@@@std@@YAXPAV?$_List_unchecked_iterator@V?$_List_val@U?$_List_simple_types@U?$pair@$$CBIVc_font@@@std@@@std@@@std@@@0@0AAV?$allocator@V?$_List_unchecked_iterator@V?$_List_val@U?$_List_simple_types@U?$pair@$$CBIVc_font@@@std@@@std@@@std@@@std@@@0@@Z 10002d60 f i c_damage_esp.obj
 0001:00001d60       ??$_Destroy_range@V?$allocator@Uplayer_info@c_esp@@@std@@@std@@YAXPAUplayer_info@c_esp@@0AAV?$allocator@Uplayer_info@c_esp@@@0@@Z 10002d60 f i c_damage_esp.obj
 0001:00001d60       ??$_Enable_shared_from_this1@Vc_button@@V1@@std@@YAXABV?$shared_ptr@Vc_button@@@0@PAVc_button@@U?$integral_constant@_N$0A@@0@@Z 10002d60 f i c_conf.obj
 0001:00001d60       ??$_Destroy_range@V?$allocator@PAUanimation@c_animation_system@@@std@@@std@@YAXPAPAUanimation@c_animation_system@@0AAV?$allocator@PAUanimation@c_animation_system@@@0@@Z 10002d60 f i c_aimhelper.obj
 0001:00001d60       ??$_Destroy_range@V?$allocator@M@std@@@std@@YAXPAM0AAV?$allocator@M@0@@Z 10002d60 f i c_font.obj
 0001:00001d60       ??$_Adl_verify_range@PBV?$json_ref@V?$basic_json@Vmap@std@@Vvector@2@V?$basic_string@DU?$char_traits@D@std@@V?$allocator@D@2@@2@_N_J_KNVallocator@2@Uadl_serializer@nlohmann@@@nlohmann@@@detail@nlohmann@@PBV123@@std@@YAXABQBV?$json_ref@V?$basic_json@Vmap@std@@Vvector@2@V?$basic_string@DU?$char_traits@D@std@@V?$allocator@D@2@@2@_N_J_KNVallocator@2@Uadl_serializer@nlohmann@@@nlohmann@@@detail@nlohmann@@0@Z 10002d60 f i c_conf.obj
 0001:00001d60       ??$destroy@PAUshot@resolver@@@?$_Default_allocator_traits@V?$allocator@PAUshot@resolver@@@std@@@std@@SAXAAV?$allocator@PAUshot@resolver@@@1@QAPAUshot@resolver@@@Z 10002d60 f i c_animation_system.obj
 0001:00001d60       ??$destroy@Uanimation@c_animation_system@@@?$_Default_allocator_traits@V?$allocator@Uanimation@c_animation_system@@@std@@@std@@SAXAAV?$allocator@Uanimation@c_animation_system@@@1@QAUanimation@c_animation_system@@@Z 10002d60 f i c_aimhelper.obj
 0001:00001d60       ??$destroy@PAUanimation@c_animation_system@@@?$_Default_allocator_traits@V?$allocator@PAUanimation@c_animation_system@@@std@@@std@@SAXAAV?$allocator@PAUanimation@c_animation_system@@@1@QAPAUanimation@c_animation_system@@@Z 10002d60 f i c_aimhelper.obj
 0001:00001d60       ??$destroy@H@?$_Default_allocator_traits@V?$allocator@H@std@@@std@@SAXAAV?$allocator@H@1@QAH@Z 10002d60 f i c_client_state_.obj
 0001:00001d60       ??$_Adl_verify_range@V?$_String_iterator@V?$_String_val@U?$_Simple_types@D@std@@@std@@@std@@V12@@std@@YAXABV?$_String_iterator@V?$_String_val@U?$_Simple_types@D@std@@@std@@@0@0@Z 10002d60 f i c_damage_esp.obj
 0001:00001d60       ??$destroy@PAU?$_List_node@U?$pair@$$CBIUanimation_info@c_animation_system@@@std@@PAX@std@@@?$_Default_allocator_traits@V?$allocator@U?$_List_node@U?$pair@$$CBIUanimation_info@c_animation_system@@@std@@PAX@std@@@std@@@std@@SAXAAV?$allocator@U?$_List_node@U?$pair@$$CBIUanimation_info@c_animation_system@@@std@@PAX@std@@@1@QAPAU?$_List_node@U?$pair@$$CBIUanimation_info@c_animation_system@@@std@@PAX@1@@Z 10002d60 f i c_aimhelper.obj
 0001:00001d60       ??$_Enable_shared_from_this1@Vc_group_box@@V1@@std@@YAXABV?$shared_ptr@Vc_group_box@@@0@PAVc_group_box@@U?$integral_constant@_N$0A@@0@@Z 10002d60 f i c_aiming.obj
 0001:00001d60       ??$_Destroy_range@V?$allocator@V?$tuple@MMM@std@@@std@@@std@@YAXPAV?$tuple@MMM@0@0AAV?$allocator@V?$tuple@MMM@std@@@0@@Z 10002d60 f i c_aimhelper.obj
 0001:00001d60       ??$_Destroy_range@V?$allocator@V?$_List_unchecked_iterator@V?$_List_val@U?$_List_simple_types@U?$pair@$$CBIU?$pair@HH@std@@@std@@@std@@@std@@@std@@@std@@@std@@YAXPAV?$_List_unchecked_iterator@V?$_List_val@U?$_List_simple_types@U?$pair@$$CBIU?$pair@HH@std@@@std@@@std@@@std@@@0@0AAV?$allocator@V?$_List_unchecked_iterator@V?$_List_val@U?$_List_simple_types@U?$pair@$$CBIU?$pair@HH@std@@@std@@@std@@@std@@@std@@@0@@Z 10002d60 f i c_esp.obj
 0001:00001d60       ??$_Adl_verify_range@V?$_Vector_iterator@V?$_Vector_val@U?$_Simple_types@U?$pair@PAVc_cs_player@@M@std@@@std@@@std@@@std@@V12@@std@@YAXABV?$_Vector_iterator@V?$_Vector_val@U?$_Simple_types@U?$pair@PAVc_cs_player@@M@std@@@std@@@std@@@0@0@Z 10002d60 f i c_chams.obj
 0001:00001d60       ??$_Enable_shared_from_this1@Vc_aiming@@V1@@std@@YAXABV?$shared_ptr@Vc_aiming@@@0@PAVc_aiming@@U?$integral_constant@_N$0A@@0@@Z 10002d60 f i c_menu.obj
 0001:00001d60       ??$destroy@PAU?$_List_node@U?$pair@QAVc_hotkey_select@@V?$function@$$A6AXI@Z@std@@@std@@PAX@std@@@?$_Default_allocator_traits@V?$allocator@U?$_List_node@U?$pair@QAVc_hotkey_select@@V?$function@$$A6AXI@Z@std@@@std@@PAX@std@@@std@@@std@@SAXAAV?$allocator@U?$_List_node@U?$pair@QAVc_hotkey_select@@V?$function@$$A6AXI@Z@std@@@std@@PAX@std@@@1@QAPAU?$_List_node@U?$pair@QAVc_hotkey_select@@V?$function@$$A6AXI@Z@std@@@std@@PAX@1@@Z 10002d60 f i c_fake_ping.obj
 0001:00001d60       ??$_Adl_verify_range@PADPAD@std@@YAXABQAD0@Z 10002d60 f i c_conf.obj
 0001:00001d60       ??$_Adl_verify_range@PAV?$_List_unchecked_iterator@V?$_List_val@U?$_List_simple_types@U?$pair@$$CBIUanimation_info@c_animation_system@@@std@@@std@@@std@@@std@@PAV12@@std@@YAXABQAV?$_List_unchecked_iterator@V?$_List_val@U?$_List_simple_types@U?$pair@$$CBIUanimation_info@c_animation_system@@@std@@@std@@@std@@@0@0@Z 10002d60 f i c_animation_system.obj
 0001:00001d60       ??$_Destroy_range@V?$allocator@Uimpact_info@@@std@@@std@@YAXPAUimpact_info@@0AAV?$allocator@Uimpact_info@@@0@@Z 10002d60 f i c_hitmarker.obj
 0001:00001d60       ??$destroy@Uimpact_info@@@?$_Default_allocator_traits@V?$allocator@Uimpact_info@@@std@@@std@@SAXAAV?$allocator@Uimpact_info@@@1@QAUimpact_info@@@Z 10002d60 f i c_hitmarker.obj
 0001:00001d60       ??$_Enable_shared_from_this1@Vc_float_select@@V1@@std@@YAXABV?$shared_ptr@Vc_float_select@@@0@PAVc_float_select@@U?$integral_constant@_N$0A@@0@@Z 10002d60 f i c_aiming.obj
 0001:00001d60       ??$_Adl_verify_range@PAV?$_List_unchecked_iterator@V?$_List_val@U?$_List_simple_types@U?$pair@$$CBIV?$unordered_map@IUnetvar@c_netvar@@U?$hash@I@std@@U?$equal_to@I@4@V?$allocator@U?$pair@$$CBIUnetvar@c_netvar@@@std@@@4@@std@@@std@@@std@@@std@@@std@@PAV12@@std@@YAXABQAV?$_List_unchecked_iterator@V?$_List_val@U?$_List_simple_types@U?$pair@$$CBIV?$unordered_map@IUnetvar@c_netvar@@U?$hash@I@std@@U?$equal_to@I@4@V?$allocator@U?$pair@$$CBIUnetvar@c_netvar@@@std@@@4@@std@@@std@@@std@@@std@@@0@0@Z 10002d60 f i c_aimhelper.obj
 0001:00001d60       ??$_Enable_shared_from_this1@Vc_welcome_message@@V1@@std@@YAXABV?$shared_ptr@Vc_welcome_message@@@0@PAVc_welcome_message@@U?$integral_constant@_N$0A@@0@@Z 10002d60 f i c_menu.obj
 0001:00001d60       ??$destroy@PAU?$_List_node@U?$pair@$$CBIV?$unordered_map@IUnetvar@c_netvar@@U?$hash@I@std@@U?$equal_to@I@4@V?$allocator@U?$pair@$$CBIUnetvar@c_netvar@@@std@@@4@@std@@@std@@PAX@std@@@?$_Default_allocator_traits@V?$allocator@U?$_List_node@U?$pair@$$CBIV?$unordered_map@IUnetvar@c_netvar@@U?$hash@I@std@@U?$equal_to@I@4@V?$allocator@U?$pair@$$CBIUnetvar@c_netvar@@@std@@@4@@std@@@std@@PAX@std@@@std@@@std@@SAXAAV?$allocator@U?$_List_node@U?$pair@$$CBIV?$unordered_map@IUnetvar@c_netvar@@U?$hash@I@std@@U?$equal_to@I@4@V?$allocator@U?$pair@$$CBIUnetvar@c_netvar@@@std@@@4@@std@@@std@@PAX@std@@@1@QAPAU?$_List_node@U?$pair@$$CBIV?$unordered_map@IUnetvar@c_netvar@@U?$hash@I@std@@U?$equal_to@I@4@V?$allocator@U?$pair@$$CBIUnetvar@c_netvar@@@std@@@4@@std@@@std@@PAX@1@@Z 10002d60 f i dllmain.obj
 0001:00001d60       ??$destroy@PAD@?$_Default_allocator_traits@V?$allocator@D@std@@@std@@SAXAAV?$allocator@D@1@QAPAD@Z 10002d60 f i dll.obj
 0001:00001d60       ??$_Enable_shared_from_this1@Vc_router@@V1@@std@@YAXABV?$shared_ptr@Vc_router@@@0@PAVc_router@@U?$integral_constant@_N$0A@@0@@Z 10002d60 f i c_menu.obj
 0001:00001d60       ??$_Destroy_range@V?$allocator@D@std@@@std@@YAXPAD0AAV?$allocator@D@0@@Z 10002d60 f i c_miscellaneous.obj
 0001:00001d60       ??$_Destroy_range@V?$allocator@V?$_List_unchecked_iterator@V?$_List_val@U?$_List_simple_types@U?$pair@$$CBIUanimation_info@c_animation_system@@@std@@@std@@@std@@@std@@@std@@@std@@YAXPAV?$_List_unchecked_iterator@V?$_List_val@U?$_List_simple_types@U?$pair@$$CBIUanimation_info@c_animation_system@@@std@@@std@@@std@@@0@0AAV?$allocator@V?$_List_unchecked_iterator@V?$_List_val@U?$_List_simple_types@U?$pair@$$CBIUanimation_info@c_animation_system@@@std@@@std@@@std@@@std@@@0@@Z 10002d60 f i c_aimhelper.obj
 0001:00001d60       ??$_Pocca@V?$allocator@D@std@@@std@@YAXAAV?$allocator@D@0@ABV10@@Z 10002d60 f i c_miscellaneous.obj
 0001:00001d60       ??$_Enable_shared_from_this1@Vc_color_select_preview@c_color_select@@V12@@std@@YAXABV?$shared_ptr@Vc_color_select_preview@c_color_select@@@0@PAVc_color_select_preview@c_color_select@@U?$integral_constant@_N$0A@@0@@Z 10002d60 f i c_color_select.obj
 0001:00001d60       ??$_Enable_shared_from_this1@V?$output_string_adapter@DV?$basic_string@DU?$char_traits@D@std@@V?$allocator@D@2@@std@@@detail@nlohmann@@V123@@std@@YAXABV?$shared_ptr@V?$output_string_adapter@DV?$basic_string@DU?$char_traits@D@std@@V?$allocator@D@2@@std@@@detail@nlohmann@@@0@PAV?$output_string_adapter@DV?$basic_string@DU?$char_traits@D@std@@V?$allocator@D@2@@std@@@detail@nlohmann@@U?$integral_constant@_N$0A@@0@@Z 10002d60 f i c_conf.obj
 0001:00001d60       ??$_Adl_verify_range@PBU?$pair@$$CBHH@std@@PBU12@@std@@YAXABQBU?$pair@$$CBHH@0@0@Z 10002d60 f i c_prediction_.obj
 0001:00001d60       ??$_Adl_verify_range@PAV?$_List_unchecked_iterator@V?$_List_val@U?$_List_simple_types@U?$pair@$$CBIUnetvar@c_netvar@@@std@@@std@@@std@@@std@@PAV12@@std@@YAXABQAV?$_List_unchecked_iterator@V?$_List_val@U?$_List_simple_types@U?$pair@$$CBIUnetvar@c_netvar@@@std@@@std@@@std@@@0@0@Z 10002d60 f i c_aimhelper.obj
 0001:00001d60       ??$_Enable_shared_from_this1@Vc_select@@V1@@std@@YAXABV?$shared_ptr@Vc_select@@@0@PAVc_select@@U?$integral_constant@_N$0A@@0@@Z 10002d60 f i c_misc.obj
 0001:00001d60       ??$_Enable_shared_from_this1@Vc_text@@V1@@std@@YAXABV?$shared_ptr@Vc_text@@@0@PAVc_text@@U?$integral_constant@_N$0A@@0@@Z 10002d60 f i c_checkbox.obj
 0001:00001d60       ??$_Adl_verify_range@V?$_Deque_iterator@V?$_Deque_val@U?$_Deque_simple_types@Ushot@resolver@@@std@@@std@@@std@@V12@@std@@YAXABV?$_Deque_iterator@V?$_Deque_val@U?$_Deque_simple_types@Ushot@resolver@@@std@@@std@@@0@0@Z 10002d60 f i c_resolver.obj
 0001:00001d60       ??$_Enable_shared_from_this1@Vc_hotkey_select@@V1@@std@@YAXABV?$shared_ptr@Vc_hotkey_select@@@0@PAVc_hotkey_select@@U?$integral_constant@_N$0A@@0@@Z 10002d60 f i c_aiming.obj
 0001:00001d60       ??$destroy@U_Container_proxy@std@@@?$_Default_allocator_traits@V?$allocator@U_Container_proxy@std@@@std@@@std@@SAXAAV?$allocator@U_Container_proxy@std@@@1@QAU_Container_proxy@1@@Z 10002d60 f i c_aimhelper.obj
 0001:00001d60       ??$_Enable_shared_from_this1@Vc_image@@V1@@std@@YAXABV?$shared_ptr@Vc_image@@@0@PAVc_image@@U?$integral_constant@_N$0A@@0@@Z 10002d60 f i c_menu.obj
 0001:00001d60       ??$destroy@PAUc_incoming_sequence@@@?$_Default_allocator_traits@V?$allocator@PAUc_incoming_sequence@@@std@@@std@@SAXAAV?$allocator@PAUc_incoming_sequence@@@1@QAPAUc_incoming_sequence@@@Z 10002d60 f i c_fake_ping.obj
 0001:00001d60       ??$_Enable_shared_from_this1@Vc_flow_layout@@V1@@std@@YAXABV?$shared_ptr@Vc_flow_layout@@@0@PAVc_flow_layout@@U?$integral_constant@_N$0A@@0@@Z 10002d60 f i c_menu.obj
 0001:00001d60       ??$_Destroy_range@V?$allocator@V?$_List_unchecked_iterator@V?$_List_val@U?$_List_simple_types@U?$pair@$$CBIV?$unordered_map@IUnetvar@c_netvar@@U?$hash@I@std@@U?$equal_to@I@4@V?$allocator@U?$pair@$$CBIUnetvar@c_netvar@@@std@@@4@@std@@@std@@@std@@@std@@@std@@@std@@@std@@YAXPAV?$_List_unchecked_iterator@V?$_List_val@U?$_List_simple_types@U?$pair@$$CBIV?$unordered_map@IUnetvar@c_netvar@@U?$hash@I@std@@U?$equal_to@I@4@V?$allocator@U?$pair@$$CBIUnetvar@c_netvar@@@std@@@4@@std@@@std@@@std@@@std@@@0@0AAV?$allocator@V?$_List_unchecked_iterator@V?$_List_val@U?$_List_simple_types@U?$pair@$$CBIV?$unordered_map@IUnetvar@c_netvar@@U?$hash@I@std@@U?$equal_to@I@4@V?$allocator@U?$pair@$$CBIUnetvar@c_netvar@@@std@@@4@@std@@@std@@@std@@@std@@@std@@@0@@Z 10002d60 f i dllmain.obj
 0001:00001d60       ??$_Adl_verify_range@V?$_Deque_iterator@V?$_Deque_val@U?$_Deque_simple_types@Uanimation@c_animation_system@@@std@@@std@@@std@@V12@@std@@YAXABV?$_Deque_iterator@V?$_Deque_val@U?$_Deque_simple_types@Uanimation@c_animation_system@@@std@@@std@@@0@0@Z 10002d60 f i c_animation_system.obj
 0001:00001d60       ??$_Destroy_range@V?$allocator@Vc_vector3d@@@std@@@std@@YAXPAVc_vector3d@@0AAV?$allocator@Vc_vector3d@@@0@@Z 10002d60 f i c_damage_esp.obj
 0001:00001d60       ??$destroy@PAU?$_List_node@U?$pair@$$CBIUnetvar@c_netvar@@@std@@PAX@std@@@?$_Default_allocator_traits@V?$allocator@U?$_List_node@U?$pair@$$CBIUnetvar@c_netvar@@@std@@PAX@std@@@std@@@std@@SAXAAV?$allocator@U?$_List_node@U?$pair@$$CBIUnetvar@c_netvar@@@std@@PAX@std@@@1@QAPAU?$_List_node@U?$pair@$$CBIUnetvar@c_netvar@@@std@@PAX@1@@Z 10002d60 f i dllmain.obj
 0001:00001d60       ??$destroy@Uc_incoming_sequence@@@?$_Default_allocator_traits@V?$allocator@Uc_incoming_sequence@@@std@@@std@@SAXAAV?$allocator@Uc_incoming_sequence@@@1@QAUc_incoming_sequence@@@Z 10002d60 f i c_fake_ping.obj
 0001:00001d60       ??$_Destroy_range@V?$allocator@E@std@@@std@@YAXPAE0AAV?$allocator@E@0@@Z 10002d60 f i c_miscellaneous.obj
 0001:00001d60       ??$_Adl_verify_range@V?$_Array_iterator@D$0EA@@std@@V12@@std@@YAXABV?$_Array_iterator@D$0EA@@0@0@Z 10002d60 f i c_conf.obj
 0001:00001d60       ??$_Destroy_range@V?$allocator@PAUshot@resolver@@@std@@@std@@YAXPAPAUshot@resolver@@0AAV?$allocator@PAUshot@resolver@@@0@@Z 10002d60 f i c_resolver.obj
 0001:00001d60       ??$_Destroy_range@V?$allocator@Uaim_info@c_aimhelper@@@std@@@std@@YAXPAUaim_info@c_aimhelper@@0AAV?$allocator@Uaim_info@c_aimhelper@@@0@@Z 10002d60 f i c_aimhelper.obj
 0001:00001d60       ??$_Enable_shared_from_this1@Vc_navbar_tab@@V1@@std@@YAXABV?$shared_ptr@Vc_navbar_tab@@@0@PAVc_navbar_tab@@U?$integral_constant@_N$0A@@0@@Z 10002d60 f i c_navbar.obj
 0001:00001d60       ??$_Destroy_range@V?$allocator@PAUc_incoming_sequence@@@std@@@std@@YAXPAPAUc_incoming_sequence@@0AAV?$allocator@PAUc_incoming_sequence@@@0@@Z 10002d60 f i c_net_channel_.obj
 0001:00001d60       ??$_Destroy_range@V?$allocator@Uhitmarker_info@@@std@@@std@@YAXPAUhitmarker_info@@0AAV?$allocator@Uhitmarker_info@@@0@@Z 10002d60 f i c_hitmarker.obj
 0001:00001d60       ??$_Pocca@V?$allocator@M@std@@@std@@YAXAAV?$allocator@M@0@ABV10@@Z 10002d60 f i c_renderer.obj
 0001:00001d60       ??$_Adl_verify_range@PAV?$_List_unchecked_iterator@V?$_List_val@U?$_List_simple_types@U?$pair@$$CBIVc_font@@@std@@@std@@@std@@@std@@PAV12@@std@@YAXABQAV?$_List_unchecked_iterator@V?$_List_val@U?$_List_simple_types@U?$pair@$$CBIVc_font@@@std@@@std@@@std@@@0@0@Z 10002d60 f i c_renderer.obj
 0001:00001d60       ??$destroy@PAU?$_List_node@U?$pair@$$CBIU?$pair@HH@std@@@std@@PAX@std@@@?$_Default_allocator_traits@V?$allocator@U?$_List_node@U?$pair@$$CBIU?$pair@HH@std@@@std@@PAX@std@@@std@@@std@@SAXAAV?$allocator@U?$_List_node@U?$pair@$$CBIU?$pair@HH@std@@@std@@PAX@std@@@1@QAPAU?$_List_node@U?$pair@$$CBIU?$pair@HH@std@@@std@@PAX@1@@Z 10002d60 f i c_esp.obj
 0001:00001d60       ??$_Enable_shared_from_this1@Vc_checkbox@@V1@@std@@YAXABV?$shared_ptr@Vc_checkbox@@@0@PAVc_checkbox@@U?$integral_constant@_N$0A@@0@@Z 10002d60 f i c_aiming.obj
 0001:00001d60       ??$_Destroy_range@V?$allocator@Vc_vector2d@@@std@@@std@@YAXPAVc_vector2d@@0AAV?$allocator@Vc_vector2d@@@0@@Z 10002d60 f i c_damage_esp.obj
 0001:00001d60       ??$destroy@U?$pair@$$CBIUnetvar@c_netvar@@@std@@@?$_Default_allocator_traits@V?$allocator@U?$_List_node@U?$pair@$$CBIUnetvar@c_netvar@@@std@@PAX@std@@@std@@@std@@SAXAAV?$allocator@U?$_List_node@U?$pair@$$CBIUnetvar@c_netvar@@@std@@PAX@std@@@1@QAU?$pair@$$CBIUnetvar@c_netvar@@@1@@Z 10002d60 f i dllmain.obj
 0001:00001d60       ??$destroy@PAU?$_Tree_node@U?$pair@$$CBHH@std@@PAX@std@@@?$_Default_allocator_traits@V?$allocator@U?$_Tree_node@U?$pair@$$CBHH@std@@PAX@std@@@std@@@std@@SAXAAV?$allocator@U?$_Tree_node@U?$pair@$$CBHH@std@@PAX@std@@@1@QAPAU?$_Tree_node@U?$pair@$$CBHH@std@@PAX@1@@Z 10002d60 f i c_prediction_.obj
 0001:00001d60       ??$destroy@U?$pair@$$CBHH@std@@@?$_Default_allocator_traits@V?$allocator@U?$_Tree_node@U?$pair@$$CBHH@std@@PAX@std@@@std@@@std@@SAXAAV?$allocator@U?$_Tree_node@U?$pair@$$CBHH@std@@PAX@std@@@1@QAU?$pair@$$CBHH@1@@Z 10002d60 f i c_prediction_.obj
 0001:00001d60       ??$_Destroy_range@V?$allocator@U?$pair@PAVc_cs_player@@M@std@@@std@@@std@@YAXPAU?$pair@PAVc_cs_player@@M@0@0AAV?$allocator@U?$pair@PAVc_cs_player@@M@std@@@0@@Z 10002d60 f i c_chams.obj
 0001:00001d60       ??$_Enable_shared_from_this1@Vc_navbar@@V1@@std@@YAXABV?$shared_ptr@Vc_navbar@@@0@PAVc_navbar@@U?$integral_constant@_N$0A@@0@@Z 10002d60 f i c_menu.obj
 0001:00001d60       ??$destroy@PAU?$_List_node@U?$pair@$$CBIVc_font@@@std@@PAX@std@@@?$_Default_allocator_traits@V?$allocator@U?$_List_node@U?$pair@$$CBIVc_font@@@std@@PAX@std@@@std@@@std@@SAXAAV?$allocator@U?$_List_node@U?$pair@$$CBIVc_font@@@std@@PAX@std@@@1@QAPAU?$_List_node@U?$pair@$$CBIVc_font@@@std@@PAX@1@@Z 10002d60 f i c_damage_esp.obj
 0001:00001d60       ??$destroy@U?$pair@$$CBIU?$pair@HH@std@@@std@@@?$_Default_allocator_traits@V?$allocator@U?$_List_node@U?$pair@$$CBIU?$pair@HH@std@@@std@@PAX@std@@@std@@@std@@SAXAAV?$allocator@U?$_List_node@U?$pair@$$CBIU?$pair@HH@std@@@std@@PAX@std@@@1@QAU?$pair@$$CBIU?$pair@HH@std@@@1@@Z 10002d60 f i c_esp.obj
 0001:00001d60       ??$_Adl_verify_range@PAMPAM@std@@YAXABQAM0@Z 10002d60 f i c_renderer.obj
 0001:00001d60       ??$_Destroy_range@V?$allocator@V?$_List_unchecked_iterator@V?$_List_val@U?$_List_simple_types@U?$pair@QAVc_hotkey_select@@V?$function@$$A6AXI@Z@std@@@std@@@std@@@std@@@std@@@std@@@std@@YAXPAV?$_List_unchecked_iterator@V?$_List_val@U?$_List_simple_types@U?$pair@QAVc_hotkey_select@@V?$function@$$A6AXI@Z@std@@@std@@@std@@@std@@@0@0AAV?$allocator@V?$_List_unchecked_iterator@V?$_List_val@U?$_List_simple_types@U?$pair@QAVc_hotkey_select@@V?$function@$$A6AXI@Z@std@@@std@@@std@@@std@@@std@@@0@@Z 10002d60 f i c_fake_ping.obj
 0001:00001d60       ??$destroy@PA_W@?$_Default_allocator_traits@V?$allocator@_W@std@@@std@@SAXAAV?$allocator@_W@1@QAPA_W@Z 10002d60 f i c_miscellaneous.obj
 0001:00001d60       ??$_Enable_shared_from_this1@Vc_checkbox_inner@c_checkbox@@V12@@std@@YAXABV?$shared_ptr@Vc_checkbox_inner@c_checkbox@@@0@PAVc_checkbox_inner@c_checkbox@@U?$integral_constant@_N$0A@@0@@Z 10002d60 f i c_checkbox.obj
 0001:00001d60       ??$_Destroy_range@V?$allocator@H@std@@@std@@YAXPAH0AAV?$allocator@H@0@@Z 10002d60 f i c_aimhelper.obj
 0001:00001d60       ??$_Enable_shared_from_this1@Vinput_buffer_adapter@detail@nlohmann@@V123@@std@@YAXABV?$shared_ptr@Vinput_buffer_adapter@detail@nlohmann@@@0@PAVinput_buffer_adapter@detail@nlohmann@@U?$integral_constant@_N$0A@@0@@Z 10002d60 f i c_conf.obj
 0001:00001d60       ??$destroy@PAU?$_Tree_node@U?$pair@$$CBV?$basic_string@DU?$char_traits@D@std@@V?$allocator@D@2@@std@@V?$basic_json@Vmap@std@@Vvector@2@V?$basic_string@DU?$char_traits@D@std@@V?$allocator@D@2@@2@_N_J_KNVallocator@2@Uadl_serializer@nlohmann@@@nlohmann@@@std@@PAX@std@@@?$_Default_allocator_traits@V?$allocator@U?$_Tree_node@U?$pair@$$CBV?$basic_string@DU?$char_traits@D@std@@V?$allocator@D@2@@std@@V?$basic_json@Vmap@std@@Vvector@2@V?$basic_string@DU?$char_traits@D@std@@V?$allocator@D@2@@2@_N_J_KNVallocator@2@Uadl_serializer@nlohmann@@@nlohmann@@@std@@PAX@std@@@std@@@std@@SAXAAV?$allocator@U?$_Tree_node@U?$pair@$$CBV?$basic_string@DU?$char_traits@D@std@@V?$allocator@D@2@@std@@V?$basic_json@Vmap@std@@Vvector@2@V?$basic_string@DU?$char_traits@D@std@@V?$allocator@D@2@@2@_N_J_KNVallocator@2@Uadl_serializer@nlohmann@@@nlohmann@@@std@@PAX@std@@@1@QAPAU?$_Tree_node@U?$pair@$$CBV?$basic_string@DU?$char_traits@D@std@@V?$allocator@D@2@@std@@V?$basic_json@Vmap@std@@Vvector@2@V?$basic_string@DU?$char_traits@D@std@@V?$allocator@D@2@@2@_N_J_KNVallocator@2@Uadl_serializer@nlohmann@@@nlohmann@@@std@@PAX@1@@Z 10002d60 f i c_conf.obj
 0001:00001d60       ??$_Enable_shared_from_this1@Vc_visuals@@V1@@std@@YAXABV?$shared_ptr@Vc_visuals@@@0@PAVc_visuals@@U?$integral_constant@_N$0A@@0@@Z 10002d60 f i c_menu.obj
 0001:00001d60       ??$_Adl_verify_range@PAV?$_List_unchecked_iterator@V?$_List_val@U?$_List_simple_types@U?$pair@QAVc_hotkey_select@@V?$function@$$A6AXI@Z@std@@@std@@@std@@@std@@@std@@PAV12@@std@@YAXABQAV?$_List_unchecked_iterator@V?$_List_val@U?$_List_simple_types@U?$pair@QAVc_hotkey_select@@V?$function@$$A6AXI@Z@std@@@std@@@std@@@std@@@0@0@Z 10002d60 f i c_hotkeys.obj
 0001:00001d60       ??$_Pocca@V?$allocator@V?$vector@MV?$allocator@M@std@@@std@@@std@@@std@@YAXAAV?$allocator@V?$vector@MV?$allocator@M@std@@@std@@@0@ABV10@@Z 10002d60 f i c_renderer.obj
 0001:00001d60       ??$_Enable_shared_from_this1@Vc_color_select@@V1@@std@@YAXABV?$shared_ptr@Vc_color_select@@@0@PAVc_color_select@@U?$integral_constant@_N$0A@@0@@Z 10002d60 f i c_visuals.obj
 0001:00001d60       ??$destroy@D@?$_Default_allocator_traits@V?$allocator@D@std@@@std@@SAXAAV?$allocator@D@1@QAD@Z 10002d60 f i c_conf.obj
 0001:00001d60       ??$_Destroy_range@V?$allocator@Unade_info@c_esp@@@std@@@std@@YAXPAUnade_info@c_esp@@0AAV?$allocator@Unade_info@c_esp@@@0@@Z 10002d60 f i c_damage_esp.obj
 0001:00001d70       ??$exchange@PAV?$c_hook@I@@AAPAV1@@std@@YAPAV?$c_hook@I@@AAPAV1@0@Z 10002d70 f i c_cs_player_.obj
 0001:00001d70       ??$exchange@PAU?$_List_node@U?$pair@QAVc_hotkey_select@@V?$function@$$A6AXI@Z@std@@@std@@PAX@std@@$$T@std@@YAPAU?$_List_node@U?$pair@QAVc_hotkey_select@@V?$function@$$A6AXI@Z@std@@@std@@PAX@0@AAPAU10@$$QA$$T@Z 10002d70 f i c_hotkeys.obj
 0001:00001d70       ??$exchange@PAU?$_List_node@U?$pair@$$CBIV?$unordered_map@IUnetvar@c_netvar@@U?$hash@I@std@@U?$equal_to@I@4@V?$allocator@U?$pair@$$CBIUnetvar@c_netvar@@@std@@@4@@std@@@std@@PAX@std@@$$T@std@@YAPAU?$_List_node@U?$pair@$$CBIV?$unordered_map@IUnetvar@c_netvar@@U?$hash@I@std@@U?$equal_to@I@4@V?$allocator@U?$pair@$$CBIUnetvar@c_netvar@@@std@@@4@@std@@@std@@PAX@0@AAPAU10@$$QA$$T@Z 10002d70 f i c_aimhelper.obj
 0001:00001d70       ??$exchange@PAU?$_List_node@U?$pair@QAVc_hotkey_select@@V?$function@$$A6AXI@Z@std@@@std@@PAX@std@@PAU12@@std@@YAPAU?$_List_node@U?$pair@QAVc_hotkey_select@@V?$function@$$A6AXI@Z@std@@@std@@PAX@0@AAPAU10@$$QAPAU10@@Z 10002d70 f i c_hotkeys.obj
 0001:00001d70       ??$exchange@PAU?$_List_node@U?$pair@$$CBIVc_font@@@std@@PAX@std@@PAU12@@std@@YAPAU?$_List_node@U?$pair@$$CBIVc_font@@@std@@PAX@0@AAPAU10@$$QAPAU10@@Z 10002d70 f i c_renderer.obj
 0001:00001d70       ??$exchange@PAU?$_List_node@U?$pair@$$CBIUnetvar@c_netvar@@@std@@PAX@std@@$$T@std@@YAPAU?$_List_node@U?$pair@$$CBIUnetvar@c_netvar@@@std@@PAX@0@AAPAU10@$$QA$$T@Z 10002d70 f i c_aimhelper.obj
 0001:00001d70       ??$exchange@PAU_Container_proxy@std@@$$T@std@@YAPAU_Container_proxy@0@AAPAU10@$$QA$$T@Z 10002d70 f i c_aimhelper.obj
 0001:00001d70       ??$exchange@PAU?$_List_node@U?$pair@$$CBIUnetvar@c_netvar@@@std@@PAX@std@@PAU12@@std@@YAPAU?$_List_node@U?$pair@$$CBIUnetvar@c_netvar@@@std@@PAX@0@AAPAU10@$$QAPAU10@@Z 10002d70 f i c_aimhelper.obj
 0001:00001d70       ??$exchange@PAV_Facet_base@std@@PAV12@@std@@YAPAV_Facet_base@0@AAPAV10@$$QAPAV10@@Z 10002d70 f i dll.obj
 0001:00001d70       ??$exchange@PAV?$map@V?$basic_string@DU?$char_traits@D@std@@V?$allocator@D@2@@std@@V?$basic_json@Vmap@std@@Vvector@2@V?$basic_string@DU?$char_traits@D@std@@V?$allocator@D@2@@2@_N_J_KNVallocator@2@Uadl_serializer@nlohmann@@@nlohmann@@U?$less@X@2@V?$allocator@U?$pair@$$CBV?$basic_string@DU?$char_traits@D@std@@V?$allocator@D@2@@std@@V?$basic_json@Vmap@std@@Vvector@2@V?$basic_string@DU?$char_traits@D@std@@V?$allocator@D@2@@2@_N_J_KNVallocator@2@Uadl_serializer@nlohmann@@@nlohmann@@@std@@@2@@std@@PAV12@@std@@YAPAV?$map@V?$basic_string@DU?$char_traits@D@std@@V?$allocator@D@2@@std@@V?$basic_json@Vmap@std@@Vvector@2@V?$basic_string@DU?$char_traits@D@std@@V?$allocator@D@2@@2@_N_J_KNVallocator@2@Uadl_serializer@nlohmann@@@nlohmann@@U?$less@X@2@V?$allocator@U?$pair@$$CBV?$basic_string@DU?$char_traits@D@std@@V?$allocator@D@2@@std@@V?$basic_json@Vmap@std@@Vvector@2@V?$basic_string@DU?$char_traits@D@std@@V?$allocator@D@2@@2@_N_J_KNVallocator@2@Uadl_serializer@nlohmann@@@nlohmann@@@std@@@2@@0@AAPAV10@$$QAPAV10@@Z 10002d70 f i c_conf.obj
 0001:00001d70       ??$exchange@PAU?$_List_node@U?$pair@$$CBIV?$unordered_map@IUnetvar@c_netvar@@U?$hash@I@std@@U?$equal_to@I@4@V?$allocator@U?$pair@$$CBIUnetvar@c_netvar@@@std@@@4@@std@@@std@@PAX@std@@PAU12@@std@@YAPAU?$_List_node@U?$pair@$$CBIV?$unordered_map@IUnetvar@c_netvar@@U?$hash@I@std@@U?$equal_to@I@4@V?$allocator@U?$pair@$$CBIUnetvar@c_netvar@@@std@@@4@@std@@@std@@PAX@0@AAPAU10@$$QAPAU10@@Z 10002d70 f i c_aimhelper.obj
 0001:00001d70       ??$exchange@PAU?$_Tree_node@U?$pair@$$CBV?$basic_string@DU?$char_traits@D@std@@V?$allocator@D@2@@std@@V?$basic_json@Vmap@std@@Vvector@2@V?$basic_string@DU?$char_traits@D@std@@V?$allocator@D@2@@2@_N_J_KNVallocator@2@Uadl_serializer@nlohmann@@@nlohmann@@@std@@PAX@std@@$$T@std@@YAPAU?$_Tree_node@U?$pair@$$CBV?$basic_string@DU?$char_traits@D@std@@V?$allocator@D@2@@std@@V?$basic_json@Vmap@std@@Vvector@2@V?$basic_string@DU?$char_traits@D@std@@V?$allocator@D@2@@2@_N_J_KNVallocator@2@Uadl_serializer@nlohmann@@@nlohmann@@@std@@PAX@0@AAPAU10@$$QA$$T@Z 10002d70 f i c_conf.obj
 0001:00001d70       ??$exchange@PAU?$_List_node@U?$pair@$$CBIVc_font@@@std@@PAX@std@@$$T@std@@YAPAU?$_List_node@U?$pair@$$CBIVc_font@@@std@@PAX@0@AAPAU10@$$QA$$T@Z 10002d70 f i c_renderer.obj
 0001:00001d70       ??$exchange@PAIPAI@std@@YAPAIAAPAI$$QAPAI@Z 10002d70 f i c_client.obj
 0001:00001d70       ??$exchange@PAV?$basic_string@DU?$char_traits@D@std@@V?$allocator@D@2@@std@@PAV12@@std@@YAPAV?$basic_string@DU?$char_traits@D@std@@V?$allocator@D@2@@0@AAPAV10@$$QAPAV10@@Z 10002d70 f i c_conf.obj
 0001:00001d70       ??$exchange@PAIAAPAI@std@@YAPAIAAPAI0@Z 10002d70 f i c_client.obj
 0001:00001d70       ??$exchange@PAV?$vector@V?$basic_json@Vmap@std@@Vvector@2@V?$basic_string@DU?$char_traits@D@std@@V?$allocator@D@2@@2@_N_J_KNVallocator@2@Uadl_serializer@nlohmann@@@nlohmann@@V?$allocator@V?$basic_json@Vmap@std@@Vvector@2@V?$basic_string@DU?$char_traits@D@std@@V?$allocator@D@2@@2@_N_J_KNVallocator@2@Uadl_serializer@nlohmann@@@nlohmann@@@std@@@std@@PAV12@@std@@YAPAV?$vector@V?$basic_json@Vmap@std@@Vvector@2@V?$basic_string@DU?$char_traits@D@std@@V?$allocator@D@2@@2@_N_J_KNVallocator@2@Uadl_serializer@nlohmann@@@nlohmann@@V?$allocator@V?$basic_json@Vmap@std@@Vvector@2@V?$basic_string@DU?$char_traits@D@std@@V?$allocator@D@2@@2@_N_J_KNVallocator@2@Uadl_serializer@nlohmann@@@nlohmann@@@std@@@0@AAPAV10@$$QAPAV10@@Z 10002d70 f i c_conf.obj
 0001:00001d70       ??$exchange@PAU?$_Tree_node@U?$pair@$$CBHH@std@@PAX@std@@AAPAU12@@std@@YAPAU?$_Tree_node@U?$pair@$$CBHH@std@@PAX@0@AAPAU10@0@Z 10002d70 f i c_prediction_.obj
 0001:00001d70       ??$exchange@PAV?$c_hook@I@@PAV1@@std@@YAPAV?$c_hook@I@@AAPAV1@$$QAPAV1@@Z 10002d70 f i c_cs_player_.obj
 0001:00001d70       ??$exchange@PAU?$_Tree_node@U?$pair@$$CBV?$basic_string@DU?$char_traits@D@std@@V?$allocator@D@2@@std@@V?$basic_json@Vmap@std@@Vvector@2@V?$basic_string@DU?$char_traits@D@std@@V?$allocator@D@2@@2@_N_J_KNVallocator@2@Uadl_serializer@nlohmann@@@nlohmann@@@std@@PAX@std@@AAPAU12@@std@@YAPAU?$_Tree_node@U?$pair@$$CBV?$basic_string@DU?$char_traits@D@std@@V?$allocator@D@2@@std@@V?$basic_json@Vmap@std@@Vvector@2@V?$basic_string@DU?$char_traits@D@std@@V?$allocator@D@2@@2@_N_J_KNVallocator@2@Uadl_serializer@nlohmann@@@nlohmann@@@std@@PAX@0@AAPAU10@0@Z 10002d70 f i c_conf.obj
 0001:00001d70       ??$exchange@PAU?$_List_node@U?$pair@$$CBIU?$pair@HH@std@@@std@@PAX@std@@$$T@std@@YAPAU?$_List_node@U?$pair@$$CBIU?$pair@HH@std@@@std@@PAX@0@AAPAU10@$$QA$$T@Z 10002d70 f i c_esp.obj
 0001:00001d70       ??$exchange@PAU?$_List_node@U?$pair@$$CBIUanimation_info@c_animation_system@@@std@@PAX@std@@PAU12@@std@@YAPAU?$_List_node@U?$pair@$$CBIUanimation_info@c_animation_system@@@std@@PAX@0@AAPAU10@$$QAPAU10@@Z 10002d70 f i c_animation_system.obj
 0001:00001d70       ??$exchange@PAU?$_List_node@U?$pair@$$CBIUanimation_info@c_animation_system@@@std@@PAX@std@@$$T@std@@YAPAU?$_List_node@U?$pair@$$CBIUanimation_info@c_animation_system@@@std@@PAX@0@AAPAU10@$$QA$$T@Z 10002d70 f i c_animation_system.obj
 0001:00001d70       ??$exchange@PAU?$_Tree_node@U?$pair@$$CBHH@std@@PAX@std@@$$T@std@@YAPAU?$_Tree_node@U?$pair@$$CBHH@std@@PAX@0@AAPAU10@$$QA$$T@Z 10002d70 f i c_prediction_.obj
 0001:00001d70       ??$exchange@PAU?$_List_node@U?$pair@$$CBIU?$pair@HH@std@@@std@@PAX@std@@PAU12@@std@@YAPAU?$_List_node@U?$pair@$$CBIU?$pair@HH@std@@@std@@PAX@0@AAPAU10@$$QAPAU10@@Z 10002d70 f i c_esp.obj
 0001:00001d90       ??$use_facet@V?$codecvt@DDU_Mbstatet@@@std@@@std@@YAABV?$codecvt@DDU_Mbstatet@@@0@ABVlocale@0@@Z 10002d90 f i dll.obj
 0001:00001eb0       ??0?$_List_unchecked_const_iterator@V?$_List_val@U?$_List_simple_types@U?$pair@$$CBIU?$pair@HH@std@@@std@@@std@@@std@@U_Iterator_base0@2@@std@@QAE@PAU?$_List_node@U?$pair@$$CBIU?$pair@HH@std@@@std@@PAX@1@PBV?$_List_val@U?$_List_simple_types@U?$pair@$$CBIU?$pair@HH@std@@@std@@@std@@@1@@Z 10002eb0 f i c_esp.obj
 0001:00001eb0       ??0?$_List_unchecked_const_iterator@V?$_List_val@U?$_List_simple_types@U?$pair@$$CBIVc_font@@@std@@@std@@@std@@U_Iterator_base0@2@@std@@QAE@PAU?$_List_node@U?$pair@$$CBIVc_font@@@std@@PAX@1@PBV?$_List_val@U?$_List_simple_types@U?$pair@$$CBIVc_font@@@std@@@std@@@1@@Z 10002eb0 f i c_renderer.obj
 0001:00001eb0       ??0?$_List_unchecked_const_iterator@V?$_List_val@U?$_List_simple_types@U?$pair@$$CBIUanimation_info@c_animation_system@@@std@@@std@@@std@@U_Iterator_base0@2@@std@@QAE@PAU?$_List_node@U?$pair@$$CBIUanimation_info@c_animation_system@@@std@@PAX@1@PBV?$_List_val@U?$_List_simple_types@U?$pair@$$CBIUanimation_info@c_animation_system@@@std@@@std@@@1@@Z 10002eb0 f i c_aimhelper.obj
 0001:00001eb0       ??0?$_Vector_const_iterator@V?$_Vector_val@U?$_Simple_types@V?$basic_json@Vmap@std@@Vvector@2@V?$basic_string@DU?$char_traits@D@std@@V?$allocator@D@2@@2@_N_J_KNVallocator@2@Uadl_serializer@nlohmann@@@nlohmann@@@std@@@std@@@std@@QAE@PAV?$basic_json@Vmap@std@@Vvector@2@V?$basic_string@DU?$char_traits@D@std@@V?$allocator@D@2@@2@_N_J_KNVallocator@2@Uadl_serializer@nlohmann@@@nlohmann@@PBU_Container_base0@1@@Z 10002eb0 f i c_conf.obj
 0001:00001eb0       ??0?$_Tree_unchecked_const_iterator@V?$_Tree_val@U?$_Tree_simple_types@U?$pair@$$CBV?$basic_string@DU?$char_traits@D@std@@V?$allocator@D@2@@std@@V?$basic_json@Vmap@std@@Vvector@2@V?$basic_string@DU?$char_traits@D@std@@V?$allocator@D@2@@2@_N_J_KNVallocator@2@Uadl_serializer@nlohmann@@@nlohmann@@@std@@@std@@@std@@U_Iterator_base0@2@@std@@QAE@PAU?$_Tree_node@U?$pair@$$CBV?$basic_string@DU?$char_traits@D@std@@V?$allocator@D@2@@std@@V?$basic_json@Vmap@std@@Vvector@2@V?$basic_string@DU?$char_traits@D@std@@V?$allocator@D@2@@2@_N_J_KNVallocator@2@Uadl_serializer@nlohmann@@@nlohmann@@@std@@PAX@1@PBV?$_Tree_val@U?$_Tree_simple_types@U?$pair@$$CBV?$basic_string@DU?$char_traits@D@std@@V?$allocator@D@2@@std@@V?$basic_json@Vmap@std@@Vvector@2@V?$basic_string@DU?$char_traits@D@std@@V?$allocator@D@2@@2@_N_J_KNVallocator@2@Uadl_serializer@nlohmann@@@nlohmann@@@std@@@std@@@1@@Z 10002eb0 f i c_conf.obj
 0001:00001eb0       ??0?$_Tree_unchecked_const_iterator@V?$_Tree_val@U?$_Tree_simple_types@U?$pair@$$CBHH@std@@@std@@@std@@U_Iterator_base0@2@@std@@QAE@PAU?$_Tree_node@U?$pair@$$CBHH@std@@PAX@1@PBV?$_Tree_val@U?$_Tree_simple_types@U?$pair@$$CBHH@std@@@std@@@1@@Z 10002eb0 f i c_prediction_.obj
 0001:00001eb0       ??0?$_Vector_const_iterator@V?$_Vector_val@U?$_Simple_types@H@std@@@std@@@std@@QAE@PAHPBU_Container_base0@1@@Z 10002eb0 f i c_client_state_.obj
 0001:00001eb0       ??0?$_List_unchecked_const_iterator@V?$_List_val@U?$_List_simple_types@U?$pair@$$CBIV?$unordered_map@IUnetvar@c_netvar@@U?$hash@I@std@@U?$equal_to@I@4@V?$allocator@U?$pair@$$CBIUnetvar@c_netvar@@@std@@@4@@std@@@std@@@std@@@std@@U_Iterator_base0@2@@std@@QAE@PAU?$_List_node@U?$pair@$$CBIV?$unordered_map@IUnetvar@c_netvar@@U?$hash@I@std@@U?$equal_to@I@4@V?$allocator@U?$pair@$$CBIUnetvar@c_netvar@@@std@@@4@@std@@@std@@PAX@1@PBV?$_List_val@U?$_List_simple_types@U?$pair@$$CBIV?$unordered_map@IUnetvar@c_netvar@@U?$hash@I@std@@U?$equal_to@I@4@V?$allocator@U?$pair@$$CBIUnetvar@c_netvar@@@std@@@4@@std@@@std@@@std@@@1@@Z 10002eb0 f i c_aimhelper.obj
 0001:00001eb0       ??0?$_List_unchecked_const_iterator@V?$_List_val@U?$_List_simple_types@U?$pair@QAVc_hotkey_select@@V?$function@$$A6AXI@Z@std@@@std@@@std@@@std@@U_Iterator_base0@2@@std@@QAE@PAU?$_List_node@U?$pair@QAVc_hotkey_select@@V?$function@$$A6AXI@Z@std@@@std@@PAX@1@PBV?$_List_val@U?$_List_simple_types@U?$pair@QAVc_hotkey_select@@V?$function@$$A6AXI@Z@std@@@std@@@std@@@1@@Z 10002eb0 f i c_hotkeys.obj
 0001:00001eb0       ??0?$_Vector_const_iterator@V?$_Vector_val@U?$_Simple_types@Uimpact_info@@@std@@@std@@@std@@QAE@PAUimpact_info@@PBU_Container_base0@1@@Z 10002eb0 f i c_hitmarker.obj
 0001:00001eb0       ??0?$_Vector_const_iterator@V?$_Vector_val@U?$_Simple_types@Uhitmarker_info@@@std@@@std@@@std@@QAE@PAUhitmarker_info@@PBU_Container_base0@1@@Z 10002eb0 f i c_hitmarker.obj
 0001:00001eb0       ??0?$_Vector_const_iterator@V?$_Vector_val@U?$_Simple_types@U?$pair@PAVc_cs_player@@M@std@@@std@@@std@@@std@@QAE@PAU?$pair@PAVc_cs_player@@M@1@PBU_Container_base0@1@@Z 10002eb0 f i c_chams.obj
 0001:00001eb0       ??0?$_Vector_const_iterator@V?$_Vector_val@U?$_Simple_types@U?$pair@V?$shared_ptr@Vc_drawable@@@std@@U?$pair@Vc_vector2d@@V1@@2@@std@@@std@@@std@@@std@@QAE@PAU?$pair@V?$shared_ptr@Vc_drawable@@@std@@U?$pair@Vc_vector2d@@V1@@2@@1@PBU_Container_base0@1@@Z 10002eb0 f i c_flow_layout.obj
 0001:00001eb0       ??0?$_String_const_iterator@V?$_String_val@U?$_Simple_types@D@std@@@std@@@std@@QAE@PBDPBU_Container_base0@1@@Z 10002eb0 f i dll.obj
 0001:00001eb0       ??0?$_List_unchecked_const_iterator@V?$_List_val@U?$_List_simple_types@U?$pair@$$CBIUnetvar@c_netvar@@@std@@@std@@@std@@U_Iterator_base0@2@@std@@QAE@PAU?$_List_node@U?$pair@$$CBIUnetvar@c_netvar@@@std@@PAX@1@PBV?$_List_val@U?$_List_simple_types@U?$pair@$$CBIUnetvar@c_netvar@@@std@@@std@@@1@@Z 10002eb0 f i c_aimhelper.obj
 0001:00001ee0       ??0?$_List_unchecked_iterator@V?$_List_val@U?$_List_simple_types@U?$pair@$$CBIV?$unordered_map@IUnetvar@c_netvar@@U?$hash@I@std@@U?$equal_to@I@4@V?$allocator@U?$pair@$$CBIUnetvar@c_netvar@@@std@@@4@@std@@@std@@@std@@@std@@@std@@QAE@PAU?$_List_node@U?$pair@$$CBIV?$unordered_map@IUnetvar@c_netvar@@U?$hash@I@std@@U?$equal_to@I@4@V?$allocator@U?$pair@$$CBIUnetvar@c_netvar@@@std@@@4@@std@@@std@@PAX@1@PBV?$_List_val@U?$_List_simple_types@U?$pair@$$CBIV?$unordered_map@IUnetvar@c_netvar@@U?$hash@I@std@@U?$equal_to@I@4@V?$allocator@U?$pair@$$CBIUnetvar@c_netvar@@@std@@@4@@std@@@std@@@std@@@1@@Z 10002ee0 f i c_aimhelper.obj
 0001:00001ee0       ??0?$_List_const_iterator@V?$_List_val@U?$_List_simple_types@U?$pair@$$CBIVc_font@@@std@@@std@@@std@@@std@@QAE@PAU?$_List_node@U?$pair@$$CBIVc_font@@@std@@PAX@1@PBV?$_List_val@U?$_List_simple_types@U?$pair@$$CBIVc_font@@@std@@@std@@@1@@Z 10002ee0 f i c_renderer.obj
 0001:00001ee0       ??0?$_Tree_const_iterator@V?$_Tree_val@U?$_Tree_simple_types@U?$pair@$$CBV?$basic_string@DU?$char_traits@D@std@@V?$allocator@D@2@@std@@V?$basic_json@Vmap@std@@Vvector@2@V?$basic_string@DU?$char_traits@D@std@@V?$allocator@D@2@@2@_N_J_KNVallocator@2@Uadl_serializer@nlohmann@@@nlohmann@@@std@@@std@@@std@@@std@@QAE@PAU?$_Tree_node@U?$pair@$$CBV?$basic_string@DU?$char_traits@D@std@@V?$allocator@D@2@@std@@V?$basic_json@Vmap@std@@Vvector@2@V?$basic_string@DU?$char_traits@D@std@@V?$allocator@D@2@@2@_N_J_KNVallocator@2@Uadl_serializer@nlohmann@@@nlohmann@@@std@@PAX@1@PBV?$_Tree_val@U?$_Tree_simple_types@U?$pair@$$CBV?$basic_string@DU?$char_traits@D@std@@V?$allocator@D@2@@std@@V?$basic_json@Vmap@std@@Vvector@2@V?$basic_string@DU?$char_traits@D@std@@V?$allocator@D@2@@2@_N_J_KNVallocator@2@Uadl_serializer@nlohmann@@@nlohmann@@@std@@@std@@@1@@Z 10002ee0 f i c_conf.obj
 0001:00001ee0       ??0?$_Vector_iterator@V?$_Vector_val@U?$_Simple_types@Uhitmarker_info@@@std@@@std@@@std@@QAE@PAUhitmarker_info@@PBU_Container_base0@1@@Z 10002ee0 f i c_hitmarker.obj
 0001:00001ee0       ??0?$_List_unchecked_iterator@V?$_List_val@U?$_List_simple_types@U?$pair@$$CBIUnetvar@c_netvar@@@std@@@std@@@std@@@std@@QAE@PAU?$_List_node@U?$pair@$$CBIUnetvar@c_netvar@@@std@@PAX@1@PBV?$_List_val@U?$_List_simple_types@U?$pair@$$CBIUnetvar@c_netvar@@@std@@@std@@@1@@Z 10002ee0 f i c_aimhelper.obj
 0001:00001ee0       ??0?$_String_iterator@V?$_String_val@U?$_Simple_types@D@std@@@std@@@std@@QAE@PADPBU_Container_base0@1@@Z 10002ee0 f i dll.obj
 0001:00001ee0       ??0?$_List_unchecked_iterator@V?$_List_val@U?$_List_simple_types@U?$pair@$$CBIUanimation_info@c_animation_system@@@std@@@std@@@std@@@std@@QAE@PAU?$_List_node@U?$pair@$$CBIUanimation_info@c_animation_system@@@std@@PAX@1@PBV?$_List_val@U?$_List_simple_types@U?$pair@$$CBIUanimation_info@c_animation_system@@@std@@@std@@@1@@Z 10002ee0 f i c_aimhelper.obj
 0001:00001ee0       ??0?$_Vector_iterator@V?$_Vector_val@U?$_Simple_types@U?$pair@PAVc_cs_player@@M@std@@@std@@@std@@@std@@QAE@PAU?$pair@PAVc_cs_player@@M@1@PBU_Container_base0@1@@Z 10002ee0 f i c_chams.obj
 0001:00001ee0       ??0?$_List_unchecked_iterator@V?$_List_val@U?$_List_simple_types@U?$pair@$$CBIVc_font@@@std@@@std@@@std@@@std@@QAE@PAU?$_List_node@U?$pair@$$CBIVc_font@@@std@@PAX@1@PBV?$_List_val@U?$_List_simple_types@U?$pair@$$CBIVc_font@@@std@@@std@@@1@@Z 10002ee0 f i c_renderer.obj
 0001:00001ee0       ??0?$_List_const_iterator@V?$_List_val@U?$_List_simple_types@U?$pair@$$CBIU?$pair@HH@std@@@std@@@std@@@std@@@std@@QAE@PAU?$_List_node@U?$pair@$$CBIU?$pair@HH@std@@@std@@PAX@1@PBV?$_List_val@U?$_List_simple_types@U?$pair@$$CBIU?$pair@HH@std@@@std@@@std@@@1@@Z 10002ee0 f i c_esp.obj
 0001:00001ee0       ??0?$_Vector_iterator@V?$_Vector_val@U?$_Simple_types@V?$basic_json@Vmap@std@@Vvector@2@V?$basic_string@DU?$char_traits@D@std@@V?$allocator@D@2@@2@_N_J_KNVallocator@2@Uadl_serializer@nlohmann@@@nlohmann@@@std@@@std@@@std@@QAE@PAV?$basic_json@Vmap@std@@Vvector@2@V?$basic_string@DU?$char_traits@D@std@@V?$allocator@D@2@@2@_N_J_KNVallocator@2@Uadl_serializer@nlohmann@@@nlohmann@@PBU_Container_base0@1@@Z 10002ee0 f i c_conf.obj
 0001:00001ee0       ??0?$_Vector_iterator@V?$_Vector_val@U?$_Simple_types@H@std@@@std@@@std@@QAE@PAHPBU_Container_base0@1@@Z 10002ee0 f i c_client_state_.obj
 0001:00001ee0       ??0?$_Tree_const_iterator@V?$_Tree_val@U?$_Tree_simple_types@U?$pair@$$CBHH@std@@@std@@@std@@@std@@QAE@PAU?$_Tree_node@U?$pair@$$CBHH@std@@PAX@1@PBV?$_Tree_val@U?$_Tree_simple_types@U?$pair@$$CBHH@std@@@std@@@1@@Z 10002ee0 f i c_prediction_.obj
 0001:00001ee0       ??0?$_List_const_iterator@V?$_List_val@U?$_List_simple_types@U?$pair@QAVc_hotkey_select@@V?$function@$$A6AXI@Z@std@@@std@@@std@@@std@@@std@@QAE@PAU?$_List_node@U?$pair@QAVc_hotkey_select@@V?$function@$$A6AXI@Z@std@@@std@@PAX@1@PBV?$_List_val@U?$_List_simple_types@U?$pair@QAVc_hotkey_select@@V?$function@$$A6AXI@Z@std@@@std@@@std@@@1@@Z 10002ee0 f i c_hotkeys.obj
 0001:00001ee0       ??0?$_Tree_unchecked_iterator@V?$_Tree_val@U?$_Tree_simple_types@U?$pair@$$CBHH@std@@@std@@@std@@@std@@QAE@PAU?$_Tree_node@U?$pair@$$CBHH@std@@PAX@1@PBV?$_Tree_val@U?$_Tree_simple_types@U?$pair@$$CBHH@std@@@std@@@1@@Z 10002ee0 f i c_prediction_.obj
 0001:00001ee0       ??0?$_List_unchecked_iterator@V?$_List_val@U?$_List_simple_types@U?$pair@$$CBIU?$pair@HH@std@@@std@@@std@@@std@@@std@@QAE@PAU?$_List_node@U?$pair@$$CBIU?$pair@HH@std@@@std@@PAX@1@PBV?$_List_val@U?$_List_simple_types@U?$pair@$$CBIU?$pair@HH@std@@@std@@@std@@@1@@Z 10002ee0 f i c_esp.obj
 0001:00001ee0       ??0?$_List_unchecked_iterator@V?$_List_val@U?$_List_simple_types@U?$pair@QAVc_hotkey_select@@V?$function@$$A6AXI@Z@std@@@std@@@std@@@std@@@std@@QAE@PAU?$_List_node@U?$pair@QAVc_hotkey_select@@V?$function@$$A6AXI@Z@std@@@std@@PAX@1@PBV?$_List_val@U?$_List_simple_types@U?$pair@QAVc_hotkey_select@@V?$function@$$A6AXI@Z@std@@@std@@@std@@@1@@Z 10002ee0 f i c_hotkeys.obj
 0001:00001ee0       ??0?$_Tree_unchecked_iterator@V?$_Tree_val@U?$_Tree_simple_types@U?$pair@$$CBV?$basic_string@DU?$char_traits@D@std@@V?$allocator@D@2@@std@@V?$basic_json@Vmap@std@@Vvector@2@V?$basic_string@DU?$char_traits@D@std@@V?$allocator@D@2@@2@_N_J_KNVallocator@2@Uadl_serializer@nlohmann@@@nlohmann@@@std@@@std@@@std@@@std@@QAE@PAU?$_Tree_node@U?$pair@$$CBV?$basic_string@DU?$char_traits@D@std@@V?$allocator@D@2@@std@@V?$basic_json@Vmap@std@@Vvector@2@V?$basic_string@DU?$char_traits@D@std@@V?$allocator@D@2@@2@_N_J_KNVallocator@2@Uadl_serializer@nlohmann@@@nlohmann@@@std@@PAX@1@PBV?$_Tree_val@U?$_Tree_simple_types@U?$pair@$$CBV?$basic_string@DU?$char_traits@D@std@@V?$allocator@D@2@@std@@V?$basic_json@Vmap@std@@Vvector@2@V?$basic_string@DU?$char_traits@D@std@@V?$allocator@D@2@@2@_N_J_KNVallocator@2@Uadl_serializer@nlohmann@@@nlohmann@@@std@@@std@@@1@@Z 10002ee0 f i c_conf.obj
 0001:00001ee0       ??0?$_List_const_iterator@V?$_List_val@U?$_List_simple_types@U?$pair@$$CBIV?$unordered_map@IUnetvar@c_netvar@@U?$hash@I@std@@U?$equal_to@I@4@V?$allocator@U?$pair@$$CBIUnetvar@c_netvar@@@std@@@4@@std@@@std@@@std@@@std@@@std@@QAE@PAU?$_List_node@U?$pair@$$CBIV?$unordered_map@IUnetvar@c_netvar@@U?$hash@I@std@@U?$equal_to@I@4@V?$allocator@U?$pair@$$CBIUnetvar@c_netvar@@@std@@@4@@std@@@std@@PAX@1@PBV?$_List_val@U?$_List_simple_types@U?$pair@$$CBIV?$unordered_map@IUnetvar@c_netvar@@U?$hash@I@std@@U?$equal_to@I@4@V?$allocator@U?$pair@$$CBIUnetvar@c_netvar@@@std@@@4@@std@@@std@@@std@@@1@@Z 10002ee0 f i c_aimhelper.obj
 0001:00001ee0       ??0?$_Vector_iterator@V?$_Vector_val@U?$_Simple_types@Uimpact_info@@@std@@@std@@@std@@QAE@PAUimpact_info@@PBU_Container_base0@1@@Z 10002ee0 f i c_hitmarker.obj
 0001:00001ee0       ??0?$_List_const_iterator@V?$_List_val@U?$_List_simple_types@U?$pair@$$CBIUnetvar@c_netvar@@@std@@@std@@@std@@@std@@QAE@PAU?$_List_node@U?$pair@$$CBIUnetvar@c_netvar@@@std@@PAX@1@PBV?$_List_val@U?$_List_simple_types@U?$pair@$$CBIUnetvar@c_netvar@@@std@@@std@@@1@@Z 10002ee0 f i c_aimhelper.obj
 0001:00001ee0       ??0?$_List_const_iterator@V?$_List_val@U?$_List_simple_types@U?$pair@$$CBIUanimation_info@c_animation_system@@@std@@@std@@@std@@@std@@QAE@PAU?$_List_node@U?$pair@$$CBIUanimation_info@c_animation_system@@@std@@PAX@1@PBV?$_List_val@U?$_List_simple_types@U?$pair@$$CBIUanimation_info@c_animation_system@@@std@@@std@@@1@@Z 10002ee0 f i c_animation_system.obj
 0001:00001ee0       ??0?$_Vector_iterator@V?$_Vector_val@U?$_Simple_types@U?$pair@V?$shared_ptr@Vc_drawable@@@std@@U?$pair@Vc_vector2d@@V1@@2@@std@@@std@@@std@@@std@@QAE@PAU?$pair@V?$shared_ptr@Vc_drawable@@@std@@U?$pair@Vc_vector2d@@V1@@2@@1@PBU_Container_base0@1@@Z 10002ee0 f i c_flow_layout.obj
 0001:00001f00       ??0?$_String_val@U?$_Simple_types@_W@std@@@std@@QAE@XZ 10002f00 f i c_miscellaneous.obj
 0001:00001f00       ??0?$_String_val@U?$_Simple_types@D@std@@@std@@QAE@XZ 10002f00 f i dll.obj
 0001:00001f30       ?_Get_data@?$deque@Ushot@resolver@@V?$allocator@Ushot@resolver@@@std@@@std@@AAEAAV?$_Deque_val@U?$_Deque_simple_types@Ushot@resolver@@@std@@@2@XZ 10002f30 f i c_animation_system.obj
 0001:00001f30       ?_Get_first@?$_Compressed_pair@V?$allocator@H@std@@V?$_Vector_val@U?$_Simple_types@H@std@@@2@$00@std@@QBEABV?$allocator@H@2@XZ 10002f30 f i c_aimhelper.obj
 0001:00001f30       ?_Get_first@?$_Compressed_pair@V?$allocator@Vc_vector3d@@@std@@V?$_Vector_val@U?$_Simple_types@Vc_vector3d@@@std@@@2@$00@std@@QAEAAV?$allocator@Vc_vector3d@@@2@XZ 10002f30 f i c_damage_esp.obj
 0001:00001f30       ?_Get_first@?$_Compressed_pair@V?$allocator@V?$function@$$A6AXXZ@std@@@std@@V?$_Vector_val@U?$_Simple_types@V?$function@$$A6AXXZ@std@@@std@@@2@$00@std@@QBEABV?$allocator@V?$function@$$A6AXXZ@std@@@2@XZ 10002f30 f i c_renderer.obj
 0001:00001f30       ?_Get_first@?$_Compressed_pair@V?$allocator@Uanimation@c_animation_system@@@std@@V?$_Deque_val@U?$_Deque_simple_types@Uanimation@c_animation_system@@@std@@@2@$00@std@@QBEABV?$allocator@Uanimation@c_animation_system@@@2@XZ 10002f30 f i c_animation_system.obj
 0001:00001f30       ?_Get@?$_Optional_construct_base@Uwall_pen@c_trace_system@@@std@@QGBEABUwall_pen@c_trace_system@@XZ 10002f30 f i c_aimhelper.obj
 0001:00001f30       ??0?$allocator@U?$pair@$$CBIU?$pair@HH@std@@@std@@@std@@QAE@XZ 10002f30 f i c_esp.obj
 0001:00001f30       ?_Get@?$_Optional_construct_base@Uaim_info@c_aimhelper@@@std@@QGAEAAUaim_info@c_aimhelper@@XZ 10002f30 f i c_ragebot.obj
 0001:00001f30       ?_Get_first@?$_Compressed_pair@V?$allocator@U?$_Tree_node@U?$pair@$$CBV?$basic_string@DU?$char_traits@D@std@@V?$allocator@D@2@@std@@V?$basic_json@Vmap@std@@Vvector@2@V?$basic_string@DU?$char_traits@D@std@@V?$allocator@D@2@@2@_N_J_KNVallocator@2@Uadl_serializer@nlohmann@@@nlohmann@@@std@@PAX@std@@@std@@V?$_Tree_val@U?$_Tree_simple_types@U?$pair@$$CBV?$basic_string@DU?$char_traits@D@std@@V?$allocator@D@2@@std@@V?$basic_json@Vmap@std@@Vvector@2@V?$basic_string@DU?$char_traits@D@std@@V?$allocator@D@2@@2@_N_J_KNVallocator@2@Uadl_serializer@nlohmann@@@nlohmann@@@std@@@std@@@2@$00@std@@QBEABV?$allocator@U?$_Tree_node@U?$pair@$$CBV?$basic_string@DU?$char_traits@D@std@@V?$allocator@D@2@@std@@V?$basic_json@Vmap@std@@Vvector@2@V?$basic_string@DU?$char_traits@D@std@@V?$allocator@D@2@@2@_N_J_KNVallocator@2@Uadl_serializer@nlohmann@@@nlohmann@@@std@@PAX@std@@@2@XZ 10002f30 f i c_conf.obj
 0001:00001f30       ?_Get_first@?$_Compressed_pair@V?$allocator@Unade_info@c_esp@@@std@@V?$_Vector_val@U?$_Simple_types@Unade_info@c_esp@@@std@@@2@$00@std@@QAEAAV?$allocator@Unade_info@c_esp@@@2@XZ 10002f30 f i c_damage_esp.obj
 0001:00001f30       ?_Getspace@?$_Func_class@X$$V@std@@AAEPAXXZ 10002f30 f i c_ragebot.obj
 0001:00001f30       ??0_Bxty@?$_String_val@U?$_Simple_types@D@std@@@std@@QAE@XZ 10002f30 f i dll.obj
 0001:00001f30       ?_Get_first@?$_Compressed_pair@V?$allocator@U?$_List_node@U?$pair@$$CBIVc_font@@@std@@PAX@std@@@std@@V?$_List_val@U?$_List_simple_types@U?$pair@$$CBIVc_font@@@std@@@std@@@2@$00@std@@QBEABV?$allocator@U?$_List_node@U?$pair@$$CBIVc_font@@@std@@PAX@std@@@2@XZ 10002f30 f i c_renderer.obj
 0001:00001f30       ?_Get_first@?$_Compressed_pair@V?$allocator@U?$_List_node@U?$pair@$$CBIUnetvar@c_netvar@@@std@@PAX@std@@@std@@V?$_List_val@U?$_List_simple_types@U?$pair@$$CBIUnetvar@c_netvar@@@std@@@std@@@2@$00@std@@QAEAAV?$allocator@U?$_List_node@U?$pair@$$CBIUnetvar@c_netvar@@@std@@PAX@std@@@2@XZ 10002f30 f i dllmain.obj
 0001:00001f30       ?_Get_first@?$_Compressed_pair@V?$allocator@Ushot@resolver@@@std@@V?$_Deque_val@U?$_Deque_simple_types@Ushot@resolver@@@std@@@2@$00@std@@QAEAAV?$allocator@Ushot@resolver@@@2@XZ 10002f30 f i c_animation_system.obj
 0001:00001f30       ?data@?$array@D$0EA@@std@@QAEPADXZ 10002f30 f i c_conf.obj
 0001:00001f30       ?_Get_first@?$_Compressed_pair@V?$allocator@Uplayer_info@c_esp@@@std@@V?$_Vector_val@U?$_Simple_types@Uplayer_info@c_esp@@@std@@@2@$00@std@@QAEAAV?$allocator@Uplayer_info@c_esp@@@2@XZ 10002f30 f i c_damage_esp.obj
 0001:00001f30       ?_Get_first@?$_Compressed_pair@V?$allocator@V?$function@$$A6AXI@Z@std@@@std@@V?$_Vector_val@U?$_Simple_types@V?$function@$$A6AXI@Z@std@@@std@@@2@$00@std@@QBEABV?$allocator@V?$function@$$A6AXI@Z@std@@@2@XZ 10002f30 f i c_hotkeys.obj
 0001:00001f30       ?_Get_first@?$_Compressed_pair@V?$allocator@V?$_List_unchecked_iterator@V?$_List_val@U?$_List_simple_types@U?$pair@QAVc_hotkey_select@@V?$function@$$A6AXI@Z@std@@@std@@@std@@@std@@@std@@@std@@V?$_Vector_val@U?$_Simple_types@V?$_List_unchecked_iterator@V?$_List_val@U?$_List_simple_types@U?$pair@QAVc_hotkey_select@@V?$function@$$A6AXI@Z@std@@@std@@@std@@@std@@@std@@@std@@@2@$00@std@@QAEAAV?$allocator@V?$_List_unchecked_iterator@V?$_List_val@U?$_List_simple_types@U?$pair@QAVc_hotkey_select@@V?$function@$$A6AXI@Z@std@@@std@@@std@@@std@@@std@@@2@XZ 10002f30 f i c_fake_ping.obj
 0001:00001f30       ?_Get_first@?$_Compressed_pair@U?$less@X@std@@V?$_Compressed_pair@V?$allocator@U?$_Tree_node@U?$pair@$$CBV?$basic_string@DU?$char_traits@D@std@@V?$allocator@D@2@@std@@V?$basic_json@Vmap@std@@Vvector@2@V?$basic_string@DU?$char_traits@D@std@@V?$allocator@D@2@@2@_N_J_KNVallocator@2@Uadl_serializer@nlohmann@@@nlohmann@@@std@@PAX@std@@@std@@V?$_Tree_val@U?$_Tree_simple_types@U?$pair@$$CBV?$basic_string@DU?$char_traits@D@std@@V?$allocator@D@2@@std@@V?$basic_json@Vmap@std@@Vvector@2@V?$basic_string@DU?$char_traits@D@std@@V?$allocator@D@2@@2@_N_J_KNVallocator@2@Uadl_serializer@nlohmann@@@nlohmann@@@std@@@std@@@2@$00@2@$00@std@@QAEAAU?$less@X@2@XZ 10002f30 f i c_conf.obj
 0001:00001f30       ??0?$allocator@PAUanimation@c_animation_system@@@std@@QAE@XZ 10002f30 f i c_aimhelper.obj
 0001:00001f30       ?_Get_first@?$_Compressed_pair@V<lambda_1>@?1???$create@V?$map@V?$basic_string@DU?$char_traits@D@std@@V?$allocator@D@2@@std@@V?$basic_json@Vmap@std@@Vvector@2@V?$basic_string@DU?$char_traits@D@std@@V?$allocator@D@2@@2@_N_J_KNVallocator@2@Uadl_serializer@nlohmann@@@nlohmann@@U?$less@X@2@V?$allocator@U?$pair@$$CBV?$basic_string@DU?$char_traits@D@std@@V?$allocator@D@2@@std@@V?$basic_json@Vmap@std@@Vvector@2@V?$basic_string@DU?$char_traits@D@std@@V?$allocator@D@2@@2@_N_J_KNVallocator@2@Uadl_serializer@nlohmann@@@nlohmann@@@std@@@2@@std@@ABV12@@?$basic_json@Vmap@std@@Vvector@2@V?$basic_string@DU?$char_traits@D@std@@V?$allocator@D@2@@2@_N_J_KNVallocator@2@Uadl_serializer@nlohmann@@@nlohmann@@CAPAV?$map@V?$basic_string@DU?$char_traits@D@std@@V?$allocator@D@2@@std@@V?$basic_json@Vmap@std@@Vvector@2@V?$basic_string@DU?$char_traits@D@std@@V?$allocator@D@2@@2@_N_J_KNVallocator@2@Uadl_serializer@nlohmann@@@nlohmann@@U?$less@X@2@V?$allocator@U?$pair@$$CBV?$basic_string@DU?$char_traits@D@std@@V?$allocator@D@2@@std@@V?$basic_json@Vmap@std@@Vvector@2@V?$basic_string@DU?$char_traits@D@std@@V?$allocator@D@2@@2@_N_J_KNVallocator@2@Uadl_serializer@nlohmann@@@nlohmann@@@std@@@2@@std@@ABV45@@Z@PAV45@$0A@@std@@QAEAAV<lambda_1>@?1???$create@V?$map@V?$basic_string@DU?$char_traits@D@std@@V?$allocator@D@2@@std@@V?$basic_json@Vmap@std@@Vvector@2@V?$basic_string@DU?$char_traits@D@std@@V?$allocator@D@2@@2@_N_J_KNVallocator@2@Uadl_serializer@nlohmann@@@nlohmann@@U?$less@X@2@V?$allocator@U?$pair@$$CBV?$basic_string@DU?$char_traits@D@std@@V?$allocator@D@2@@std@@V?$basic_json@Vmap@std@@Vvector@2@V?$basic_string@DU?$char_traits@D@std@@V?$allocator@D@2@@2@_N_J_KNVallocator@2@Uadl_serializer@nlohmann@@@nlohmann@@@std@@@2@@std@@ABV12@@?$basic_json@Vmap@std@@Vvector@2@V?$basic_string@DU?$char_traits@D@std@@V?$allocator@D@2@@2@_N_J_KNVallocator@2@Uadl_serializer@nlohmann@@@nlohmann@@CAPAV?$map@V?$basic_string@DU?$char_traits@D@std@@V?$allocator@D@2@@std@@V?$basic_json@Vmap@std@@Vvector@2@V?$basic_string@DU?$char_traits@D@std@@V?$allocator@D@2@@2@_N_J_KNVallocator@2@Uadl_serializer@nlohmann@@@nlohmann@@U?$less@X@2@V?$allocator@U?$pair@$$CBV?$basic_string@DU?$char_traits@D@std@@V?$allocator@D@2@@std@@V?$basic_json@Vmap@std@@Vvector@2@V?$basic_string@DU?$char_traits@D@std@@V?$allocator@D@2@@2@_N_J_KNVallocator@2@Uadl_serializer@nlohmann@@@nlohmann@@@std@@@2@@2@ABV62@@Z@XZ 10002f30 f i c_conf.obj
 0001:00001f30       ?_Get_data@?$deque@Uanimation@c_animation_system@@V?$allocator@Uanimation@c_animation_system@@@std@@@std@@ABEABV?$_Deque_val@U?$_Deque_simple_types@Uanimation@c_animation_system@@@std@@@2@XZ 10002f30 f i c_aimhelper.obj
 0001:00001f30       ??0random_device@std@@QAE@XZ 10002f30 f i c_antiaim.obj
 0001:00001f30       ??0?$tuple@$$V@std@@QAE@XZ 10002f30 f i c_aimhelper.obj
 0001:00001f30       ?_Get_first@?$_Compressed_pair@V?$allocator@D@std@@V?$_String_val@U?$_Simple_types@D@std@@@2@$00@std@@QAEAAV?$allocator@D@2@XZ 10002f30 f i dll.obj
 0001:00001f30       ?_Get_rest@?$tuple@Vc_vector3d@@PAUanimation@c_animation_system@@M@std@@QAEAAV?$tuple@PAUanimation@c_animation_system@@M@2@XZ 10002f30 f i c_aimhelper.obj
 0001:00001f30       ?_Get_first@?$_Compressed_pair@V<lambda_1>@?1???$create@V?$vector@V?$basic_json@Vmap@std@@Vvector@2@V?$basic_string@DU?$char_traits@D@std@@V?$allocator@D@2@@2@_N_J_KNVallocator@2@Uadl_serializer@nlohmann@@@nlohmann@@V?$allocator@V?$basic_json@Vmap@std@@Vvector@2@V?$basic_string@DU?$char_traits@D@std@@V?$allocator@D@2@@2@_N_J_KNVallocator@2@Uadl_serializer@nlohmann@@@nlohmann@@@std@@@std@@PBV?$json_ref@V?$basic_json@Vmap@std@@Vvector@2@V?$basic_string@DU?$char_traits@D@std@@V?$allocator@D@2@@2@_N_J_KNVallocator@2@Uadl_serializer@nlohmann@@@nlohmann@@@detail@nlohmann@@PBV345@@?$basic_json@Vmap@std@@Vvector@2@V?$basic_string@DU?$char_traits@D@std@@V?$allocator@D@2@@2@_N_J_KNVallocator@2@Uadl_serializer@nlohmann@@@nlohmann@@CAPAV?$vector@V?$basic_json@Vmap@std@@Vvector@2@V?$basic_string@DU?$char_traits@D@std@@V?$allocator@D@2@@2@_N_J_KNVallocator@2@Uadl_serializer@nlohmann@@@nlohmann@@V?$allocator@V?$basic_json@Vmap@std@@Vvector@2@V?$basic_string@DU?$char_traits@D@std@@V?$allocator@D@2@@2@_N_J_KNVallocator@2@Uadl_serializer@nlohmann@@@nlohmann@@@std@@@std@@$$QAPBV?$json_ref@V?$basic_json@Vmap@std@@Vvector@2@V?$basic_string@DU?$char_traits@D@std@@V?$allocator@D@2@@2@_N_J_KNVallocator@2@Uadl_serializer@nlohmann@@@nlohmann@@@detail@3@0@Z@PAV45@$0A@@std@@QAEAAV<lambda_1>@?1???$create@V?$vector@V?$basic_json@Vmap@std@@Vvector@2@V?$basic_string@DU?$char_traits@D@std@@V?$allocator@D@2@@2@_N_J_KNVallocator@2@Uadl_serializer@nlohmann@@@nlohmann@@V?$allocator@V?$basic_json@Vmap@std@@Vvector@2@V?$basic_string@DU?$char_traits@D@std@@V?$allocator@D@2@@2@_N_J_KNVallocator@2@Uadl_serializer@nlohmann@@@nlohmann@@@std@@@std@@PBV?$json_ref@V?$basic_json@Vmap@std@@Vvector@2@V?$basic_string@DU?$char_traits@D@std@@V?$allocator@D@2@@2@_N_J_KNVallocator@2@Uadl_serializer@nlohmann@@@nlohmann@@@detail@nlohmann@@PBV345@@?$basic_json@Vmap@std@@Vvector@2@V?$basic_string@DU?$char_traits@D@std@@V?$allocator@D@2@@2@_N_J_KNVallocator@2@Uadl_serializer@nlohmann@@@nlohmann@@CAPAV?$vector@V?$basic_json@Vmap@std@@Vvector@2@V?$basic_string@DU?$char_traits@D@std@@V?$allocator@D@2@@2@_N_J_KNVallocator@2@Uadl_serializer@nlohmann@@@nlohmann@@V?$allocator@V?$basic_json@Vmap@std@@Vvector@2@V?$basic_string@DU?$char_traits@D@std@@V?$allocator@D@2@@2@_N_J_KNVallocator@2@Uadl_serializer@nlohmann@@@nlohmann@@@std@@@2@$$QAPBV?$json_ref@V?$basic_json@Vmap@std@@Vvector@2@V?$basic_string@DU?$char_traits@D@std@@V?$allocator@D@2@@2@_N_J_KNVallocator@2@Uadl_serializer@nlohmann@@@nlohmann@@@detail@5@0@Z@XZ 10002f30 f i c_conf.obj
 0001:00001f30       ?_Get_first@?$_Compressed_pair@V?$allocator@PAUanimation@c_animation_system@@@std@@V?$_Vector_val@U?$_Simple_types@PAUanimation@c_animation_system@@@std@@@2@$00@std@@QBEABV?$allocator@PAUanimation@c_animation_system@@@2@XZ 10002f30 f i c_aimhelper.obj
 0001:00001f30       ?_Get_data@?$list@U?$pair@$$CBIVc_font@@@std@@V?$allocator@U?$pair@$$CBIVc_font@@@std@@@2@@std@@AAEAAV?$_List_val@U?$_List_simple_types@U?$pair@$$CBIVc_font@@@std@@@std@@@2@XZ 10002f30 f i c_damage_esp.obj
 0001:00001f30       ?_Get_first@?$_Compressed_pair@U?$equal_to@I@std@@M$00@std@@QBEABU?$equal_to@I@2@XZ 10002f30 f i c_aimhelper.obj
 0001:00001f30       ?_Get_first@?$_Compressed_pair@V?$allocator@D@std@@V?$_String_val@U?$_Simple_types@D@std@@@2@$00@std@@QBEABV?$allocator@D@2@XZ 10002f30 f i dll.obj
 0001:00001f30       ?_Get_first@?$_Compressed_pair@V?$allocator@Vc_vector3d@@@std@@V?$_Vector_val@U?$_Simple_types@Vc_vector3d@@@std@@@2@$00@std@@QBEABV?$allocator@Vc_vector3d@@@2@XZ 10002f30 f i c_resolver.obj
 0001:00001f30       ?_Get_first@?$_Compressed_pair@V?$allocator@V?$basic_string@DU?$char_traits@D@std@@V?$allocator@D@2@@std@@@std@@V?$_Vector_val@U?$_Simple_types@V?$basic_string@DU?$char_traits@D@std@@V?$allocator@D@2@@std@@@std@@@2@$00@std@@QBEABV?$allocator@V?$basic_string@DU?$char_traits@D@std@@V?$allocator@D@2@@std@@@2@XZ 10002f30 f i c_miscellaneous.obj
 0001:00001f30       ?_Getspace@?$_Func_class@X$$V@std@@ABEPBXXZ 10002f30 f i c_damage_esp.obj
 0001:00001f30       ?_Get_data@?$basic_string@DU?$char_traits@D@std@@V?$allocator@D@2@@std@@ABEABV?$_String_val@U?$_Simple_types@D@std@@@2@XZ 10002f30 f i dll.obj
 0001:00001f30       ?_Get_rest@?$tuple@MPAUanimation@c_animation_system@@@std@@QAEAAV?$tuple@PAUanimation@c_animation_system@@@2@XZ 10002f30 f i c_legitbot.obj
 0001:00001f30       ??0?$allocator@V?$function@$$A6AXXZ@std@@@std@@QAE@XZ 10002f30 f i c_renderer.obj
 0001:00001f30       ?_Get@?$_Optional_construct_base@PAUanimation@c_animation_system@@@std@@QGBEABQAUanimation@c_animation_system@@XZ 10002f30 f i c_aimhelper.obj
 0001:00001f30       ?_Get_first@?$_Compressed_pair@V?$allocator@U?$pair@PAVc_cs_player@@M@std@@@std@@V?$_Vector_val@U?$_Simple_types@U?$pair@PAVc_cs_player@@M@std@@@std@@@2@$00@std@@QAEAAV?$allocator@U?$pair@PAVc_cs_player@@M@std@@@2@XZ 10002f30 f i c_chams.obj
 0001:00001f30       ?_Get_first@?$_Compressed_pair@V?$allocator@W4hitbox@c_cs_player@@@std@@V?$_Vector_val@U?$_Simple_types@W4hitbox@c_cs_player@@@std@@@2@$00@std@@QBEABV?$allocator@W4hitbox@c_cs_player@@@2@XZ 10002f30 f i c_ragebot.obj
 0001:00001f30       ?_Get@?$_Optional_construct_base@W4hitbox@c_cs_player@@@std@@QGAEAAW4hitbox@c_cs_player@@XZ 10002f30 f i c_aimhelper.obj
 0001:00001f30       ?_Get@?$_Optional_construct_base@PAVc_drawable@@@std@@QGBEABQAVc_drawable@@XZ 10002f30 f i c_menu.obj
 0001:00001f30       ?_Get_first@?$_Compressed_pair@V?$allocator@Uanimation@c_animation_system@@@std@@V?$_Deque_val@U?$_Deque_simple_types@Uanimation@c_animation_system@@@std@@@2@$00@std@@QAEAAV?$allocator@Uanimation@c_animation_system@@@2@XZ 10002f30 f i c_aimhelper.obj
 0001:00001f30       ?_Get_first@?$_Compressed_pair@V?$allocator@V?$vector@MV?$allocator@M@std@@@std@@@std@@V?$_Vector_val@U?$_Simple_types@V?$vector@MV?$allocator@M@std@@@std@@@std@@@2@$00@std@@QBEABV?$allocator@V?$vector@MV?$allocator@M@std@@@std@@@2@XZ 10002f30 f i c_font.obj
 0001:00001f30       ?_Get_first@?$_Compressed_pair@V?$allocator@Uhitmarker_info@@@std@@V?$_Vector_val@U?$_Simple_types@Uhitmarker_info@@@std@@@2@$00@std@@QBEABV?$allocator@Uhitmarker_info@@@2@XZ 10002f30 f i c_hitmarker.obj
 0001:00001f30       ?_Get_rest@?$tuple@Vc_vector3d@@MPAUanimation@c_animation_system@@@std@@QAEAAV?$tuple@MPAUanimation@c_animation_system@@@2@XZ 10002f30 f i c_legitbot.obj
 0001:00001f30       ??0?$allocator@U?$pair@$$CBIVc_font@@@std@@@std@@QAE@XZ 10002f30 f i c_renderer.obj
 0001:00001f30       ??0?$allocator@H@std@@QAE@XZ 10002f30 f i c_aimhelper.obj
 0001:00001f30       ?data@?$array@D$0CAA@@std@@QAEPADXZ 10002f30 f i c_conf.obj
 0001:00001f30       ?_Get_first@?$_Compressed_pair@U?$hash@I@std@@V?$_Compressed_pair@U?$equal_to@I@std@@M$00@2@$00@std@@QBEABU?$hash@I@2@XZ 10002f30 f i c_aimhelper.obj
 0001:00001f30       ?_Getspace@?$_Func_class@XPAVc_client_entity@@@std@@AAEPAXXZ 10002f30 f i c_esp.obj
 0001:00001f30       ?_Get_first@?$_Compressed_pair@U?$default_delete@V_Facet_base@std@@@std@@PAV_Facet_base@2@$00@std@@QAEAAU?$default_delete@V_Facet_base@std@@@2@XZ 10002f30 f i dll.obj
 0001:00001f30       ?_Get@?$_Optional_construct_base@Vc_vector3d@@@std@@QGAEAAVc_vector3d@@XZ 10002f30 f i c_aimhelper.obj
 0001:00001f30       ?_Get_data@?$list@U?$pair@$$CBIV?$unordered_map@IUnetvar@c_netvar@@U?$hash@I@std@@U?$equal_to@I@4@V?$allocator@U?$pair@$$CBIUnetvar@c_netvar@@@std@@@4@@std@@@std@@V?$allocator@U?$pair@$$CBIV?$unordered_map@IUnetvar@c_netvar@@U?$hash@I@std@@U?$equal_to@I@4@V?$allocator@U?$pair@$$CBIUnetvar@c_netvar@@@std@@@4@@std@@@std@@@2@@std@@ABEABV?$_List_val@U?$_List_simple_types@U?$pair@$$CBIV?$unordered_map@IUnetvar@c_netvar@@U?$hash@I@std@@U?$equal_to@I@4@V?$allocator@U?$pair@$$CBIUnetvar@c_netvar@@@std@@@4@@std@@@std@@@std@@@2@XZ 10002f30 f i c_aimhelper.obj
 0001:00001f30       ?_Get_first@?$_Compressed_pair@U?$hash@PAVc_hotkey_select@@@std@@V?$_Compressed_pair@U?$equal_to@PAVc_hotkey_select@@@std@@M$00@2@$00@std@@QBEABU?$hash@PAVc_hotkey_select@@@2@XZ 10002f30 f i c_hotkeys.obj
 0001:00001f30       ?_Get_data@?$deque@Uc_incoming_sequence@@V?$allocator@Uc_incoming_sequence@@@std@@@std@@AAEAAV?$_Deque_val@U?$_Deque_simple_types@Uc_incoming_sequence@@@std@@@2@XZ 10002f30 f i c_fake_ping.obj
 0001:00001f30       ??0?$allocator@Uplayer_info@c_esp@@@std@@QAE@XZ 10002f30 f i c_damage_esp.obj
 0001:00001f30       ?_Get_first@?$_Compressed_pair@V?$allocator@U?$_List_node@U?$pair@$$CBIV?$unordered_map@IUnetvar@c_netvar@@U?$hash@I@std@@U?$equal_to@I@4@V?$allocator@U?$pair@$$CBIUnetvar@c_netvar@@@std@@@4@@std@@@std@@PAX@std@@@std@@V?$_List_val@U?$_List_simple_types@U?$pair@$$CBIV?$unordered_map@IUnetvar@c_netvar@@U?$hash@I@std@@U?$equal_to@I@4@V?$allocator@U?$pair@$$CBIUnetvar@c_netvar@@@std@@@4@@std@@@std@@@std@@@2@$00@std@@QBEABV?$allocator@U?$_List_node@U?$pair@$$CBIV?$unordered_map@IUnetvar@c_netvar@@U?$hash@I@std@@U?$equal_to@I@4@V?$allocator@U?$pair@$$CBIUnetvar@c_netvar@@@std@@@4@@std@@@std@@PAX@std@@@2@XZ 10002f30 f i c_aimhelper.obj
 0001:00001f30       ?_Get_data@?$basic_string@_WU?$char_traits@_W@std@@V?$allocator@_W@2@@std@@AAEAAV?$_String_val@U?$_Simple_types@_W@std@@@2@XZ 10002f30 f i c_miscellaneous.obj
 0001:00001f30       ??0?$allocator@Uaim_info@c_aimhelper@@@std@@QAE@XZ 10002f30 f i c_aimhelper.obj
 0001:00001f30       ?_Get_data@?$list@U?$pair@$$CBIU?$pair@HH@std@@@std@@V?$allocator@U?$pair@$$CBIU?$pair@HH@std@@@std@@@2@@std@@ABEABV?$_List_val@U?$_List_simple_types@U?$pair@$$CBIU?$pair@HH@std@@@std@@@std@@@2@XZ 10002f30 f i c_esp.obj
 0001:00001f30       ?_Get_first@?$_Compressed_pair@V?$allocator@Uimpact_info@@@std@@V?$_Vector_val@U?$_Simple_types@Uimpact_info@@@std@@@2@$00@std@@QAEAAV?$allocator@Uimpact_info@@@2@XZ 10002f30 f i c_hitmarker.obj
 0001:00001f30       ?_Get_first@?$_Compressed_pair@V?$allocator@V?$_List_unchecked_iterator@V?$_List_val@U?$_List_simple_types@U?$pair@$$CBIU?$pair@HH@std@@@std@@@std@@@std@@@std@@@std@@V?$_Vector_val@U?$_Simple_types@V?$_List_unchecked_iterator@V?$_List_val@U?$_List_simple_types@U?$pair@$$CBIU?$pair@HH@std@@@std@@@std@@@std@@@std@@@std@@@2@$00@std@@QAEAAV?$allocator@V?$_List_unchecked_iterator@V?$_List_val@U?$_List_simple_types@U?$pair@$$CBIU?$pair@HH@std@@@std@@@std@@@std@@@std@@@2@XZ 10002f30 f i c_esp.obj
 0001:00001f30       ?_Get_data@?$_Tree@V?$_Tmap_traits@HHU?$less@H@std@@V?$allocator@U?$pair@$$CBHH@std@@@2@$0A@@std@@@std@@IBEABV?$_Tree_val@U?$_Tree_simple_types@U?$pair@$$CBHH@std@@@std@@@2@XZ 10002f30 f i c_prediction_.obj
 0001:00001f30       ?_Getspace@?$_Func_class@XI@std@@ABEPBXXZ 10002f30 f i c_fake_ping.obj
 0001:00001f30       ?_Get_max_bucket_size@?$_Uhash_compare@IU?$hash@I@std@@U?$equal_to@I@2@@std@@QBEABMXZ 10002f30 f i c_aimhelper.obj
 0001:00001f30       ?_Get_first@?$_Compressed_pair@V<lambda_1>@?1???$create@V?$basic_string@DU?$char_traits@D@std@@V?$allocator@D@2@@std@@AAY00$$CBD@?$basic_json@Vmap@std@@Vvector@2@V?$basic_string@DU?$char_traits@D@std@@V?$allocator@D@2@@2@_N_J_KNVallocator@2@Uadl_serializer@nlohmann@@@nlohmann@@CAPAV?$basic_string@DU?$char_traits@D@std@@V?$allocator@D@2@@std@@AAY00$$CBD@Z@PAV45@$0A@@std@@QAEAAV<lambda_1>@?1???$create@V?$basic_string@DU?$char_traits@D@std@@V?$allocator@D@2@@std@@AAY00$$CBD@?$basic_json@Vmap@std@@Vvector@2@V?$basic_string@DU?$char_traits@D@std@@V?$allocator@D@2@@2@_N_J_KNVallocator@2@Uadl_serializer@nlohmann@@@nlohmann@@CAPAV?$basic_string@DU?$char_traits@D@std@@V?$allocator@D@2@@2@AAY00$$CBD@Z@XZ 10002f30 f i c_conf.obj
 0001:00001f30       ?_Get_first@?$_Compressed_pair@V?$allocator@D@std@@V?$_Vector_val@U?$_Simple_types@D@std@@@2@$00@std@@QAEAAV?$allocator@D@2@XZ 10002f30 f i c_miscellaneous.obj
 0001:00001f30       ??0?$allocator@Uimpact_info@@@std@@QAE@XZ 10002f30 f i c_hitmarker.obj
 0001:00001f30       ??0?$allocator@U?$pair@$$CBIUanimation_info@c_animation_system@@@std@@@std@@QAE@XZ 10002f30 f i c_aimhelper.obj
 0001:00001f30       ?_Get_first@?$_Compressed_pair@U?$default_delete@$$BY0A@I@std@@PAI$00@std@@QAEAAU?$default_delete@$$BY0A@I@2@XZ 10002f30 f i c_fake_ping.obj
 0001:00001f30       ?_Get_first@?$_Compressed_pair@V?$allocator@U?$_Tree_node@U?$pair@$$CBHH@std@@PAX@std@@@std@@V?$_Tree_val@U?$_Tree_simple_types@U?$pair@$$CBHH@std@@@std@@@2@$00@std@@QBEABV?$allocator@U?$_Tree_node@U?$pair@$$CBHH@std@@PAX@std@@@2@XZ 10002f30 f i c_prediction_.obj
 0001:00001f30       ?_Get_first@?$_Compressed_pair@V?$allocator@V?$_List_unchecked_iterator@V?$_List_val@U?$_List_simple_types@U?$pair@$$CBIVc_font@@@std@@@std@@@std@@@std@@@std@@V?$_Vector_val@U?$_Simple_types@V?$_List_unchecked_iterator@V?$_List_val@U?$_List_simple_types@U?$pair@$$CBIVc_font@@@std@@@std@@@std@@@std@@@std@@@2@$00@std@@QAEAAV?$allocator@V?$_List_unchecked_iterator@V?$_List_val@U?$_List_simple_types@U?$pair@$$CBIVc_font@@@std@@@std@@@std@@@std@@@2@XZ 10002f30 f i c_damage_esp.obj
 0001:00001f30       ?_Getspace@?$_Func_class@XPAVc_cs_player@@@std@@AAEPAXXZ 10002f30 f i c_aimhelper.obj
 0001:00001f30       ?_Mymtx@_Mutex_base@std@@AAEPAU_Mtx_internal_imp_t@@XZ 10002f30 f i c_damage_esp.obj
 0001:00001f30       ?_Get_first@?$_Compressed_pair@V?$allocator@Unade_info@c_esp@@@std@@V?$_Vector_val@U?$_Simple_types@Unade_info@c_esp@@@std@@@2@$00@std@@QBEABV?$allocator@Unade_info@c_esp@@@2@XZ 10002f30 f i c_esp.obj
 0001:00001f30       ?_Get_first@?$_Compressed_pair@V?$allocator@V?$_List_unchecked_iterator@V?$_List_val@U?$_List_simple_types@U?$pair@$$CBIVc_font@@@std@@@std@@@std@@@std@@@std@@V?$_Vector_val@U?$_Simple_types@V?$_List_unchecked_iterator@V?$_List_val@U?$_List_simple_types@U?$pair@$$CBIVc_font@@@std@@@std@@@std@@@std@@@std@@@2@$00@std@@QBEABV?$allocator@V?$_List_unchecked_iterator@V?$_List_val@U?$_List_simple_types@U?$pair@$$CBIVc_font@@@std@@@std@@@std@@@std@@@2@XZ 10002f30 f i c_renderer.obj
 0001:00001f30       ?_Get_first@?$_Compressed_pair@V?$allocator@U?$_List_node@U?$pair@$$CBIUanimation_info@c_animation_system@@@std@@PAX@std@@@std@@V?$_List_val@U?$_List_simple_types@U?$pair@$$CBIUanimation_info@c_animation_system@@@std@@@std@@@2@$00@std@@QBEABV?$allocator@U?$_List_node@U?$pair@$$CBIUanimation_info@c_animation_system@@@std@@PAX@std@@@2@XZ 10002f30 f i c_animation_system.obj
 0001:00001f30       ?_Get_first@?$_Compressed_pair@V?$allocator@H@std@@V?$_Vector_val@U?$_Simple_types@H@std@@@2@$00@std@@QAEAAV?$allocator@H@2@XZ 10002f30 f i c_aimhelper.obj
 0001:00001f30       ?_Get_first@?$_Compressed_pair@V?$allocator@_W@std@@V?$_String_val@U?$_Simple_types@_W@std@@@2@$00@std@@QBEABV?$allocator@_W@2@XZ 10002f30 f i c_miscellaneous.obj
 0001:00001f30       ?_Get_data@?$_Tree@V?$_Tmap_traits@V?$basic_string@DU?$char_traits@D@std@@V?$allocator@D@2@@std@@V?$basic_json@Vmap@std@@Vvector@2@V?$basic_string@DU?$char_traits@D@std@@V?$allocator@D@2@@2@_N_J_KNVallocator@2@Uadl_serializer@nlohmann@@@nlohmann@@U?$less@X@2@V?$allocator@U?$pair@$$CBV?$basic_string@DU?$char_traits@D@std@@V?$allocator@D@2@@std@@V?$basic_json@Vmap@std@@Vvector@2@V?$basic_string@DU?$char_traits@D@std@@V?$allocator@D@2@@2@_N_J_KNVallocator@2@Uadl_serializer@nlohmann@@@nlohmann@@@std@@@2@$0A@@std@@@std@@IBEABV?$_Tree_val@U?$_Tree_simple_types@U?$pair@$$CBV?$basic_string@DU?$char_traits@D@std@@V?$allocator@D@2@@std@@V?$basic_json@Vmap@std@@Vvector@2@V?$basic_string@DU?$char_traits@D@std@@V?$allocator@D@2@@2@_N_J_KNVallocator@2@Uadl_serializer@nlohmann@@@nlohmann@@@std@@@std@@@2@XZ 10002f30 f i c_conf.obj
 0001:00001f30       ??0_Bxty@?$_String_val@U?$_Simple_types@_W@std@@@std@@QAE@XZ 10002f30 f i c_miscellaneous.obj
 0001:00001f30       ??0?$allocator@V?$basic_string@DU?$char_traits@D@std@@V?$allocator@D@2@@std@@@std@@QAE@XZ 10002f30 f i c_miscellaneous.obj
 0001:00001f30       ?_Get_first@?$_Compressed_pair@V?$allocator@Vc_vector2d@@@std@@V?$_Vector_val@U?$_Simple_types@Vc_vector2d@@@std@@@2@$00@std@@QAEAAV?$allocator@Vc_vector2d@@@2@XZ 10002f30 f i c_damage_esp.obj
 0001:00001f30       ?_Get_data@?$list@U?$pair@$$CBIUnetvar@c_netvar@@@std@@V?$allocator@U?$pair@$$CBIUnetvar@c_netvar@@@std@@@2@@std@@AAEAAV?$_List_val@U?$_List_simple_types@U?$pair@$$CBIUnetvar@c_netvar@@@std@@@std@@@2@XZ 10002f30 f i dllmain.obj
 0001:00001f30       ?_Get_first@?$_Compressed_pair@V?$allocator@U?$_List_node@U?$pair@$$CBIU?$pair@HH@std@@@std@@PAX@std@@@std@@V?$_List_val@U?$_List_simple_types@U?$pair@$$CBIU?$pair@HH@std@@@std@@@std@@@2@$00@std@@QBEABV?$allocator@U?$_List_node@U?$pair@$$CBIU?$pair@HH@std@@@std@@PAX@std@@@2@XZ 10002f30 f i c_esp.obj
 0001:00001f30       ?_Get_first@?$_Compressed_pair@V?$allocator@Uc_incoming_sequence@@@std@@V?$_Deque_val@U?$_Deque_simple_types@Uc_incoming_sequence@@@std@@@2@$00@std@@QAEAAV?$allocator@Uc_incoming_sequence@@@2@XZ 10002f30 f i c_fake_ping.obj
 0001:00001f30       ??0D3DXMATRIX@@QAE@XZ      10002f30 f i c_renderer.obj
 0001:00001f30       ?_Get_first@?$_Compressed_pair@U?$default_delete@Vc_renderer@@@std@@PAVc_renderer@@$00@std@@QAEAAU?$default_delete@Vc_renderer@@@2@XZ 10002f30 f i c_damage_esp.obj
 0001:00001f30       ?_Get_first@?$_Compressed_pair@V?$allocator@M@std@@V?$_Vector_val@U?$_Simple_types@M@std@@@2@$00@std@@QAEAAV?$allocator@M@2@XZ 10002f30 f i c_font.obj
 0001:00001f30       ??0?$allocator@V?$vector@V?$basic_json@Vmap@std@@Vvector@2@V?$basic_string@DU?$char_traits@D@std@@V?$allocator@D@2@@2@_N_J_KNVallocator@2@Uadl_serializer@nlohmann@@@nlohmann@@V?$allocator@V?$basic_json@Vmap@std@@Vvector@2@V?$basic_string@DU?$char_traits@D@std@@V?$allocator@D@2@@2@_N_J_KNVallocator@2@Uadl_serializer@nlohmann@@@nlohmann@@@std@@@std@@@std@@QAE@XZ 10002f30 f i c_conf.obj
 0001:00001f30       ?_Getspace@?$_Func_class@XPAVc_client_entity@@@std@@ABEPBXXZ 10002f30 f i c_esp.obj
 0001:00001f30       ?_Get_first@?$_Compressed_pair@V?$allocator@U?$pair@V?$shared_ptr@Vc_drawable@@@std@@U?$pair@Vc_vector2d@@V1@@2@@std@@@std@@V?$_Vector_val@U?$_Simple_types@U?$pair@V?$shared_ptr@Vc_drawable@@@std@@U?$pair@Vc_vector2d@@V1@@2@@std@@@std@@@2@$00@std@@QBEABV?$allocator@U?$pair@V?$shared_ptr@Vc_drawable@@@std@@U?$pair@Vc_vector2d@@V1@@2@@std@@@2@XZ 10002f30 f i c_aiming.obj
 0001:00001f30       ?_Get_first@?$_Compressed_pair@V?$allocator@V?$vector@MV?$allocator@M@std@@@std@@@std@@V?$_Vector_val@U?$_Simple_types@V?$vector@MV?$allocator@M@std@@@std@@@std@@@2@$00@std@@QAEAAV?$allocator@V?$vector@MV?$allocator@M@std@@@std@@@2@XZ 10002f30 f i c_font.obj
 0001:00001f30       ?_Get_data@?$list@U?$pair@QAVc_hotkey_select@@V?$function@$$A6AXI@Z@std@@@std@@V?$allocator@U?$pair@QAVc_hotkey_select@@V?$function@$$A6AXI@Z@std@@@std@@@2@@std@@ABEABV?$_List_val@U?$_List_simple_types@U?$pair@QAVc_hotkey_select@@V?$function@$$A6AXI@Z@std@@@std@@@std@@@2@XZ 10002f30 f i c_hotkeys.obj
 0001:00001f30       ??0?$allocator@Vc_vector2d@@@std@@QAE@XZ 10002f30 f i c_renderer.obj
 0001:00001f30       ?_Get_first@?$_Compressed_pair@V?$allocator@V?$function@$$A6AXI@Z@std@@@std@@V?$_Vector_val@U?$_Simple_types@V?$function@$$A6AXI@Z@std@@@std@@@2@$00@std@@QAEAAV?$allocator@V?$function@$$A6AXI@Z@std@@@2@XZ 10002f30 f i c_fake_ping.obj
 0001:00001f30       ??0?$allocator@Uc_incoming_sequence@@@std@@QAE@XZ 10002f30 f i c_fake_ping.obj
 0001:00001f30       ??0?$allocator@Unade_info@c_esp@@@std@@QAE@XZ 10002f30 f i c_damage_esp.obj
 0001:00001f30       ??0?$_Func_base@XPAVc_cs_player@@@std@@QAE@XZ 10002f30 f i c_aimhelper.obj
 0001:00001f30       ??0?$_Func_base@X$$V@std@@QAE@XZ 10002f30 f i c_ragebot.obj
 0001:00001f30       ??0?$allocator@V?$map@V?$basic_string@DU?$char_traits@D@std@@V?$allocator@D@2@@std@@V?$basic_json@Vmap@std@@Vvector@2@V?$basic_string@DU?$char_traits@D@std@@V?$allocator@D@2@@2@_N_J_KNVallocator@2@Uadl_serializer@nlohmann@@@nlohmann@@U?$less@X@2@V?$allocator@U?$pair@$$CBV?$basic_string@DU?$char_traits@D@std@@V?$allocator@D@2@@std@@V?$basic_json@Vmap@std@@Vvector@2@V?$basic_string@DU?$char_traits@D@std@@V?$allocator@D@2@@2@_N_J_KNVallocator@2@Uadl_serializer@nlohmann@@@nlohmann@@@std@@@2@@std@@@std@@QAE@XZ 10002f30 f i c_conf.obj
 0001:00001f30       ?_Get_first@?$_Compressed_pair@V<lambda_1>@?1???$create@V?$vector@V?$basic_json@Vmap@std@@Vvector@2@V?$basic_string@DU?$char_traits@D@std@@V?$allocator@D@2@@2@_N_J_KNVallocator@2@Uadl_serializer@nlohmann@@@nlohmann@@V?$allocator@V?$basic_json@Vmap@std@@Vvector@2@V?$basic_string@DU?$char_traits@D@std@@V?$allocator@D@2@@2@_N_J_KNVallocator@2@Uadl_serializer@nlohmann@@@nlohmann@@@std@@@std@@$$V@?$basic_json@Vmap@std@@Vvector@2@V?$basic_string@DU?$char_traits@D@std@@V?$allocator@D@2@@2@_N_J_KNVallocator@2@Uadl_serializer@nlohmann@@@nlohmann@@CAPAV?$vector@V?$basic_json@Vmap@std@@Vvector@2@V?$basic_string@DU?$char_traits@D@std@@V?$allocator@D@2@@2@_N_J_KNVallocator@2@Uadl_serializer@nlohmann@@@nlohmann@@V?$allocator@V?$basic_json@Vmap@std@@Vvector@2@V?$basic_string@DU?$char_traits@D@std@@V?$allocator@D@2@@2@_N_J_KNVallocator@2@Uadl_serializer@nlohmann@@@nlohmann@@@std@@@std@@XZ@PAV45@$0A@@std@@QAEAAV<lambda_1>@?1???$create@V?$vector@V?$basic_json@Vmap@std@@Vvector@2@V?$basic_string@DU?$char_traits@D@std@@V?$allocator@D@2@@2@_N_J_KNVallocator@2@Uadl_serializer@nlohmann@@@nlohmann@@V?$allocator@V?$basic_json@Vmap@std@@Vvector@2@V?$basic_string@DU?$char_traits@D@std@@V?$allocator@D@2@@2@_N_J_KNVallocator@2@Uadl_serializer@nlohmann@@@nlohmann@@@std@@@std@@$$V@?$basic_json@Vmap@std@@Vvector@2@V?$basic_string@DU?$char_traits@D@std@@V?$allocator@D@2@@2@_N_J_KNVallocator@2@Uadl_serializer@nlohmann@@@nlohmann@@CAPAV?$vector@V?$basic_json@Vmap@std@@Vvector@2@V?$basic_string@DU?$char_traits@D@std@@V?$allocator@D@2@@2@_N_J_KNVallocator@2@Uadl_serializer@nlohmann@@@nlohmann@@V?$allocator@V?$basic_json@Vmap@std@@Vvector@2@V?$basic_string@DU?$char_traits@D@std@@V?$allocator@D@2@@2@_N_J_KNVallocator@2@Uadl_serializer@nlohmann@@@nlohmann@@@std@@@2@XZ@XZ 10002f30 f i c_conf.obj
 0001:00001f30       ?_Get_first@?$_Compressed_pair@V?$allocator@U?$pair@V?$shared_ptr@Vc_drawable@@@std@@U?$pair@Vc_vector2d@@V1@@2@@std@@@std@@V?$_Vector_val@U?$_Simple_types@U?$pair@V?$shared_ptr@Vc_drawable@@@std@@U?$pair@Vc_vector2d@@V1@@2@@std@@@std@@@2@$00@std@@QAEAAV?$allocator@U?$pair@V?$shared_ptr@Vc_drawable@@@std@@U?$pair@Vc_vector2d@@V1@@2@@std@@@2@XZ 10002f30 f i dllmain.obj
 0001:00001f30       ??0?$allocator@U?$pair@$$CBIUnetvar@c_netvar@@@std@@@std@@QAE@XZ 10002f30 f i c_aimhelper.obj
 0001:00001f30       ?_Get_first@?$_Compressed_pair@V?$allocator@Uhitmarker_info@@@std@@V?$_Vector_val@U?$_Simple_types@Uhitmarker_info@@@std@@@2@$00@std@@QAEAAV?$allocator@Uhitmarker_info@@@2@XZ 10002f30 f i c_hitmarker.obj
 0001:00001f30       ??0?$allocator@D@std@@QAE@XZ 10002f30 f i dll.obj
 0001:00001f30       ?_Get_first@?$_Compressed_pair@V?$allocator@V?$_List_unchecked_iterator@V?$_List_val@U?$_List_simple_types@U?$pair@$$CBIUnetvar@c_netvar@@@std@@@std@@@std@@@std@@@std@@V?$_Vector_val@U?$_Simple_types@V?$_List_unchecked_iterator@V?$_List_val@U?$_List_simple_types@U?$pair@$$CBIUnetvar@c_netvar@@@std@@@std@@@std@@@std@@@std@@@2@$00@std@@QBEABV?$allocator@V?$_List_unchecked_iterator@V?$_List_val@U?$_List_simple_types@U?$pair@$$CBIUnetvar@c_netvar@@@std@@@std@@@std@@@std@@@2@XZ 10002f30 f i c_aimhelper.obj
 0001:00001f30       ??0?$allocator@Uhitmarker_info@@@std@@QAE@XZ 10002f30 f i c_hitmarker.obj
 0001:00001f30       ?_Get@?$_Optional_construct_base@Uwall_pen@c_trace_system@@@std@@QGAEAAUwall_pen@c_trace_system@@XZ 10002f30 f i c_trace_system.obj
 0001:00001f30       ?_Get_first@?$_Compressed_pair@V<lambda_1>@?1???$create@V?$basic_string@DU?$char_traits@D@std@@V?$allocator@D@2@@std@@ABV12@@?$basic_json@Vmap@std@@Vvector@2@V?$basic_string@DU?$char_traits@D@std@@V?$allocator@D@2@@2@_N_J_KNVallocator@2@Uadl_serializer@nlohmann@@@nlohmann@@CAPAV?$basic_string@DU?$char_traits@D@std@@V?$allocator@D@2@@std@@ABV45@@Z@PAV45@$0A@@std@@QAEAAV<lambda_1>@?1???$create@V?$basic_string@DU?$char_traits@D@std@@V?$allocator@D@2@@std@@ABV12@@?$basic_json@Vmap@std@@Vvector@2@V?$basic_string@DU?$char_traits@D@std@@V?$allocator@D@2@@2@_N_J_KNVallocator@2@Uadl_serializer@nlohmann@@@nlohmann@@CAPAV?$basic_string@DU?$char_traits@D@std@@V?$allocator@D@2@@2@ABV62@@Z@XZ 10002f30 f i c_conf.obj
 0001:00001f30       ?_Get_first@?$_Compressed_pair@V?$allocator@U?$_List_node@U?$pair@$$CBIV?$unordered_map@IUnetvar@c_netvar@@U?$hash@I@std@@U?$equal_to@I@4@V?$allocator@U?$pair@$$CBIUnetvar@c_netvar@@@std@@@4@@std@@@std@@PAX@std@@@std@@V?$_List_val@U?$_List_simple_types@U?$pair@$$CBIV?$unordered_map@IUnetvar@c_netvar@@U?$hash@I@std@@U?$equal_to@I@4@V?$allocator@U?$pair@$$CBIUnetvar@c_netvar@@@std@@@4@@std@@@std@@@std@@@2@$00@std@@QAEAAV?$allocator@U?$_List_node@U?$pair@$$CBIV?$unordered_map@IUnetvar@c_netvar@@U?$hash@I@std@@U?$equal_to@I@4@V?$allocator@U?$pair@$$CBIUnetvar@c_netvar@@@std@@@4@@std@@@std@@PAX@std@@@2@XZ 10002f30 f i dllmain.obj
 0001:00001f30       ?_Get_first@?$_Compressed_pair@V?$allocator@V?$_List_unchecked_iterator@V?$_List_val@U?$_List_simple_types@U?$pair@QAVc_hotkey_select@@V?$function@$$A6AXI@Z@std@@@std@@@std@@@std@@@std@@@std@@V?$_Vector_val@U?$_Simple_types@V?$_List_unchecked_iterator@V?$_List_val@U?$_List_simple_types@U?$pair@QAVc_hotkey_select@@V?$function@$$A6AXI@Z@std@@@std@@@std@@@std@@@std@@@std@@@2@$00@std@@QBEABV?$allocator@V?$_List_unchecked_iterator@V?$_List_val@U?$_List_simple_types@U?$pair@QAVc_hotkey_select@@V?$function@$$A6AXI@Z@std@@@std@@@std@@@std@@@std@@@2@XZ 10002f30 f i c_hotkeys.obj
 0001:00001f30       ?_Get_first@?$_Compressed_pair@V?$allocator@U?$_Tree_node@U?$pair@$$CBHH@std@@PAX@std@@@std@@V?$_Tree_val@U?$_Tree_simple_types@U?$pair@$$CBHH@std@@@std@@@2@$00@std@@QAEAAV?$allocator@U?$_Tree_node@U?$pair@$$CBHH@std@@PAX@std@@@2@XZ 10002f30 f i c_prediction_.obj
 0001:00001f30       ?_Getspace@?$_Func_class@XI@std@@AAEPAXXZ 10002f30 f i c_fake_ping.obj
 0001:00001f30       ?_Get_first@?$_Compressed_pair@V?$allocator@U?$pair@V?$basic_string@DU?$char_traits@D@std@@V?$allocator@D@2@@std@@D@std@@@std@@V?$_Vector_val@U?$_Simple_types@U?$pair@V?$basic_string@DU?$char_traits@D@std@@V?$allocator@D@2@@std@@D@std@@@std@@@2@$00@std@@QBEABV?$allocator@U?$pair@V?$basic_string@DU?$char_traits@D@std@@V?$allocator@D@2@@std@@D@std@@@2@XZ 10002f30 f i c_menu.obj
 0001:00001f30       ?_Get_first@?$_Compressed_pair@V?$allocator@E@std@@V?$_Vector_val@U?$_Simple_types@E@std@@@2@$00@std@@QBEABV?$allocator@E@2@XZ 10002f30 f i c_miscellaneous.obj
 0001:00001f30       ??0?$allocator@Vc_vector3d@@@std@@QAE@XZ 10002f30 f i c_ragebot.obj
 0001:00001f30       ?_Get_first@?$_Compressed_pair@V?$allocator@V?$_List_unchecked_iterator@V?$_List_val@U?$_List_simple_types@U?$pair@$$CBIV?$unordered_map@IUnetvar@c_netvar@@U?$hash@I@std@@U?$equal_to@I@4@V?$allocator@U?$pair@$$CBIUnetvar@c_netvar@@@std@@@4@@std@@@std@@@std@@@std@@@std@@@std@@V?$_Vector_val@U?$_Simple_types@V?$_List_unchecked_iterator@V?$_List_val@U?$_List_simple_types@U?$pair@$$CBIV?$unordered_map@IUnetvar@c_netvar@@U?$hash@I@std@@U?$equal_to@I@4@V?$allocator@U?$pair@$$CBIUnetvar@c_netvar@@@std@@@4@@std@@@std@@@std@@@std@@@std@@@std@@@2@$00@std@@QBEABV?$allocator@V?$_List_unchecked_iterator@V?$_List_val@U?$_List_simple_types@U?$pair@$$CBIV?$unordered_map@IUnetvar@c_netvar@@U?$hash@I@std@@U?$equal_to@I@4@V?$allocator@U?$pair@$$CBIUnetvar@c_netvar@@@std@@@4@@std@@@std@@@std@@@std@@@std@@@2@XZ 10002f30 f i c_aimhelper.obj
 0001:00001f30       ?_Get@?$_Optional_construct_base@U?$pair@PAUanimation@c_animation_system@@PAU12@@std@@@std@@QGBEABU?$pair@PAUanimation@c_animation_system@@PAU12@@2@XZ 10002f30 f i c_chams.obj
 0001:00001f30       ?_Get_data@?$list@U?$pair@$$CBIU?$pair@HH@std@@@std@@V?$allocator@U?$pair@$$CBIU?$pair@HH@std@@@std@@@2@@std@@AAEAAV?$_List_val@U?$_List_simple_types@U?$pair@$$CBIU?$pair@HH@std@@@std@@@std@@@2@XZ 10002f30 f i c_esp.obj
 0001:00001f30       ?_Get_first@?$_Compressed_pair@V?$allocator@V?$tuple@MMM@std@@@std@@V?$_Vector_val@U?$_Simple_types@V?$tuple@MMM@std@@@std@@@2@$00@std@@QBEABV?$allocator@V?$tuple@MMM@std@@@2@XZ 10002f30 f i c_aimhelper.obj
 0001:00001f30       ?_Get_rest@?$tuple@M@std@@QAEAAV?$tuple@$$V@2@XZ 10002f30 f i c_aimhelper.obj
 0001:00001f30       ?_Get_first@?$_Compressed_pair@V?$allocator@Uaim_info@c_aimhelper@@@std@@V?$_Vector_val@U?$_Simple_types@Uaim_info@c_aimhelper@@@std@@@2@$00@std@@QBEABV?$allocator@Uaim_info@c_aimhelper@@@2@XZ 10002f30 f i c_aimhelper.obj
 0001:00001f30       ?_Get_first@?$_Compressed_pair@V?$allocator@E@std@@V?$_Vector_val@U?$_Simple_types@E@std@@@2@$00@std@@QAEAAV?$allocator@E@2@XZ 10002f30 f i c_miscellaneous.obj
 0001:00001f30       ?_Get_first@?$_Compressed_pair@V?$allocator@U?$_List_node@U?$pair@$$CBIU?$pair@HH@std@@@std@@PAX@std@@@std@@V?$_List_val@U?$_List_simple_types@U?$pair@$$CBIU?$pair@HH@std@@@std@@@std@@@2@$00@std@@QAEAAV?$allocator@U?$_List_node@U?$pair@$$CBIU?$pair@HH@std@@@std@@PAX@std@@@2@XZ 10002f30 f i c_esp.obj
 0001:00001f30       ?_Get_first@?$_Compressed_pair@V?$allocator@V?$_List_unchecked_iterator@V?$_List_val@U?$_List_simple_types@U?$pair@$$CBIUanimation_info@c_animation_system@@@std@@@std@@@std@@@std@@@std@@V?$_Vector_val@U?$_Simple_types@V?$_List_unchecked_iterator@V?$_List_val@U?$_List_simple_types@U?$pair@$$CBIUanimation_info@c_animation_system@@@std@@@std@@@std@@@std@@@std@@@2@$00@std@@QBEABV?$allocator@V?$_List_unchecked_iterator@V?$_List_val@U?$_List_simple_types@U?$pair@$$CBIUanimation_info@c_animation_system@@@std@@@std@@@std@@@std@@@2@XZ 10002f30 f i c_aimhelper.obj
 0001:00001f30       ?_Get_first@?$_Compressed_pair@V?$allocator@U?$_List_node@U?$pair@$$CBIUanimation_info@c_animation_system@@@std@@PAX@std@@@std@@V?$_List_val@U?$_List_simple_types@U?$pair@$$CBIUanimation_info@c_animation_system@@@std@@@std@@@2@$00@std@@QAEAAV?$allocator@U?$_List_node@U?$pair@$$CBIUanimation_info@c_animation_system@@@std@@PAX@std@@@2@XZ 10002f30 f i c_aimhelper.obj
 0001:00001f30       ?_Get_first@?$_Compressed_pair@V?$allocator@D@std@@V?$_Vector_val@U?$_Simple_types@D@std@@@2@$00@std@@QBEABV?$allocator@D@2@XZ 10002f30 f i c_miscellaneous.obj
 0001:00001f30       ?_Get_max_bucket_size@?$_Uhash_compare@PAVc_hotkey_select@@U?$hash@PAVc_hotkey_select@@@std@@U?$equal_to@PAVc_hotkey_select@@@3@@std@@QBEABMXZ 10002f30 f i c_hotkeys.obj
 0001:00001f30       ?_Get_first@?$_Compressed_pair@V?$allocator@Vc_vector2d@@@std@@V?$_Vector_val@U?$_Simple_types@Vc_vector2d@@@std@@@2@$00@std@@QBEABV?$allocator@Vc_vector2d@@@2@XZ 10002f30 f i c_renderer.obj
 0001:00001f30       ?_Get_first@?$_Compressed_pair@V?$allocator@_W@std@@V?$_String_val@U?$_Simple_types@_W@std@@@2@$00@std@@QAEAAV?$allocator@_W@2@XZ 10002f30 f i c_miscellaneous.obj
 0001:00001f30       ??0?$allocator@U?$pair@PAVc_cs_player@@M@std@@@std@@QAE@XZ 10002f30 f i c_chams.obj
 0001:00001f30       ?_Get_first@?$_Compressed_pair@V?$allocator@W4hitbox@c_cs_player@@@std@@V?$_Vector_val@U?$_Simple_types@W4hitbox@c_cs_player@@@std@@@2@$00@std@@QAEAAV?$allocator@W4hitbox@c_cs_player@@@2@XZ 10002f30 f i c_ragebot.obj
 0001:00001f30       ?_Get_first@?$_Compressed_pair@U?$less@X@std@@V?$_Compressed_pair@V?$allocator@U?$_Tree_node@U?$pair@$$CBV?$basic_string@DU?$char_traits@D@std@@V?$allocator@D@2@@std@@V?$basic_json@Vmap@std@@Vvector@2@V?$basic_string@DU?$char_traits@D@std@@V?$allocator@D@2@@2@_N_J_KNVallocator@2@Uadl_serializer@nlohmann@@@nlohmann@@@std@@PAX@std@@@std@@V?$_Tree_val@U?$_Tree_simple_types@U?$pair@$$CBV?$basic_string@DU?$char_traits@D@std@@V?$allocator@D@2@@std@@V?$basic_json@Vmap@std@@Vvector@2@V?$basic_string@DU?$char_traits@D@std@@V?$allocator@D@2@@2@_N_J_KNVallocator@2@Uadl_serializer@nlohmann@@@nlohmann@@@std@@@std@@@2@$00@2@$00@std@@QBEABU?$less@X@2@XZ 10002f30 f i c_conf.obj
 0001:00001f30       ?_Get_first@?$_Compressed_pair@U?$less@H@std@@V?$_Compressed_pair@V?$allocator@U?$_Tree_node@U?$pair@$$CBHH@std@@PAX@std@@@std@@V?$_Tree_val@U?$_Tree_simple_types@U?$pair@$$CBHH@std@@@std@@@2@$00@2@$00@std@@QBEABU?$less@H@2@XZ 10002f30 f i c_prediction_.obj
 0001:00001f30       ?_Get_first@?$_Compressed_pair@V?$allocator@V?$_List_unchecked_iterator@V?$_List_val@U?$_List_simple_types@U?$pair@$$CBIU?$pair@HH@std@@@std@@@std@@@std@@@std@@@std@@V?$_Vector_val@U?$_Simple_types@V?$_List_unchecked_iterator@V?$_List_val@U?$_List_simple_types@U?$pair@$$CBIU?$pair@HH@std@@@std@@@std@@@std@@@std@@@std@@@2@$00@std@@QBEABV?$allocator@V?$_List_unchecked_iterator@V?$_List_val@U?$_List_simple_types@U?$pair@$$CBIU?$pair@HH@std@@@std@@@std@@@std@@@std@@@2@XZ 10002f30 f i c_esp.obj
 0001:00001f30       ??0?$allocator@V?$tuple@MMM@std@@@std@@QAE@XZ 10002f30 f i c_aimhelper.obj
 0001:00001f30       ?_Get_data@?$deque@Ushot@resolver@@V?$allocator@Ushot@resolver@@@std@@@std@@ABEABV?$_Deque_val@U?$_Deque_simple_types@Ushot@resolver@@@std@@@2@XZ 10002f30 f i c_animation_system.obj
 0001:00001f30       ?_Get_data@?$_Tree@V?$_Tmap_traits@V?$basic_string@DU?$char_traits@D@std@@V?$allocator@D@2@@std@@V?$basic_json@Vmap@std@@Vvector@2@V?$basic_string@DU?$char_traits@D@std@@V?$allocator@D@2@@2@_N_J_KNVallocator@2@Uadl_serializer@nlohmann@@@nlohmann@@U?$less@X@2@V?$allocator@U?$pair@$$CBV?$basic_string@DU?$char_traits@D@std@@V?$allocator@D@2@@std@@V?$basic_json@Vmap@std@@Vvector@2@V?$basic_string@DU?$char_traits@D@std@@V?$allocator@D@2@@2@_N_J_KNVallocator@2@Uadl_serializer@nlohmann@@@nlohmann@@@std@@@2@$0A@@std@@@std@@IAEAAV?$_Tree_val@U?$_Tree_simple_types@U?$pair@$$CBV?$basic_string@DU?$char_traits@D@std@@V?$allocator@D@2@@std@@V?$basic_json@Vmap@std@@Vvector@2@V?$basic_string@DU?$char_traits@D@std@@V?$allocator@D@2@@2@_N_J_KNVallocator@2@Uadl_serializer@nlohmann@@@nlohmann@@@std@@@std@@@2@XZ 10002f30 f i c_conf.obj
 0001:00001f30       ??0?$allocator@W4hitbox@c_cs_player@@@std@@QAE@XZ 10002f30 f i c_ragebot.obj
 0001:00001f30       ?_Get_first@?$_Compressed_pair@V?$allocator@M@std@@V?$_Vector_val@U?$_Simple_types@M@std@@@2@$00@std@@QBEABV?$allocator@M@2@XZ 10002f30 f i c_font.obj
 0001:00001f30       ??0?$allocator@U?$pair@QAVc_hotkey_select@@V?$function@$$A6AXI@Z@std@@@std@@@std@@QAE@XZ 10002f30 f i c_hotkeys.obj
 0001:00001f30       ?_Get_first@?$_Compressed_pair@V<lambda_1>@?1???$create@V?$vector@V?$basic_json@Vmap@std@@Vvector@2@V?$basic_string@DU?$char_traits@D@std@@V?$allocator@D@2@@2@_N_J_KNVallocator@2@Uadl_serializer@nlohmann@@@nlohmann@@V?$allocator@V?$basic_json@Vmap@std@@Vvector@2@V?$basic_string@DU?$char_traits@D@std@@V?$allocator@D@2@@2@_N_J_KNVallocator@2@Uadl_serializer@nlohmann@@@nlohmann@@@std@@@std@@ABV12@@?$basic_json@Vmap@std@@Vvector@2@V?$basic_string@DU?$char_traits@D@std@@V?$allocator@D@2@@2@_N_J_KNVallocator@2@Uadl_serializer@nlohmann@@@nlohmann@@CAPAV?$vector@V?$basic_json@Vmap@std@@Vvector@2@V?$basic_string@DU?$char_traits@D@std@@V?$allocator@D@2@@2@_N_J_KNVallocator@2@Uadl_serializer@nlohmann@@@nlohmann@@V?$allocator@V?$basic_json@Vmap@std@@Vvector@2@V?$basic_string@DU?$char_traits@D@std@@V?$allocator@D@2@@2@_N_J_KNVallocator@2@Uadl_serializer@nlohmann@@@nlohmann@@@std@@@std@@ABV45@@Z@PAV45@$0A@@std@@QAEAAV<lambda_1>@?1???$create@V?$vector@V?$basic_json@Vmap@std@@Vvector@2@V?$basic_string@DU?$char_traits@D@std@@V?$allocator@D@2@@2@_N_J_KNVallocator@2@Uadl_serializer@nlohmann@@@nlohmann@@V?$allocator@V?$basic_json@Vmap@std@@Vvector@2@V?$basic_string@DU?$char_traits@D@std@@V?$allocator@D@2@@2@_N_J_KNVallocator@2@Uadl_serializer@nlohmann@@@nlohmann@@@std@@@std@@ABV12@@?$basic_json@Vmap@std@@Vvector@2@V?$basic_string@DU?$char_traits@D@std@@V?$allocator@D@2@@2@_N_J_KNVallocator@2@Uadl_serializer@nlohmann@@@nlohmann@@CAPAV?$vector@V?$basic_json@Vmap@std@@Vvector@2@V?$basic_string@DU?$char_traits@D@std@@V?$allocator@D@2@@2@_N_J_KNVallocator@2@Uadl_serializer@nlohmann@@@nlohmann@@V?$allocator@V?$basic_json@Vmap@std@@Vvector@2@V?$basic_string@DU?$char_traits@D@std@@V?$allocator@D@2@@2@_N_J_KNVallocator@2@Uadl_serializer@nlohmann@@@nlohmann@@@std@@@2@ABV62@@Z@XZ 10002f30 f i c_conf.obj
 0001:00001f30       ?_Getspace@?$_Func_class@XPAVc_cs_player@@@std@@ABEPBXXZ 10002f30 f i c_aimhelper.obj
 0001:00001f30       ?_Get_max_bucket_size@?$_Uhash_compare@PAVc_hotkey_select@@U?$hash@PAVc_hotkey_select@@@std@@U?$equal_to@PAVc_hotkey_select@@@3@@std@@QAEAAMXZ 10002f30 f i c_hotkeys.obj
 0001:00001f30       ?_Getspace@?$_Func_class@_NHW4parse_event_t@?$parser@V?$basic_json@Vmap@std@@Vvector@2@V?$basic_string@DU?$char_traits@D@std@@V?$allocator@D@2@@2@_N_J_KNVallocator@2@Uadl_serializer@nlohmann@@@nlohmann@@@detail@nlohmann@@AAV?$basic_json@Vmap@std@@Vvector@2@V?$basic_string@DU?$char_traits@D@std@@V?$allocator@D@2@@2@_N_J_KNVallocator@2@Uadl_serializer@nlohmann@@@4@@std@@ABEPBXXZ 10002f30 f i c_conf.obj
 0001:00001f30       ?_Get_data@?$basic_string@DU?$char_traits@D@std@@V?$allocator@D@2@@std@@AAEAAV?$_String_val@U?$_Simple_types@D@std@@@2@XZ 10002f30 f i dll.obj
 0001:00001f30       ?_Get@?$_Optional_construct_base@PAVc_drawable@@@std@@QGAEAAPAVc_drawable@@XZ 10002f30 f i c_menu.obj
 0001:00001f30       ??0?$allocator@Uanimation@c_animation_system@@@std@@QAE@XZ 10002f30 f i c_animation_system.obj
 0001:00001f30       ??0?$_Func_base@XI@std@@QAE@XZ 10002f30 f i c_fake_ping.obj
 0001:00001f30       ?_Get_data@?$list@U?$pair@$$CBIUanimation_info@c_animation_system@@@std@@V?$allocator@U?$pair@$$CBIUanimation_info@c_animation_system@@@std@@@2@@std@@AAEAAV?$_List_val@U?$_List_simple_types@U?$pair@$$CBIUanimation_info@c_animation_system@@@std@@@std@@@2@XZ 10002f30 f i c_aimhelper.obj
 0001:00001f30       ??0?$allocator@V?$basic_json@Vmap@std@@Vvector@2@V?$basic_string@DU?$char_traits@D@std@@V?$allocator@D@2@@2@_N_J_KNVallocator@2@Uadl_serializer@nlohmann@@@nlohmann@@@std@@QAE@XZ 10002f30 f i c_conf.obj
 0001:00001f30       ?_Get_first@?$_Compressed_pair@U?$less@H@std@@V?$_Compressed_pair@V?$allocator@U?$_Tree_node@U?$pair@$$CBHH@std@@PAX@std@@@std@@V?$_Tree_val@U?$_Tree_simple_types@U?$pair@$$CBHH@std@@@std@@@2@$00@2@$00@std@@QAEAAU?$less@H@2@XZ 10002f30 f i c_prediction_.obj
 0001:00001f30       ?_Get_data@?$list@U?$pair@$$CBIVc_font@@@std@@V?$allocator@U?$pair@$$CBIVc_font@@@std@@@2@@std@@ABEABV?$_List_val@U?$_List_simple_types@U?$pair@$$CBIVc_font@@@std@@@std@@@2@XZ 10002f30 f i c_renderer.obj
 0001:00001f30       ?_Get_data@?$deque@Uc_incoming_sequence@@V?$allocator@Uc_incoming_sequence@@@std@@@std@@ABEABV?$_Deque_val@U?$_Deque_simple_types@Uc_incoming_sequence@@@std@@@2@XZ 10002f30 f i c_fake_ping.obj
 0001:00001f30       ??0?$allocator@U?$_Tree_node@U?$pair@$$CBHH@std@@PAX@std@@@std@@QAE@XZ 10002f30 f i c_prediction_.obj
 0001:00001f30       ?_Get_data@?$_Tree@V?$_Tmap_traits@HHU?$less@H@std@@V?$allocator@U?$pair@$$CBHH@std@@@2@$0A@@std@@@std@@IAEAAV?$_Tree_val@U?$_Tree_simple_types@U?$pair@$$CBHH@std@@@std@@@2@XZ 10002f30 f i c_prediction_.obj
 0001:00001f30       ?_Get_first@?$_Compressed_pair@V?$allocator@V?$_List_unchecked_iterator@V?$_List_val@U?$_List_simple_types@U?$pair@$$CBIV?$unordered_map@IUnetvar@c_netvar@@U?$hash@I@std@@U?$equal_to@I@4@V?$allocator@U?$pair@$$CBIUnetvar@c_netvar@@@std@@@4@@std@@@std@@@std@@@std@@@std@@@std@@V?$_Vector_val@U?$_Simple_types@V?$_List_unchecked_iterator@V?$_List_val@U?$_List_simple_types@U?$pair@$$CBIV?$unordered_map@IUnetvar@c_netvar@@U?$hash@I@std@@U?$equal_to@I@4@V?$allocator@U?$pair@$$CBIUnetvar@c_netvar@@@std@@@4@@std@@@std@@@std@@@std@@@std@@@std@@@2@$00@std@@QAEAAV?$allocator@V?$_List_unchecked_iterator@V?$_List_val@U?$_List_simple_types@U?$pair@$$CBIV?$unordered_map@IUnetvar@c_netvar@@U?$hash@I@std@@U?$equal_to@I@4@V?$allocator@U?$pair@$$CBIUnetvar@c_netvar@@@std@@@4@@std@@@std@@@std@@@std@@@std@@@2@XZ 10002f30 f i dllmain.obj
 0001:00001f30       ?_Get_first@?$_Compressed_pair@V?$allocator@V?$tuple@MMM@std@@@std@@V?$_Vector_val@U?$_Simple_types@V?$tuple@MMM@std@@@std@@@2@$00@std@@QAEAAV?$allocator@V?$tuple@MMM@std@@@2@XZ 10002f30 f i c_aimhelper.obj
 0001:00001f30       ?_Get_max_bucket_size@?$_Uhash_compare@IU?$hash@I@std@@U?$equal_to@I@2@@std@@QAEAAMXZ 10002f30 f i c_aimhelper.obj
 0001:00001f30       ??0?$allocator@U?$_Tree_node@U?$pair@$$CBV?$basic_string@DU?$char_traits@D@std@@V?$allocator@D@2@@std@@V?$basic_json@Vmap@std@@Vvector@2@V?$basic_string@DU?$char_traits@D@std@@V?$allocator@D@2@@2@_N_J_KNVallocator@2@Uadl_serializer@nlohmann@@@nlohmann@@@std@@PAX@std@@@std@@QAE@XZ 10002f30 f i c_conf.obj
 0001:00001f30       ?_Get_first@?$_Compressed_pair@U?$equal_to@PAVc_hotkey_select@@@std@@M$00@std@@QBEABU?$equal_to@PAVc_hotkey_select@@@2@XZ 10002f30 f i c_hotkeys.obj
 0001:00001f30       ?_Get_first@?$_Compressed_pair@V?$allocator@V?$function@$$A6AXXZ@std@@@std@@V?$_Vector_val@U?$_Simple_types@V?$function@$$A6AXXZ@std@@@std@@@2@$00@std@@QAEAAV?$allocator@V?$function@$$A6AXXZ@std@@@2@XZ 10002f30 f i c_damage_esp.obj
 0001:00001f30       ?_Get_rest@?$tuple@PAUanimation@c_animation_system@@M@std@@QAEAAV?$tuple@M@2@XZ 10002f30 f i c_aimhelper.obj
 0001:00001f30       ?_Get_data@?$list@U?$pair@QAVc_hotkey_select@@V?$function@$$A6AXI@Z@std@@@std@@V?$allocator@U?$pair@QAVc_hotkey_select@@V?$function@$$A6AXI@Z@std@@@std@@@2@@std@@AAEAAV?$_List_val@U?$_List_simple_types@U?$pair@QAVc_hotkey_select@@V?$function@$$A6AXI@Z@std@@@std@@@std@@@2@XZ 10002f30 f i c_fake_ping.obj
 0001:00001f30       ??0?$allocator@_W@std@@QAE@XZ 10002f30 f i c_miscellaneous.obj
 0001:00001f30       ?_Get_data@?$list@U?$pair@$$CBIV?$unordered_map@IUnetvar@c_netvar@@U?$hash@I@std@@U?$equal_to@I@4@V?$allocator@U?$pair@$$CBIUnetvar@c_netvar@@@std@@@4@@std@@@std@@V?$allocator@U?$pair@$$CBIV?$unordered_map@IUnetvar@c_netvar@@U?$hash@I@std@@U?$equal_to@I@4@V?$allocator@U?$pair@$$CBIUnetvar@c_netvar@@@std@@@4@@std@@@std@@@2@@std@@AAEAAV?$_List_val@U?$_List_simple_types@U?$pair@$$CBIV?$unordered_map@IUnetvar@c_netvar@@U?$hash@I@std@@U?$equal_to@I@4@V?$allocator@U?$pair@$$CBIUnetvar@c_netvar@@@std@@@4@@std@@@std@@@std@@@2@XZ 10002f30 f i dllmain.obj
 0001:00001f30       ?_Getspace@?$_Func_class@_NHW4parse_event_t@?$parser@V?$basic_json@Vmap@std@@Vvector@2@V?$basic_string@DU?$char_traits@D@std@@V?$allocator@D@2@@2@_N_J_KNVallocator@2@Uadl_serializer@nlohmann@@@nlohmann@@@detail@nlohmann@@AAV?$basic_json@Vmap@std@@Vvector@2@V?$basic_string@DU?$char_traits@D@std@@V?$allocator@D@2@@2@_N_J_KNVallocator@2@Uadl_serializer@nlohmann@@@4@@std@@AAEPAXXZ 10002f30 f i c_conf.obj
 0001:00001f30       ??0?$allocator@M@std@@QAE@XZ 10002f30 f i c_font.obj
 0001:00001f30       ?_Get_first@?$_Compressed_pair@V?$allocator@Uimpact_info@@@std@@V?$_Vector_val@U?$_Simple_types@Uimpact_info@@@std@@@2@$00@std@@QBEABV?$allocator@Uimpact_info@@@2@XZ 10002f30 f i c_hitmarker.obj
 0001:00001f30       ??0?$allocator@U?$pair@$$CBIV?$unordered_map@IUnetvar@c_netvar@@U?$hash@I@std@@U?$equal_to@I@4@V?$allocator@U?$pair@$$CBIUnetvar@c_netvar@@@std@@@4@@std@@@std@@@std@@QAE@XZ 10002f30 f i c_netvar.obj
 0001:00001f30       ??0?$allocator@E@std@@QAE@XZ 10002f30 f i c_miscellaneous.obj
 0001:00001f30       ?_Get_first@?$_Compressed_pair@V?$allocator@Uplayer_info@c_esp@@@std@@V?$_Vector_val@U?$_Simple_types@Uplayer_info@c_esp@@@std@@@2@$00@std@@QBEABV?$allocator@Uplayer_info@c_esp@@@2@XZ 10002f30 f i c_esp.obj
 0001:00001f30       ??0?$allocator@U?$pair@V?$shared_ptr@Vc_drawable@@@std@@U?$pair@Vc_vector2d@@V1@@2@@std@@@std@@QAE@XZ 10002f30 f i c_checkbox.obj
 0001:00001f30       ?_Get_first@?$_Compressed_pair@V?$allocator@V?$basic_string@DU?$char_traits@D@std@@V?$allocator@D@2@@std@@@std@@V?$_Vector_val@U?$_Simple_types@V?$basic_string@DU?$char_traits@D@std@@V?$allocator@D@2@@std@@@std@@@2@$00@std@@QAEAAV?$allocator@V?$basic_string@DU?$char_traits@D@std@@V?$allocator@D@2@@std@@@2@XZ 10002f30 f i c_miscellaneous.obj
 0001:00001f30       ?_Get_first@?$_Compressed_pair@V?$allocator@Ushot@resolver@@@std@@V?$_Deque_val@U?$_Deque_simple_types@Ushot@resolver@@@std@@@2@$00@std@@QBEABV?$allocator@Ushot@resolver@@@2@XZ 10002f30 f i c_resolver.obj
 0001:00001f30       ?_Get_data@?$list@U?$pair@$$CBIUanimation_info@c_animation_system@@@std@@V?$allocator@U?$pair@$$CBIUanimation_info@c_animation_system@@@std@@@2@@std@@ABEABV?$_List_val@U?$_List_simple_types@U?$pair@$$CBIUanimation_info@c_animation_system@@@std@@@std@@@2@XZ 10002f30 f i c_animation_system.obj
 0001:00001f30       ?_Get_first@?$_Compressed_pair@V?$allocator@U?$_List_node@U?$pair@$$CBIVc_font@@@std@@PAX@std@@@std@@V?$_List_val@U?$_List_simple_types@U?$pair@$$CBIVc_font@@@std@@@std@@@2@$00@std@@QAEAAV?$allocator@U?$_List_node@U?$pair@$$CBIVc_font@@@std@@PAX@std@@@2@XZ 10002f30 f i c_damage_esp.obj
 0001:00001f30       ?_Get_data@?$list@U?$pair@$$CBIUnetvar@c_netvar@@@std@@V?$allocator@U?$pair@$$CBIUnetvar@c_netvar@@@std@@@2@@std@@ABEABV?$_List_val@U?$_List_simple_types@U?$pair@$$CBIUnetvar@c_netvar@@@std@@@std@@@2@XZ 10002f30 f i c_aimhelper.obj
 0001:00001f30       ??0?$allocator@V?$vector@MV?$allocator@M@std@@@std@@@std@@QAE@XZ 10002f30 f i c_font.obj
 0001:00001f30       ?_Get_rest@?$tuple@PAUanimation@c_animation_system@@@std@@QAEAAV?$tuple@$$V@2@XZ 10002f30 f i c_legitbot.obj
 0001:00001f30       ?_Get@?$_Optional_construct_base@M@std@@QGBEABMXZ 10002f30 f i c_cs_player_.obj
 0001:00001f30       ?_Get_data@?$deque@Uanimation@c_animation_system@@V?$allocator@Uanimation@c_animation_system@@@std@@@std@@AAEAAV?$_Deque_val@U?$_Deque_simple_types@Uanimation@c_animation_system@@@std@@@2@XZ 10002f30 f i c_aimhelper.obj
 0001:00001f30       ?_Get_first@?$_Compressed_pair@U?$default_delete@V?$c_hook@I@@@std@@PAV?$c_hook@I@@$00@std@@QAEAAU?$default_delete@V?$c_hook@I@@@2@XZ 10002f30 f i c_fake_ping.obj
 0001:00001f30       ?_Get@?$_Optional_construct_base@H@std@@QGBEABHXZ 10002f30 f i c_esp.obj
 0001:00001f30       ?_Get_first@?$_Compressed_pair@V?$allocator@PAUanimation@c_animation_system@@@std@@V?$_Vector_val@U?$_Simple_types@PAUanimation@c_animation_system@@@std@@@2@$00@std@@QAEAAV?$allocator@PAUanimation@c_animation_system@@@2@XZ 10002f30 f i c_aimhelper.obj
 0001:00001f30       ?_Get_first@?$_Compressed_pair@V?$allocator@V?$_List_unchecked_iterator@V?$_List_val@U?$_List_simple_types@U?$pair@$$CBIUanimation_info@c_animation_system@@@std@@@std@@@std@@@std@@@std@@V?$_Vector_val@U?$_Simple_types@V?$_List_unchecked_iterator@V?$_List_val@U?$_List_simple_types@U?$pair@$$CBIUanimation_info@c_animation_system@@@std@@@std@@@std@@@std@@@std@@@2@$00@std@@QAEAAV?$allocator@V?$_List_unchecked_iterator@V?$_List_val@U?$_List_simple_types@U?$pair@$$CBIUanimation_info@c_animation_system@@@std@@@std@@@std@@@std@@@2@XZ 10002f30 f i c_aimhelper.obj
 0001:00001f30       ?_Get_first@?$_Compressed_pair@V?$allocator@Uc_incoming_sequence@@@std@@V?$_Deque_val@U?$_Deque_simple_types@Uc_incoming_sequence@@@std@@@2@$00@std@@QBEABV?$allocator@Uc_incoming_sequence@@@2@XZ 10002f30 f i c_net_channel_.obj
 0001:00001f30       ?_Get@?$_Optional_construct_base@V?$tuple@Vc_vector3d@@MPAUanimation@c_animation_system@@@std@@@std@@QGAEAAV?$tuple@Vc_vector3d@@MPAUanimation@c_animation_system@@@2@XZ 10002f30 f i c_legitbot.obj
 0001:00001f30       ??0?$_Func_base@XPAVc_client_entity@@@std@@QAE@XZ 10002f30 f i c_esp.obj
 0001:00001f30       ?_Get_first@?$_Compressed_pair@V?$allocator@U?$pair@V?$basic_string@DU?$char_traits@D@std@@V?$allocator@D@2@@std@@D@std@@@std@@V?$_Vector_val@U?$_Simple_types@U?$pair@V?$basic_string@DU?$char_traits@D@std@@V?$allocator@D@2@@std@@D@std@@@std@@@2@$00@std@@QAEAAV?$allocator@U?$pair@V?$basic_string@DU?$char_traits@D@std@@V?$allocator@D@2@@std@@D@std@@@2@XZ 10002f30 f i c_menu.obj
 0001:00001f30       ??0?$allocator@V?$function@$$A6AXI@Z@std@@@std@@QAE@XZ 10002f30 f i c_hotkeys.obj
 0001:00001f30       ?_Get_first@?$_Compressed_pair@V?$allocator@U?$_List_node@U?$pair@QAVc_hotkey_select@@V?$function@$$A6AXI@Z@std@@@std@@PAX@std@@@std@@V?$_List_val@U?$_List_simple_types@U?$pair@QAVc_hotkey_select@@V?$function@$$A6AXI@Z@std@@@std@@@std@@@2@$00@std@@QBEABV?$allocator@U?$_List_node@U?$pair@QAVc_hotkey_select@@V?$function@$$A6AXI@Z@std@@@std@@PAX@std@@@2@XZ 10002f30 f i c_hotkeys.obj
 0001:00001f30       ??0?$allocator@Ushot@resolver@@@std@@QAE@XZ 10002f30 f i c_animation_system.obj
 0001:00001f30       ?_Get@?$_Optional_construct_base@Vc_vector3d@@@std@@QGBEABVc_vector3d@@XZ 10002f30 f i c_esp.obj
 0001:00001f30       ?_Get_first@?$_Compressed_pair@V?$allocator@U?$pair@PAVc_cs_player@@M@std@@@std@@V?$_Vector_val@U?$_Simple_types@U?$pair@PAVc_cs_player@@M@std@@@std@@@2@$00@std@@QBEABV?$allocator@U?$pair@PAVc_cs_player@@M@std@@@2@XZ 10002f30 f i c_chams.obj
 0001:00001f30       ?_Get@?$_Optional_construct_base@Uweapon_conf@rage_conf@config_conf@c_config@@@std@@QGBEABUweapon_conf@rage_conf@config_conf@c_config@@XZ 10002f30 f i c_antiaim.obj
 0001:00001f30       ?_Get_first@?$_Compressed_pair@V?$allocator@V?$_List_unchecked_iterator@V?$_List_val@U?$_List_simple_types@U?$pair@$$CBIUnetvar@c_netvar@@@std@@@std@@@std@@@std@@@std@@V?$_Vector_val@U?$_Simple_types@V?$_List_unchecked_iterator@V?$_List_val@U?$_List_simple_types@U?$pair@$$CBIUnetvar@c_netvar@@@std@@@std@@@std@@@std@@@std@@@2@$00@std@@QAEAAV?$allocator@V?$_List_unchecked_iterator@V?$_List_val@U?$_List_simple_types@U?$pair@$$CBIUnetvar@c_netvar@@@std@@@std@@@std@@@std@@@2@XZ 10002f30 f i dllmain.obj
 0001:00001f30       ?_Get_first@?$_Compressed_pair@V?$allocator@V?$basic_json@Vmap@std@@Vvector@2@V?$basic_string@DU?$char_traits@D@std@@V?$allocator@D@2@@2@_N_J_KNVallocator@2@Uadl_serializer@nlohmann@@@nlohmann@@@std@@V?$_Vector_val@U?$_Simple_types@V?$basic_json@Vmap@std@@Vvector@2@V?$basic_string@DU?$char_traits@D@std@@V?$allocator@D@2@@2@_N_J_KNVallocator@2@Uadl_serializer@nlohmann@@@nlohmann@@@std@@@2@$00@std@@QAEAAV?$allocator@V?$basic_json@Vmap@std@@Vvector@2@V?$basic_string@DU?$char_traits@D@std@@V?$allocator@D@2@@2@_N_J_KNVallocator@2@Uadl_serializer@nlohmann@@@nlohmann@@@2@XZ 10002f30 f i c_conf.obj
 0001:00001f30       ?_Get_first@?$_Compressed_pair@V?$allocator@V?$basic_json@Vmap@std@@Vvector@2@V?$basic_string@DU?$char_traits@D@std@@V?$allocator@D@2@@2@_N_J_KNVallocator@2@Uadl_serializer@nlohmann@@@nlohmann@@@std@@V?$_Vector_val@U?$_Simple_types@V?$basic_json@Vmap@std@@Vvector@2@V?$basic_string@DU?$char_traits@D@std@@V?$allocator@D@2@@2@_N_J_KNVallocator@2@Uadl_serializer@nlohmann@@@nlohmann@@@std@@@2@$00@std@@QBEABV?$allocator@V?$basic_json@Vmap@std@@Vvector@2@V?$basic_string@DU?$char_traits@D@std@@V?$allocator@D@2@@2@_N_J_KNVallocator@2@Uadl_serializer@nlohmann@@@nlohmann@@@2@XZ 10002f30 f i c_conf.obj
 0001:00001f30       ?_Get_first@?$_Compressed_pair@V<lambda_1>@?1???$create@V?$map@V?$basic_string@DU?$char_traits@D@std@@V?$allocator@D@2@@std@@V?$basic_json@Vmap@std@@Vvector@2@V?$basic_string@DU?$char_traits@D@std@@V?$allocator@D@2@@2@_N_J_KNVallocator@2@Uadl_serializer@nlohmann@@@nlohmann@@U?$less@X@2@V?$allocator@U?$pair@$$CBV?$basic_string@DU?$char_traits@D@std@@V?$allocator@D@2@@std@@V?$basic_json@Vmap@std@@Vvector@2@V?$basic_string@DU?$char_traits@D@std@@V?$allocator@D@2@@2@_N_J_KNVallocator@2@Uadl_serializer@nlohmann@@@nlohmann@@@std@@@2@@std@@$$V@?$basic_json@Vmap@std@@Vvector@2@V?$basic_string@DU?$char_traits@D@std@@V?$allocator@D@2@@2@_N_J_KNVallocator@2@Uadl_serializer@nlohmann@@@nlohmann@@CAPAV?$map@V?$basic_string@DU?$char_traits@D@std@@V?$allocator@D@2@@std@@V?$basic_json@Vmap@std@@Vvector@2@V?$basic_string@DU?$char_traits@D@std@@V?$allocator@D@2@@2@_N_J_KNVallocator@2@Uadl_serializer@nlohmann@@@nlohmann@@U?$less@X@2@V?$allocator@U?$pair@$$CBV?$basic_string@DU?$char_traits@D@std@@V?$allocator@D@2@@std@@V?$basic_json@Vmap@std@@Vvector@2@V?$basic_string@DU?$char_traits@D@std@@V?$allocator@D@2@@2@_N_J_KNVallocator@2@Uadl_serializer@nlohmann@@@nlohmann@@@std@@@2@@std@@XZ@PAV45@$0A@@std@@QAEAAV<lambda_1>@?1???$create@V?$map@V?$basic_string@DU?$char_traits@D@std@@V?$allocator@D@2@@std@@V?$basic_json@Vmap@std@@Vvector@2@V?$basic_string@DU?$char_traits@D@std@@V?$allocator@D@2@@2@_N_J_KNVallocator@2@Uadl_serializer@nlohmann@@@nlohmann@@U?$less@X@2@V?$allocator@U?$pair@$$CBV?$basic_string@DU?$char_traits@D@std@@V?$allocator@D@2@@std@@V?$basic_json@Vmap@std@@Vvector@2@V?$basic_string@DU?$char_traits@D@std@@V?$allocator@D@2@@2@_N_J_KNVallocator@2@Uadl_serializer@nlohmann@@@nlohmann@@@std@@@2@@std@@$$V@?$basic_json@Vmap@std@@Vvector@2@V?$basic_string@DU?$char_traits@D@std@@V?$allocator@D@2@@2@_N_J_KNVallocator@2@Uadl_serializer@nlohmann@@@nlohmann@@CAPAV?$map@V?$basic_string@DU?$char_traits@D@std@@V?$allocator@D@2@@std@@V?$basic_json@Vmap@std@@Vvector@2@V?$basic_string@DU?$char_traits@D@std@@V?$allocator@D@2@@2@_N_J_KNVallocator@2@Uadl_serializer@nlohmann@@@nlohmann@@U?$less@X@2@V?$allocator@U?$pair@$$CBV?$basic_string@DU?$char_traits@D@std@@V?$allocator@D@2@@std@@V?$basic_json@Vmap@std@@Vvector@2@V?$basic_string@DU?$char_traits@D@std@@V?$allocator@D@2@@2@_N_J_KNVallocator@2@Uadl_serializer@nlohmann@@@nlohmann@@@std@@@2@@2@XZ@XZ 10002f30 f i c_conf.obj
 0001:00001f30       ?_Get@?$_Optional_construct_base@Uaim_info@c_aimhelper@@@std@@QGBEABUaim_info@c_aimhelper@@XZ 10002f30 f i c_antiaim.obj
 0001:00001f30       ?_Get_first@?$_Compressed_pair@V?$allocator@Uaim_info@c_aimhelper@@@std@@V?$_Vector_val@U?$_Simple_types@Uaim_info@c_aimhelper@@@std@@@2@$00@std@@QAEAAV?$allocator@Uaim_info@c_aimhelper@@@2@XZ 10002f30 f i c_aimhelper.obj
 0001:00001f30       ??0?$allocator@U?$pair@V?$basic_string@DU?$char_traits@D@std@@V?$allocator@D@2@@std@@D@std@@@std@@QAE@XZ 10002f30 f i c_menu.obj
 0001:00001f30       ?_Get_first@?$_Compressed_pair@V<lambda_1>@?1???$create@V?$basic_string@DU?$char_traits@D@std@@V?$allocator@D@2@@std@@V12@@?$basic_json@Vmap@std@@Vvector@2@V?$basic_string@DU?$char_traits@D@std@@V?$allocator@D@2@@2@_N_J_KNVallocator@2@Uadl_serializer@nlohmann@@@nlohmann@@CAPAV?$basic_string@DU?$char_traits@D@std@@V?$allocator@D@2@@std@@$$QAV45@@Z@PAV45@$0A@@std@@QAEAAV<lambda_1>@?1???$create@V?$basic_string@DU?$char_traits@D@std@@V?$allocator@D@2@@std@@V12@@?$basic_json@Vmap@std@@Vvector@2@V?$basic_string@DU?$char_traits@D@std@@V?$allocator@D@2@@2@_N_J_KNVallocator@2@Uadl_serializer@nlohmann@@@nlohmann@@CAPAV?$basic_string@DU?$char_traits@D@std@@V?$allocator@D@2@@2@$$QAV62@@Z@XZ 10002f30 f i c_conf.obj
 0001:00001f30       ?_Get_first@?$_Compressed_pair@V?$allocator@U?$_List_node@U?$pair@QAVc_hotkey_select@@V?$function@$$A6AXI@Z@std@@@std@@PAX@std@@@std@@V?$_List_val@U?$_List_simple_types@U?$pair@QAVc_hotkey_select@@V?$function@$$A6AXI@Z@std@@@std@@@std@@@2@$00@std@@QAEAAV?$allocator@U?$_List_node@U?$pair@QAVc_hotkey_select@@V?$function@$$A6AXI@Z@std@@@std@@PAX@std@@@2@XZ 10002f30 f i c_fake_ping.obj
 0001:00001f30       ?_Get_first@?$_Compressed_pair@V?$allocator@U?$_Tree_node@U?$pair@$$CBV?$basic_string@DU?$char_traits@D@std@@V?$allocator@D@2@@std@@V?$basic_json@Vmap@std@@Vvector@2@V?$basic_string@DU?$char_traits@D@std@@V?$allocator@D@2@@2@_N_J_KNVallocator@2@Uadl_serializer@nlohmann@@@nlohmann@@@std@@PAX@std@@@std@@V?$_Tree_val@U?$_Tree_simple_types@U?$pair@$$CBV?$basic_string@DU?$char_traits@D@std@@V?$allocator@D@2@@std@@V?$basic_json@Vmap@std@@Vvector@2@V?$basic_string@DU?$char_traits@D@std@@V?$allocator@D@2@@2@_N_J_KNVallocator@2@Uadl_serializer@nlohmann@@@nlohmann@@@std@@@std@@@2@$00@std@@QAEAAV?$allocator@U?$_Tree_node@U?$pair@$$CBV?$basic_string@DU?$char_traits@D@std@@V?$allocator@D@2@@std@@V?$basic_json@Vmap@std@@Vvector@2@V?$basic_string@DU?$char_traits@D@std@@V?$allocator@D@2@@2@_N_J_KNVallocator@2@Uadl_serializer@nlohmann@@@nlohmann@@@std@@PAX@std@@@2@XZ 10002f30 f i c_conf.obj
 0001:00001f30       ?_Get_first@?$_Compressed_pair@V?$allocator@U?$_List_node@U?$pair@$$CBIUnetvar@c_netvar@@@std@@PAX@std@@@std@@V?$_List_val@U?$_List_simple_types@U?$pair@$$CBIUnetvar@c_netvar@@@std@@@std@@@2@$00@std@@QBEABV?$allocator@U?$_List_node@U?$pair@$$CBIUnetvar@c_netvar@@@std@@PAX@std@@@2@XZ 10002f30 f i c_aimhelper.obj
 0001:00001f30       ?_Get_data@?$basic_string@_WU?$char_traits@_W@std@@V?$allocator@_W@2@@std@@ABEABV?$_String_val@U?$_Simple_types@_W@std@@@2@XZ 10002f30 f i c_miscellaneous.obj
 0001:00001f30       ?_Get@?$_Optional_construct_base@V?$tuple@Vc_vector3d@@MPAUanimation@c_animation_system@@@std@@@std@@QGBEABV?$tuple@Vc_vector3d@@MPAUanimation@c_animation_system@@@2@XZ 10002f30 f i c_antiaim.obj
 0001:00001f40       ??0?$basic_filebuf@DU?$char_traits@D@std@@@std@@QAE@PAU_iobuf@@@Z 10002f40 f i dll.obj
 0001:00001fb0       ??0?$basic_string@DU?$char_traits@D@std@@V?$allocator@D@2@@std@@QAE@XZ 10002fb0 f i dll.obj
 0001:00002020       ??0?$fpos@U_Mbstatet@@@std@@QAE@U_Mbstatet@@_J@Z 10003020 f i dll.obj
 0001:00002060       ??0?$fpos@U_Mbstatet@@@std@@QAE@_J@Z 10003060 f i dll.obj
 0001:000020a0       ??0bad_cast@std@@QAE@ABV01@@Z 100030a0 f i dll.obj
 0001:000020d0       ??0bad_cast@std@@QAE@XZ    100030d0 f i dll.obj
 0001:00002100       ??0exception@std@@QAE@ABV01@@Z 10003100 f i dll.obj
 0001:00002140       ??0exception@std@@QAE@QBDH@Z 10003140 f i dll.obj
 0001:00002170       ??1?$_Deque_iterator@V?$_Deque_val@U?$_Deque_simple_types@Ushot@resolver@@@std@@@std@@@std@@QAE@XZ 10003170 f i c_resolver.obj
 0001:00002170       ??1?$_Compressed_pair@V?$allocator@_W@std@@V?$_String_val@U?$_Simple_types@_W@std@@@2@$00@std@@QAE@XZ 10003170 f i c_miscellaneous.obj
 0001:00002170       ??1?$_Compressed_pair@V?$allocator@D@std@@V?$_String_val@U?$_Simple_types@D@std@@@2@$00@std@@QAE@XZ 10003170 f i dll.obj
 0001:00002170       ??1?$_Deque_iterator@V?$_Deque_val@U?$_Deque_simple_types@Uanimation@c_animation_system@@@std@@@std@@@std@@QAE@XZ 10003170 f i c_animation_system.obj
 0001:00002190       ??1?$_String_val@U?$_Simple_types@_W@std@@@std@@QAE@XZ 10003190 f i c_miscellaneous.obj
 0001:00002190       ??1?$_Ref_count_obj@Vc_checkbox_inner@c_checkbox@@@std@@UAE@XZ 10003190 f i c_checkbox.obj
 0001:00002190       ??1?$_Ref_count_obj@Vc_navbar_tab@@@std@@UAE@XZ 10003190 f i c_navbar.obj
 0001:00002190       ??1?$_Ref_count_obj@Vinput_buffer_adapter@detail@nlohmann@@@std@@UAE@XZ 10003190 f i c_conf.obj
 0001:00002190       ??1?$_Ref_count_obj@Vc_float_select@@@std@@UAE@XZ 10003190 f i c_aiming.obj
 0001:00002190       ??1?$_Ref_count_obj@Vc_text@@@std@@UAE@XZ 10003190 f i c_checkbox.obj
 0001:00002190       ??1?$_Ref_count_obj@Vc_button@@@std@@UAE@XZ 10003190 f i c_conf.obj
 0001:00002190       ??1?$_Deque_const_iterator@V?$_Deque_val@U?$_Deque_simple_types@Ushot@resolver@@@std@@@std@@@std@@QAE@XZ 10003190 f i c_resolver.obj
 0001:00002190       ??1c_events@@UAE@XZ        10003190 f i c_events.obj
 0001:00002190       ??1?$_Ref_count_obj@Vc_conf@@@std@@UAE@XZ 10003190 f i c_menu.obj
 0001:00002190       ??1?$_Ref_count_obj@Vc_visuals@@@std@@UAE@XZ 10003190 f i c_menu.obj
 0001:00002190       ??1?$_Ref_count_obj@Vc_color_select_preview@c_color_select@@@std@@UAE@XZ 10003190 f i c_color_select.obj
 0001:00002190       ??1?$_Ref_count_obj@Vc_flow_layout@@@std@@UAE@XZ 10003190 f i c_menu.obj
 0001:00002190       ??1?$_Ref_count_obj@Vc_router@@@std@@UAE@XZ 10003190 f i c_menu.obj
 0001:00002190       ??1?$_Ref_count_obj@V?$output_string_adapter@DV?$basic_string@DU?$char_traits@D@std@@V?$allocator@D@2@@std@@@detail@nlohmann@@@std@@UAE@XZ 10003190 f i c_conf.obj
 0001:00002190       ??1input_buffer_adapter@detail@nlohmann@@UAE@XZ 10003190 f i c_conf.obj
 0001:00002190       ??1?$_Ref_count_obj@Vc_hotkey_select@@@std@@UAE@XZ 10003190 f i c_aiming.obj
 0001:00002190       ??1?$_Ref_count_obj@Vc_image@@@std@@UAE@XZ 10003190 f i c_menu.obj
 0001:00002190       ??1?$_Deque_const_iterator@V?$_Deque_val@U?$_Deque_simple_types@Uanimation@c_animation_system@@@std@@@std@@@std@@QAE@XZ 10003190 f i c_animation_system.obj
 0001:00002190       ??1?$output_string_adapter@DV?$basic_string@DU?$char_traits@D@std@@V?$allocator@D@2@@std@@@detail@nlohmann@@UAE@XZ 10003190 f i c_conf.obj
 0001:00002190       ??1?$_Ref_count_obj@Vc_navbar@@@std@@UAE@XZ 10003190 f i c_menu.obj
 0001:00002190       ??1?$_Ref_count_obj@Vc_color_select@@@std@@UAE@XZ 10003190 f i c_visuals.obj
 0001:00002190       ??1?$_Ref_count_obj@Vc_welcome_message@@@std@@UAE@XZ 10003190 f i c_menu.obj
 0001:00002190       ??1?$_Ref_count_obj@Vc_misc@@@std@@UAE@XZ 10003190 f i c_menu.obj
 0001:00002190       ??1?$_Ref_count_obj@Vc_select@@@std@@UAE@XZ 10003190 f i c_misc.obj
 0001:00002190       ??1?$_Ref_count_obj@Vc_aiming@@@std@@UAE@XZ 10003190 f i c_menu.obj
 0001:00002190       ??1?$_String_val@U?$_Simple_types@D@std@@@std@@QAE@XZ 10003190 f i dll.obj
 0001:00002190       ??1?$_Ref_count_obj@Vc_checkbox@@@std@@UAE@XZ 10003190 f i c_aiming.obj
 0001:00002190       ??1?$_Ref_count_obj@Vc_group_box@@@std@@UAE@XZ 10003190 f i c_aiming.obj
 0001:000021b0       ??1?$basic_filebuf@DU?$char_traits@D@std@@@std@@UAE@XZ 100031b0 f i dll.obj
 0001:00002220       ??1?$basic_string@DU?$char_traits@D@std@@V?$allocator@D@2@@std@@QAE@XZ 10003220 f i dll.obj
 0001:00002240       ??1?$unique_ptr@V_Facet_base@std@@U?$default_delete@V_Facet_base@std@@@2@@std@@QAE@XZ 10003240 f i dll.obj
 0001:00002280       ?_Release@_Fake_proxy_ptr_impl@std@@QAEXXZ 10003280 f i c_damage_esp.obj
 0001:00002280       ??R<lambda_2_>@@QBEXXZ     10003280 f i c_conf.obj
 0001:00002280       ??1_Ref_count_base@std@@UAE@XZ 10003280 f i c_aiming.obj
 0001:00002280       ?_Orphan_non_end@?$list@U?$pair@$$CBIU?$pair@HH@std@@@std@@V?$allocator@U?$pair@$$CBIU?$pair@HH@std@@@std@@@2@@std@@AAEXXZ 10003280 f i c_esp.obj
 0001:00002280       ?_Orphan_non_end@?$list@U?$pair@$$CBIVc_font@@@std@@V?$allocator@U?$pair@$$CBIVc_font@@@std@@@2@@std@@AAEXXZ 10003280 f i c_renderer.obj
 0001:00002280       ??1_Bxty@?$_String_val@U?$_Simple_types@D@std@@@std@@QAE@XZ 10003280 f i dll.obj
 0001:00002280       ??1c_color@@QAE@XZ         10003280 f i c_color.obj
 0001:00002280       ?_Orphan_non_end@?$list@U?$pair@$$CBIUanimation_info@c_animation_system@@@std@@V?$allocator@U?$pair@$$CBIUanimation_info@c_animation_system@@@std@@@2@@std@@AAEXXZ 10003280 f i c_animation_system.obj
 0001:00002280       ??1c_user_cmd@@UAE@XZ      10003280 f i c_antiaim.obj
 0001:00002280       ??1_Bxty@?$_String_val@U?$_Simple_types@_W@std@@@std@@QAE@XZ 10003280 f i c_miscellaneous.obj
 0001:00002280       ?_Orphan_non_end@?$list@U?$pair@QAVc_hotkey_select@@V?$function@$$A6AXI@Z@std@@@std@@V?$allocator@U?$pair@QAVc_hotkey_select@@V?$function@$$A6AXI@Z@std@@@std@@@2@@std@@AAEXXZ 10003280 f i c_hotkeys.obj
 0001:00002280       ??1?$output_adapter_protocol@D@detail@nlohmann@@UAE@XZ 10003280 f i c_conf.obj
 0001:00002280       ??1c_game_event_listener@@UAE@XZ 10003280 f i c_events.obj
 0001:00002280       ?on_change@c_select@@UAEXXZ 10003280 f i c_select.obj
 0001:00002280       ??1_Iterator_base12@std@@QAE@XZ 10003280 f i c_animation_system.obj
 0001:00002280       ?on_hold@c_drawable@@UAEXXZ 10003280 f i c_aiming.obj
 0001:00002280       ?_Orphan_non_end@?$list@U?$pair@$$CBIV?$unordered_map@IUnetvar@c_netvar@@U?$hash@I@std@@U?$equal_to@I@4@V?$allocator@U?$pair@$$CBIUnetvar@c_netvar@@@std@@@4@@std@@@std@@V?$allocator@U?$pair@$$CBIV?$unordered_map@IUnetvar@c_netvar@@U?$hash@I@std@@U?$equal_to@I@4@V?$allocator@U?$pair@$$CBIUnetvar@c_netvar@@@std@@@4@@std@@@std@@@2@@std@@AAEXXZ 10003280 f i c_aimhelper.obj
 0001:00002280       ?_Orphan_all@_Container_base0@std@@QAEXXZ 10003280 f i dll.obj
 0001:00002280       ??1input_adapter_protocol@detail@nlohmann@@UAE@XZ 10003280 f i c_conf.obj
 0001:00002280       ?assert_invariant@?$basic_json@Vmap@std@@Vvector@2@V?$basic_string@DU?$char_traits@D@std@@V?$allocator@D@2@@2@_N_J_KNVallocator@2@Uadl_serializer@nlohmann@@@nlohmann@@ABEXXZ 10003280 f i c_conf.obj
 0001:00002280       ?_Orphan_all@_Container_base12@std@@QAEXXZ 10003280 f i c_animation_system.obj
 0001:00002280       ??1weapon_data@c_base_combat_weapon@@UAE@XZ 10003280 f i c_trace_system.obj
 0001:00002280       ?_Orphan_non_end@?$list@U?$pair@$$CBIUnetvar@c_netvar@@@std@@V?$allocator@U?$pair@$$CBIUnetvar@c_netvar@@@std@@@2@@std@@AAEXXZ 10003280 f i c_aimhelper.obj
 0001:00002290       ??1bad_optional_access@std@@UAE@XZ 10003290 f i c_aimhelper.obj
 0001:00002290       ??1runtime_error@std@@UAE@XZ 10003290 f i c_conf.obj
 0001:00002290       ??1bad_cast@std@@UAE@XZ    10003290 f i dll.obj
 0001:000022b0       ??1exception@std@@UAE@XZ   100032b0 f i dll.obj
 0001:000022e0       ??1locale@std@@QAE@XZ      100032e0 f i dll.obj
 0001:00002340       ??2@YAPAXIPAX@Z            10003340 f i dll.obj
 0001:00002350       ??B?$fpos@U_Mbstatet@@@std@@QBE_JXZ 10003350 f i dll.obj
 0001:00002380       ??D?$_Vector_const_iterator@V?$_Vector_val@U?$_Simple_types@H@std@@@std@@@std@@QBEABHXZ 10003380 f i c_client_state_.obj
 0001:00002380       ?get@?$_Ptr_base@Vc_hotkey_select@@@std@@IBEPAVc_hotkey_select@@XZ 10003380 f i c_aiming.obj
 0001:00002380       ?begin@?$initializer_list@U?$pair@V?$basic_string@DU?$char_traits@D@std@@V?$allocator@D@2@@std@@D@std@@@std@@QBEPBU?$pair@V?$basic_string@DU?$char_traits@D@std@@V?$allocator@D@2@@std@@D@2@XZ 10003380 f i c_menu.obj
 0001:00002380       ?_Unchecked_begin@?$vector@PAUanimation@c_animation_system@@V?$allocator@PAUanimation@c_animation_system@@@std@@@std@@QBEPBQAUanimation@c_animation_system@@XZ 10003380 f i c_aimhelper.obj
 0001:00002380       ?_Unchecked_begin@?$vector@V?$_List_unchecked_iterator@V?$_List_val@U?$_List_simple_types@U?$pair@$$CBIUanimation_info@c_animation_system@@@std@@@std@@@std@@@std@@V?$allocator@V?$_List_unchecked_iterator@V?$_List_val@U?$_List_simple_types@U?$pair@$$CBIUanimation_info@c_animation_system@@@std@@@std@@@std@@@std@@@2@@std@@QAEPAV?$_List_unchecked_iterator@V?$_List_val@U?$_List_simple_types@U?$pair@$$CBIUanimation_info@c_animation_system@@@std@@@std@@@std@@@2@XZ 10003380 f i c_animation_system.obj
 0001:00002380       ?_Unchecked_begin@?$vector@V?$_List_unchecked_iterator@V?$_List_val@U?$_List_simple_types@U?$pair@$$CBIUnetvar@c_netvar@@@std@@@std@@@std@@@std@@V?$allocator@V?$_List_unchecked_iterator@V?$_List_val@U?$_List_simple_types@U?$pair@$$CBIUnetvar@c_netvar@@@std@@@std@@@std@@@std@@@2@@std@@QAEPAV?$_List_unchecked_iterator@V?$_List_val@U?$_List_simple_types@U?$pair@$$CBIUnetvar@c_netvar@@@std@@@std@@@std@@@2@XZ 10003380 f i c_aimhelper.obj
 0001:00002380       ?get@?$_Ptr_base@Vc_color_select@@@std@@IBEPAVc_color_select@@XZ 10003380 f i c_visuals.obj
 0001:00002380       ?_Unchecked_begin@?$vector@W4hitbox@c_cs_player@@V?$allocator@W4hitbox@c_cs_player@@@std@@@std@@QAEPAW4hitbox@c_cs_player@@XZ 10003380 f i c_ragebot.obj
 0001:00002380       ?_Unchecked_begin@?$vector@U?$pair@PAVc_cs_player@@M@std@@V?$allocator@U?$pair@PAVc_cs_player@@M@std@@@2@@std@@QAEPAU?$pair@PAVc_cs_player@@M@2@XZ 10003380 f i c_chams.obj
 0001:00002380       ?begin@?$initializer_list@U?$pair@$$CBHH@std@@@std@@QBEPBU?$pair@$$CBHH@2@XZ 10003380 f i c_prediction_.obj
 0001:00002380       ?begin@?$initializer_list@PAUanimation@c_animation_system@@@std@@QBEPBQAUanimation@c_animation_system@@XZ 10003380 f i c_aimhelper.obj
 0001:00002380       ?get@?$unique_ptr@Vc_renderer@@U?$default_delete@Vc_renderer@@@std@@@std@@QBEPAVc_renderer@@XZ 10003380 f i idirect3ddevice9.obj
 0001:00002380       ?get@?$_Ptr_base@Vc_checkbox@@@std@@IBEPAVc_checkbox@@XZ 10003380 f i c_aiming.obj
 0001:00002380       ?_Unwrapped@?$_Vector_iterator@V?$_Vector_val@U?$_Simple_types@U?$pair@PAVc_cs_player@@M@std@@@std@@@std@@@std@@QBEPAU?$pair@PAVc_cs_player@@M@2@XZ 10003380 f i c_chams.obj
 0001:00002380       ?get@?$_Ptr_base@Vc_flow_layout@@@std@@IBEPAVc_flow_layout@@XZ 10003380 f i c_menu.obj
 0001:00002380       ??C?$unique_ptr@V?$c_hook@I@@U?$default_delete@V?$c_hook@I@@@std@@@std@@QBEPAV?$c_hook@I@@XZ 10003380 f i c_cs_player_.obj
 0001:00002380       ??D?$_Vector_const_iterator@V?$_Vector_val@U?$_Simple_types@V?$basic_json@Vmap@std@@Vvector@2@V?$basic_string@DU?$char_traits@D@std@@V?$allocator@D@2@@2@_N_J_KNVallocator@2@Uadl_serializer@nlohmann@@@nlohmann@@@std@@@std@@@std@@QBEABV?$basic_json@Vmap@std@@Vvector@2@V?$basic_string@DU?$char_traits@D@std@@V?$allocator@D@2@@2@_N_J_KNVallocator@2@Uadl_serializer@nlohmann@@@nlohmann@@XZ 10003380 f i c_conf.obj
 0001:00002380       ?_Unchecked_begin@?$vector@Uplayer_info@c_esp@@V?$allocator@Uplayer_info@c_esp@@@std@@@std@@QAEPAUplayer_info@c_esp@@XZ 10003380 f i c_esp.obj
 0001:00002380       ?begin@?$initializer_list@E@std@@QBEPBEXZ 10003380 f i c_miscellaneous.obj
 0001:00002380       ?get@?$_Ptr_base@Vc_drawable@@@std@@IBEPAVc_drawable@@XZ 10003380 f i c_aiming.obj
 0001:00002380       ?begin@?$initializer_list@U?$pair@V?$shared_ptr@Vc_drawable@@@std@@U?$pair@Vc_vector2d@@V1@@2@@std@@@std@@QBEPBU?$pair@V?$shared_ptr@Vc_drawable@@@std@@U?$pair@Vc_vector2d@@V1@@2@@2@XZ 10003380 f i c_checkbox.obj
 0001:00002380       ?get@?$_Ptr_base@Vc_visuals@@@std@@IBEPAVc_visuals@@XZ 10003380 f i c_menu.obj
 0001:00002380       ?get@?$_Ptr_base@Uinput_adapter_protocol@detail@nlohmann@@@std@@IBEPAUinput_adapter_protocol@detail@nlohmann@@XZ 10003380 f i c_conf.obj
 0001:00002380       ?get@?$_Ptr_base@Vc_conf@@@std@@IBEPAVc_conf@@XZ 10003380 f i c_menu.obj
 0001:00002380       ?_Unchecked_begin@?$vector@V?$_List_unchecked_iterator@V?$_List_val@U?$_List_simple_types@U?$pair@$$CBIVc_font@@@std@@@std@@@std@@@std@@V?$allocator@V?$_List_unchecked_iterator@V?$_List_val@U?$_List_simple_types@U?$pair@$$CBIVc_font@@@std@@@std@@@std@@@std@@@2@@std@@QAEPAV?$_List_unchecked_iterator@V?$_List_val@U?$_List_simple_types@U?$pair@$$CBIVc_font@@@std@@@std@@@std@@@2@XZ 10003380 f i c_renderer.obj
 0001:00002380       ?begin@?$initializer_list@H@std@@QBEPBHXZ 10003380 f i c_conf.obj
 0001:00002380       ?_Unchecked_begin@?$vector@V?$function@$$A6AXXZ@std@@V?$allocator@V?$function@$$A6AXXZ@std@@@2@@std@@QAEPAV?$function@$$A6AXXZ@2@XZ 10003380 f i c_renderer.obj
 0001:00002380       ?get@?$_Ptr_base@U?$output_adapter_protocol@D@detail@nlohmann@@@std@@IBEPAU?$output_adapter_protocol@D@detail@nlohmann@@XZ 10003380 f i c_conf.obj
 0001:00002380       ??D?$_String_const_iterator@V?$_String_val@U?$_Simple_types@D@std@@@std@@@std@@QBEABDXZ 10003380 f i dll.obj
 0001:00002380       ?_Lmost@?$_Tree_val@U?$_Tree_simple_types@U?$pair@$$CBV?$basic_string@DU?$char_traits@D@std@@V?$allocator@D@2@@std@@V?$basic_json@Vmap@std@@Vvector@2@V?$basic_string@DU?$char_traits@D@std@@V?$allocator@D@2@@2@_N_J_KNVallocator@2@Uadl_serializer@nlohmann@@@nlohmann@@@std@@@std@@@std@@QBEAAPAU?$_Tree_node@U?$pair@$$CBV?$basic_string@DU?$char_traits@D@std@@V?$allocator@D@2@@std@@V?$basic_json@Vmap@std@@Vvector@2@V?$basic_string@DU?$char_traits@D@std@@V?$allocator@D@2@@2@_N_J_KNVallocator@2@Uadl_serializer@nlohmann@@@nlohmann@@@std@@PAX@2@XZ 10003380 f i c_conf.obj
 0001:00002380       ?begin@?$initializer_list@V?$json_ref@V?$basic_json@Vmap@std@@Vvector@2@V?$basic_string@DU?$char_traits@D@std@@V?$allocator@D@2@@2@_N_J_KNVallocator@2@Uadl_serializer@nlohmann@@@nlohmann@@@detail@nlohmann@@@std@@QBEPBV?$json_ref@V?$basic_json@Vmap@std@@Vvector@2@V?$basic_string@DU?$char_traits@D@std@@V?$allocator@D@2@@2@_N_J_KNVallocator@2@Uadl_serializer@nlohmann@@@nlohmann@@@detail@nlohmann@@XZ 10003380 f i c_conf.obj
 0001:00002380       ?_Unchecked_begin@?$vector@DV?$allocator@D@std@@@std@@QBEPBDXZ 10003380 f i c_conf.obj
 0001:00002380       ?get@?$_Ptr_base@Vc_aiming@@@std@@IBEPAVc_aiming@@XZ 10003380 f i c_menu.obj
 0001:00002380       ?get@?$_Ptr_base@Vc_select@@@std@@IBEPAVc_select@@XZ 10003380 f i c_misc.obj
 0001:00002380       ?_Unchecked_begin@?$vector@V?$_List_unchecked_iterator@V?$_List_val@U?$_List_simple_types@U?$pair@$$CBIU?$pair@HH@std@@@std@@@std@@@std@@@std@@V?$allocator@V?$_List_unchecked_iterator@V?$_List_val@U?$_List_simple_types@U?$pair@$$CBIU?$pair@HH@std@@@std@@@std@@@std@@@std@@@2@@std@@QAEPAV?$_List_unchecked_iterator@V?$_List_val@U?$_List_simple_types@U?$pair@$$CBIU?$pair@HH@std@@@std@@@std@@@std@@@2@XZ 10003380 f i c_esp.obj
 0001:00002380       ?get@?$_Ptr_base@Vc_misc@@@std@@IBEPAVc_misc@@XZ 10003380 f i c_menu.obj
 0001:00002380       ?_Unchecked_begin@?$vector@V?$_List_unchecked_iterator@V?$_List_val@U?$_List_simple_types@U?$pair@$$CBIV?$unordered_map@IUnetvar@c_netvar@@U?$hash@I@std@@U?$equal_to@I@4@V?$allocator@U?$pair@$$CBIUnetvar@c_netvar@@@std@@@4@@std@@@std@@@std@@@std@@@std@@V?$allocator@V?$_List_unchecked_iterator@V?$_List_val@U?$_List_simple_types@U?$pair@$$CBIV?$unordered_map@IUnetvar@c_netvar@@U?$hash@I@std@@U?$equal_to@I@4@V?$allocator@U?$pair@$$CBIUnetvar@c_netvar@@@std@@@4@@std@@@std@@@std@@@std@@@std@@@2@@std@@QAEPAV?$_List_unchecked_iterator@V?$_List_val@U?$_List_simple_types@U?$pair@$$CBIV?$unordered_map@IUnetvar@c_netvar@@U?$hash@I@std@@U?$equal_to@I@4@V?$allocator@U?$pair@$$CBIUnetvar@c_netvar@@@std@@@4@@std@@@std@@@std@@@std@@@2@XZ 10003380 f i c_aimhelper.obj
 0001:00002380       ?get@?$_Ptr_base@Vc_button@@@std@@IBEPAVc_button@@XZ 10003380 f i c_conf.obj
 0001:00002380       ?_Unchecked_begin@?$vector@V?$_List_unchecked_iterator@V?$_List_val@U?$_List_simple_types@U?$pair@QAVc_hotkey_select@@V?$function@$$A6AXI@Z@std@@@std@@@std@@@std@@@std@@V?$allocator@V?$_List_unchecked_iterator@V?$_List_val@U?$_List_simple_types@U?$pair@QAVc_hotkey_select@@V?$function@$$A6AXI@Z@std@@@std@@@std@@@std@@@std@@@2@@std@@QAEPAV?$_List_unchecked_iterator@V?$_List_val@U?$_List_simple_types@U?$pair@QAVc_hotkey_select@@V?$function@$$A6AXI@Z@std@@@std@@@std@@@std@@@2@XZ 10003380 f i c_hotkeys.obj
 0001:00002380       ?begin@?$initializer_list@V?$shared_ptr@Vc_drawable@@@std@@@std@@QBEPBV?$shared_ptr@Vc_drawable@@@2@XZ 10003380 f i c_color_select.obj
 0001:00002380       ?_Lmost@?$_Tree_val@U?$_Tree_simple_types@U?$pair@$$CBHH@std@@@std@@@std@@QBEAAPAU?$_Tree_node@U?$pair@$$CBHH@std@@PAX@2@XZ 10003380 f i c_prediction_.obj
 0001:00002380       ?_Unchecked_begin@?$vector@V?$function@$$A6AXI@Z@std@@V?$allocator@V?$function@$$A6AXI@Z@std@@@2@@std@@QAEPAV?$function@$$A6AXI@Z@2@XZ 10003380 f i c_hotkeys.obj
 0001:00002380       ?begin@?$initializer_list@V?$basic_string@DU?$char_traits@D@std@@V?$allocator@D@2@@std@@@std@@QBEPBV?$basic_string@DU?$char_traits@D@std@@V?$allocator@D@2@@2@XZ 10003380 f i c_miscellaneous.obj
 0001:00002380       ?get@?$_Ptr_base@Vc_float_select@@@std@@IBEPAVc_float_select@@XZ 10003380 f i c_aiming.obj
 0001:00002380       ?_Unwrapped@?$_Array_const_iterator@D$0EA@@std@@QBEPBDXZ 10003380 f i c_conf.obj
 0001:00002380       ?get@?$unique_ptr@$$BY0A@IU?$default_delete@$$BY0A@I@std@@@std@@QBEPAIXZ 10003380 f i c_client.obj
 0001:00002380       ?_Unchecked_begin@?$vector@Uaim_info@c_aimhelper@@V?$allocator@Uaim_info@c_aimhelper@@@std@@@std@@QAEPAUaim_info@c_aimhelper@@XZ 10003380 f i c_ragebot.obj
 0001:00002380       ?_Unchecked_begin@?$vector@Unade_info@c_esp@@V?$allocator@Unade_info@c_esp@@@std@@@std@@QAEPAUnade_info@c_esp@@XZ 10003380 f i c_esp.obj
 0001:00002380       ?_Unchecked_begin@?$vector@V?$vector@MV?$allocator@M@std@@@std@@V?$allocator@V?$vector@MV?$allocator@M@std@@@std@@@2@@std@@QAEPAV?$vector@MV?$allocator@M@std@@@2@XZ 10003380 f i c_font.obj
 0001:00002380       ?_Unchecked_begin@?$vector@U?$pair@V?$shared_ptr@Vc_drawable@@@std@@U?$pair@Vc_vector2d@@V1@@2@@std@@V?$allocator@U?$pair@V?$shared_ptr@Vc_drawable@@@std@@U?$pair@Vc_vector2d@@V1@@2@@std@@@2@@std@@QAEPAU?$pair@V?$shared_ptr@Vc_drawable@@@std@@U?$pair@Vc_vector2d@@V1@@2@@2@XZ 10003380 f i c_aiming.obj
 0001:00002390       ?get_renderer@idirect3ddevice9@@QBEPAVc_renderer@@XZ 10003390 f i idirect3ddevice9.obj
 0001:00002390       ??$?CU?$output_adapter_protocol@D@detail@nlohmann@@$0A@@?$shared_ptr@U?$output_adapter_protocol@D@detail@nlohmann@@@std@@QBEPAU?$output_adapter_protocol@D@detail@nlohmann@@XZ 10003390 f i c_conf.obj
 0001:00002390       ??D?$_Vector_iterator@V?$_Vector_val@U?$_Simple_types@V?$basic_json@Vmap@std@@Vvector@2@V?$basic_string@DU?$char_traits@D@std@@V?$allocator@D@2@@2@_N_J_KNVallocator@2@Uadl_serializer@nlohmann@@@nlohmann@@@std@@@std@@@std@@QBEAAV?$basic_json@Vmap@std@@Vvector@2@V?$basic_string@DU?$char_traits@D@std@@V?$allocator@D@2@@2@_N_J_KNVallocator@2@Uadl_serializer@nlohmann@@@nlohmann@@XZ 10003390 f i c_conf.obj
 0001:00002390       ??$?CVc_drawable@@$0A@@?$shared_ptr@Vc_drawable@@@std@@QBEPAVc_drawable@@XZ 10003390 f i c_aiming.obj
 0001:00002390       ?_Unwrapped@?$_Array_iterator@D$0EA@@std@@QBEPADXZ 10003390 f i c_conf.obj
 0001:00002390       ??$?CUinput_adapter_protocol@detail@nlohmann@@$0A@@?$shared_ptr@Uinput_adapter_protocol@detail@nlohmann@@@std@@QBEPAUinput_adapter_protocol@detail@nlohmann@@XZ 10003390 f i c_conf.obj
 0001:00002390       ??D?$_Vector_iterator@V?$_Vector_val@U?$_Simple_types@H@std@@@std@@@std@@QBEAAHXZ 10003390 f i c_client_state_.obj
 0001:00002390       ??D?$_String_iterator@V?$_String_val@U?$_Simple_types@D@std@@@std@@@std@@QBEAADXZ 10003390 f i dll.obj
 0001:000023b0       ??R<lambda_1>@?1??push_back@?$basic_string@DU?$char_traits@D@std@@V?$allocator@D@2@@std@@QAEXD@Z@QBEXQADQBDID@Z 100033b0 f i dll.obj
 0001:00002410       ??R?$default_delete@V_Facet_base@std@@@std@@QBEXPAV_Facet_base@1@@Z 10003410 f i dll.obj
 0001:00002450       ??_E?$basic_filebuf@DU?$char_traits@D@std@@@std@@UAEPAXI@Z 10003450 f i dll.obj
 0001:00002450       ??_G?$basic_filebuf@DU?$char_traits@D@std@@@std@@UAEPAXI@Z 10003450 f i dll.obj
 0001:00002480       ??_Eruntime_error@std@@UAEPAXI@Z 10003480 f i c_conf.obj
 0001:00002480       ??_Ebad_cast@std@@UAEPAXI@Z 10003480 f i dll.obj
 0001:00002480       ??_Ebad_optional_access@std@@UAEPAXI@Z 10003480 f i c_aimhelper.obj
 0001:00002480       ??_Gbad_optional_access@std@@UAEPAXI@Z 10003480 f i c_aimhelper.obj
 0001:00002480       ??_Gruntime_error@std@@UAEPAXI@Z 10003480 f i c_conf.obj
 0001:00002480       ??_Gbad_cast@std@@UAEPAXI@Z 10003480 f i dll.obj
 0001:000024b0       ??_Eexception@std@@UAEPAXI@Z 100034b0 f i dll.obj
 0001:000024b0       ??_Gexception@std@@UAEPAXI@Z 100034b0 f i dll.obj
 0001:000024e0       ?BuildImportTable@CWin32PE@@IAEHPAUMEMORYMODULE@@@Z 100034e0 f   dll.obj
 0001:00002730       ?CheckSize@CWin32PE@@IAEHII@Z 10003730 f   dll.obj
 0001:00002760       ?CopySections@CWin32PE@@IAEHPBEIPAU_IMAGE_NT_HEADERS@@PAUMEMORYMODULE@@@Z 10003760 f   dll.obj
 0001:000028c0       ?ExecuteTLS@CWin32PE@@IAEHPAUMEMORYMODULE@@@Z 100038c0 f   dll.obj
 0001:00002940       ?FinalizeSection@CWin32PE@@IAEHPAUMEMORYMODULE@@PAUSECTIONFINALIZEDATA@@@Z 10003940 f   dll.obj
 0001:00002a90       ?FinalizeSections@CWin32PE@@IAEHPAUMEMORYMODULE@@@Z 10003a90 f   dll.obj
 0001:00002c10       ?FreeLibraryFromMemory@CLoad@@QAEXPAX@Z 10003c10 f   dll.obj
 0001:00002d00       ?GetProcAddressFromMemory@CLoad@@QAEP6GHXZPAXPBD@Z 10003d00 f   dll.obj
 0001:00002e90       ?GetRealSectionSize@CWin32PE@@IAEKPAUMEMORYMODULE@@PAU_IMAGE_SECTION_HEADER@@@Z 10003e90 f   dll.obj
 0001:00002ef0       ?LoadFromMemory@CLoad@@QAEPAXPBXI@Z 10003ef0 f   dll.obj
 0001:00002f20       ?MemLoadLibraryEx@CLoad@@AAEPAXPBXIP6APAXPBDPAX@ZP6AP6GHXZ212@ZP6AX22@Z2@Z 10003f20 f   dll.obj
 0001:00003350       ?MemoryDefaultFreeLibrary@@YAXPAX0@Z 10004350 f   dll.obj
 0001:00003360       ?MemoryDefaultGetProcAddress@@YAP6GHXZPAXPBD0@Z 10004360 f   dll.obj
 0001:00003380       ?MemoryDefaultLoadLibrary@@YAPAXPBDPAX@Z 10004380 f   dll.obj
 0001:000033b0       ?PerformBaseRelocation@CWin32PE@@IAEHPAUMEMORYMODULE@@H@Z 100043b0 f   dll.obj
 0001:000034c0       ?_Adjust_manually_vector_aligned@std@@YAXAAPAXAAI@Z 100044c0 f i dll.obj
 0001:00003530       ?_Verify_offset@?$_Vector_const_iterator@V?$_Vector_val@U?$_Simple_types@Uimpact_info@@@std@@@std@@@std@@QBEXH@Z 10004530 f i c_hitmarker.obj
 0001:00003530       ?_Compat@?$_Vector_const_iterator@V?$_Vector_val@U?$_Simple_types@H@std@@@std@@@std@@QBEXABV12@@Z 10004530 f i c_client_state_.obj
 0001:00003530       ?_Verify_offset@?$_Vector_const_iterator@V?$_Vector_val@U?$_Simple_types@Uhitmarker_info@@@std@@@std@@@std@@QBEXH@Z 10004530 f i c_hitmarker.obj
 0001:00003530       ?_Orphan_ptr@?$_Tree_val@U?$_Tree_simple_types@U?$pair@$$CBV?$basic_string@DU?$char_traits@D@std@@V?$allocator@D@2@@std@@V?$basic_json@Vmap@std@@Vvector@2@V?$basic_string@DU?$char_traits@D@std@@V?$allocator@D@2@@2@_N_J_KNVallocator@2@Uadl_serializer@nlohmann@@@nlohmann@@@std@@@std@@@std@@QAEXQAU?$_Tree_node@U?$pair@$$CBV?$basic_string@DU?$char_traits@D@std@@V?$allocator@D@2@@std@@V?$basic_json@Vmap@std@@Vvector@2@V?$basic_string@DU?$char_traits@D@std@@V?$allocator@D@2@@2@_N_J_KNVallocator@2@Uadl_serializer@nlohmann@@@nlohmann@@@std@@PAX@2@@Z 10004530 f i c_conf.obj
 0001:00003530       ?_Alloc_proxy@_Container_base0@std@@QAEXABU_Fake_allocator@2@@Z 10004530 f i dll.obj
 0001:00003530       ?_Verify_offset@?$_Deque_const_iterator@V?$_Deque_val@U?$_Deque_simple_types@Uanimation@c_animation_system@@@std@@@std@@@std@@QBEXH@Z 10004530 f i c_animation_system.obj
 0001:00003530       ?_Compat@?$_Vector_const_iterator@V?$_Vector_val@U?$_Simple_types@V?$basic_json@Vmap@std@@Vvector@2@V?$basic_string@DU?$char_traits@D@std@@V?$allocator@D@2@@2@_N_J_KNVallocator@2@Uadl_serializer@nlohmann@@@nlohmann@@@std@@@std@@@std@@QBEXABV12@@Z 10004530 f i c_conf.obj
 0001:00003530       ?_Compat@?$_Deque_const_iterator@V?$_Deque_val@U?$_Deque_simple_types@Ushot@resolver@@@std@@@std@@@std@@QBEXABV12@@Z 10004530 f i c_resolver.obj
 0001:00003530       ?_Adopt@_Iterator_base0@std@@QAEXPBX@Z 10004530 f i dll.obj
 0001:00003530       ?_Verify_offset@?$_Vector_const_iterator@V?$_Vector_val@U?$_Simple_types@V?$basic_json@Vmap@std@@Vvector@2@V?$basic_string@DU?$char_traits@D@std@@V?$allocator@D@2@@2@_N_J_KNVallocator@2@Uadl_serializer@nlohmann@@@nlohmann@@@std@@@std@@@std@@QBEXH@Z 10004530 f i c_conf.obj
 0001:00003530       ?_Compat@?$_Deque_const_iterator@V?$_Deque_val@U?$_Deque_simple_types@Uanimation@c_animation_system@@@std@@@std@@@std@@QBEXABV12@@Z 10004530 f i c_animation_system.obj
 0001:00003530       ?_Compat@?$_String_const_iterator@V?$_String_val@U?$_Simple_types@D@std@@@std@@@std@@QBEXABV12@@Z 10004530 f i c_conf.obj
 0001:00003530       ?_Verify_offset@?$_Deque_const_iterator@V?$_Deque_val@U?$_Deque_simple_types@Ushot@resolver@@@std@@@std@@@std@@QBEXH@Z 10004530 f i c_resolver.obj
 0001:00003530       ?_Swap_proxy_and_iterators@_Container_base0@std@@QAEXAAU12@@Z 10004530 f i c_aimhelper.obj
 0001:00003530       ?_Verify_offset@?$_String_const_iterator@V?$_String_val@U?$_Simple_types@D@std@@@std@@@std@@QBEXH@Z 10004530 f i c_damage_esp.obj
 0001:00003540       ?_Allocate@_Default_allocate_traits@std@@SAPAXI@Z 10004540 f i dll.obj
 0001:00003560       ?_Calculate_growth@?$basic_string@DU?$char_traits@D@std@@V?$allocator@D@2@@std@@ABEII@Z 10004560 f i dll.obj
 0001:000035e0       ?_Check_offset@?$_String_val@U?$_Simple_types@D@std@@@std@@QBEXI@Z 100045e0 f i dll.obj
 0001:00003600       ?_Clamp_suffix_size@?$_String_val@U?$_Simple_types@D@std@@@std@@QBEIII@Z 10004600 f i dll.obj
 0001:00003630       ?_Endwrite@?$basic_filebuf@DU?$char_traits@D@std@@@std@@IAE_NXZ 10004630 f i dll.obj
 0001:00003760       ?_Getal@?$list@U?$pair@QAVc_hotkey_select@@V?$function@$$A6AXI@Z@std@@@std@@V?$allocator@U?$pair@QAVc_hotkey_select@@V?$function@$$A6AXI@Z@std@@@std@@@2@@std@@AAEAAV?$allocator@U?$_List_node@U?$pair@QAVc_hotkey_select@@V?$function@$$A6AXI@Z@std@@@std@@PAX@std@@@2@XZ 10004760 f i c_fake_ping.obj
 0001:00003760       ?_Max_bucket_size@?$_Hash@V?$_Umap_traits@PAVc_hotkey_select@@V?$function@$$A6AXI@Z@std@@V?$_Uhash_compare@PAVc_hotkey_select@@U?$hash@PAVc_hotkey_select@@@std@@U?$equal_to@PAVc_hotkey_select@@@3@@3@V?$allocator@U?$pair@QAVc_hotkey_select@@V?$function@$$A6AXI@Z@std@@@std@@@3@$0A@@std@@@std@@IAEAAMXZ 10004760 f i c_hotkeys.obj
 0001:00003760       ?_Getal@?$vector@U?$pair@V?$basic_string@DU?$char_traits@D@std@@V?$allocator@D@2@@std@@D@std@@V?$allocator@U?$pair@V?$basic_string@DU?$char_traits@D@std@@V?$allocator@D@2@@std@@D@std@@@2@@std@@AAEAAV?$allocator@U?$pair@V?$basic_string@DU?$char_traits@D@std@@V?$allocator@D@2@@std@@D@std@@@2@XZ 10004760 f i c_menu.obj
 0001:00003760       ?_Myhead@?$list@U?$pair@QAVc_hotkey_select@@V?$function@$$A6AXI@Z@std@@@std@@V?$allocator@U?$pair@QAVc_hotkey_select@@V?$function@$$A6AXI@Z@std@@@std@@@2@@std@@ABEABQAU?$_List_node@U?$pair@QAVc_hotkey_select@@V?$function@$$A6AXI@Z@std@@@std@@PAX@2@XZ 10004760 f i c_hotkeys.obj
 0001:00003760       ?_Getal@?$vector@Uimpact_info@@V?$allocator@Uimpact_info@@@std@@@std@@ABEABV?$allocator@Uimpact_info@@@2@XZ 10004760 f i c_hitmarker.obj
 0001:00003760       ?_Getal@?$vector@V?$_List_unchecked_iterator@V?$_List_val@U?$_List_simple_types@U?$pair@$$CBIV?$unordered_map@IUnetvar@c_netvar@@U?$hash@I@std@@U?$equal_to@I@4@V?$allocator@U?$pair@$$CBIUnetvar@c_netvar@@@std@@@4@@std@@@std@@@std@@@std@@@std@@V?$allocator@V?$_List_unchecked_iterator@V?$_List_val@U?$_List_simple_types@U?$pair@$$CBIV?$unordered_map@IUnetvar@c_netvar@@U?$hash@I@std@@U?$equal_to@I@4@V?$allocator@U?$pair@$$CBIUnetvar@c_netvar@@@std@@@4@@std@@@std@@@std@@@std@@@std@@@2@@std@@ABEABV?$allocator@V?$_List_unchecked_iterator@V?$_List_val@U?$_List_simple_types@U?$pair@$$CBIV?$unordered_map@IUnetvar@c_netvar@@U?$hash@I@std@@U?$equal_to@I@4@V?$allocator@U?$pair@$$CBIUnetvar@c_netvar@@@std@@@4@@std@@@std@@@std@@@std@@@std@@@2@XZ 10004760 f i c_aimhelper.obj
 0001:00003760       ?_Myhead@?$list@U?$pair@$$CBIV?$unordered_map@IUnetvar@c_netvar@@U?$hash@I@std@@U?$equal_to@I@4@V?$allocator@U?$pair@$$CBIUnetvar@c_netvar@@@std@@@4@@std@@@std@@V?$allocator@U?$pair@$$CBIV?$unordered_map@IUnetvar@c_netvar@@U?$hash@I@std@@U?$equal_to@I@4@V?$allocator@U?$pair@$$CBIUnetvar@c_netvar@@@std@@@4@@std@@@std@@@2@@std@@AAEAAPAU?$_List_node@U?$pair@$$CBIV?$unordered_map@IUnetvar@c_netvar@@U?$hash@I@std@@U?$equal_to@I@4@V?$allocator@U?$pair@$$CBIUnetvar@c_netvar@@@std@@@4@@std@@@std@@PAX@2@XZ 10004760 f i c_aimhelper.obj
 0001:00003760       ?_Getal@?$list@U?$pair@QAVc_hotkey_select@@V?$function@$$A6AXI@Z@std@@@std@@V?$allocator@U?$pair@QAVc_hotkey_select@@V?$function@$$A6AXI@Z@std@@@std@@@2@@std@@ABEABV?$allocator@U?$_List_node@U?$pair@QAVc_hotkey_select@@V?$function@$$A6AXI@Z@std@@@std@@PAX@std@@@2@XZ 10004760 f i c_hotkeys.obj
 0001:00003760       ?_Max_bucket_size@?$_Hash@V?$_Umap_traits@IUnetvar@c_netvar@@V?$_Uhash_compare@IU?$hash@I@std@@U?$equal_to@I@2@@std@@V?$allocator@U?$pair@$$CBIUnetvar@c_netvar@@@std@@@4@$0A@@std@@@std@@IBEABMXZ 10004760 f i c_aimhelper.obj
 0001:00003760       ?_Myhead@?$list@U?$pair@$$CBIU?$pair@HH@std@@@std@@V?$allocator@U?$pair@$$CBIU?$pair@HH@std@@@std@@@2@@std@@ABEABQAU?$_List_node@U?$pair@$$CBIU?$pair@HH@std@@@std@@PAX@2@XZ 10004760 f i c_esp.obj
 0001:00003760       ?_Getal@?$_Tree@V?$_Tmap_traits@V?$basic_string@DU?$char_traits@D@std@@V?$allocator@D@2@@std@@V?$basic_json@Vmap@std@@Vvector@2@V?$basic_string@DU?$char_traits@D@std@@V?$allocator@D@2@@2@_N_J_KNVallocator@2@Uadl_serializer@nlohmann@@@nlohmann@@U?$less@X@2@V?$allocator@U?$pair@$$CBV?$basic_string@DU?$char_traits@D@std@@V?$allocator@D@2@@std@@V?$basic_json@Vmap@std@@Vvector@2@V?$basic_string@DU?$char_traits@D@std@@V?$allocator@D@2@@2@_N_J_KNVallocator@2@Uadl_serializer@nlohmann@@@nlohmann@@@std@@@2@$0A@@std@@@std@@IAEAAV?$allocator@U?$_Tree_node@U?$pair@$$CBV?$basic_string@DU?$char_traits@D@std@@V?$allocator@D@2@@std@@V?$basic_json@Vmap@std@@Vvector@2@V?$basic_string@DU?$char_traits@D@std@@V?$allocator@D@2@@2@_N_J_KNVallocator@2@Uadl_serializer@nlohmann@@@nlohmann@@@std@@PAX@std@@@2@XZ 10004760 f i c_conf.obj
 0001:00003760       ?_Getal@?$vector@V?$basic_string@DU?$char_traits@D@std@@V?$allocator@D@2@@std@@V?$allocator@V?$basic_string@DU?$char_traits@D@std@@V?$allocator@D@2@@std@@@2@@std@@ABEABV?$allocator@V?$basic_string@DU?$char_traits@D@std@@V?$allocator@D@2@@std@@@2@XZ 10004760 f i c_miscellaneous.obj
 0001:00003760       ?_Getal@?$vector@Uhitmarker_info@@V?$allocator@Uhitmarker_info@@@std@@@std@@AAEAAV?$allocator@Uhitmarker_info@@@2@XZ 10004760 f i c_hitmarker.obj
 0001:00003760       ?_Getal@?$deque@Uc_incoming_sequence@@V?$allocator@Uc_incoming_sequence@@@std@@@std@@ABEABV?$allocator@Uc_incoming_sequence@@@2@XZ 10004760 f i c_net_channel_.obj
 0001:00003760       ?_Getal@?$_Tree@V?$_Tmap_traits@HHU?$less@H@std@@V?$allocator@U?$pair@$$CBHH@std@@@2@$0A@@std@@@std@@IBEABV?$allocator@U?$_Tree_node@U?$pair@$$CBHH@std@@PAX@std@@@2@XZ 10004760 f i c_prediction_.obj
 0001:00003760       ?_Gethash@?$_Uhash_compare@IU?$hash@I@std@@U?$equal_to@I@2@@std@@QBEABU?$hash@I@2@XZ 10004760 f i c_aimhelper.obj
 0001:00003760       ?_Getal@?$vector@MV?$allocator@M@std@@@std@@AAEAAV?$allocator@M@2@XZ 10004760 f i c_font.obj
 0001:00003760       ?_Getal@?$vector@MV?$allocator@M@std@@@std@@ABEABV?$allocator@M@2@XZ 10004760 f i c_font.obj
 0001:00003760       ?_Getal@?$vector@V?$_List_unchecked_iterator@V?$_List_val@U?$_List_simple_types@U?$pair@$$CBIUnetvar@c_netvar@@@std@@@std@@@std@@@std@@V?$allocator@V?$_List_unchecked_iterator@V?$_List_val@U?$_List_simple_types@U?$pair@$$CBIUnetvar@c_netvar@@@std@@@std@@@std@@@std@@@2@@std@@ABEABV?$allocator@V?$_List_unchecked_iterator@V?$_List_val@U?$_List_simple_types@U?$pair@$$CBIUnetvar@c_netvar@@@std@@@std@@@std@@@std@@@2@XZ 10004760 f i c_aimhelper.obj
 0001:00003760       ?_Getal@?$vector@Uimpact_info@@V?$allocator@Uimpact_info@@@std@@@std@@AAEAAV?$allocator@Uimpact_info@@@2@XZ 10004760 f i c_hitmarker.obj
 0001:00003760       ?_Getal@?$vector@Uaim_info@c_aimhelper@@V?$allocator@Uaim_info@c_aimhelper@@@std@@@std@@ABEABV?$allocator@Uaim_info@c_aimhelper@@@2@XZ 10004760 f i c_aimhelper.obj
 0001:00003760       ?_Myhead@?$list@U?$pair@$$CBIV?$unordered_map@IUnetvar@c_netvar@@U?$hash@I@std@@U?$equal_to@I@4@V?$allocator@U?$pair@$$CBIUnetvar@c_netvar@@@std@@@4@@std@@@std@@V?$allocator@U?$pair@$$CBIV?$unordered_map@IUnetvar@c_netvar@@U?$hash@I@std@@U?$equal_to@I@4@V?$allocator@U?$pair@$$CBIUnetvar@c_netvar@@@std@@@4@@std@@@std@@@2@@std@@ABEABQAU?$_List_node@U?$pair@$$CBIV?$unordered_map@IUnetvar@c_netvar@@U?$hash@I@std@@U?$equal_to@I@4@V?$allocator@U?$pair@$$CBIUnetvar@c_netvar@@@std@@@4@@std@@@std@@PAX@2@XZ 10004760 f i c_aimhelper.obj
 0001:00003760       ?_Max_bucket_size@?$_Hash@V?$_Umap_traits@IVc_font@@V?$_Uhash_compare@IU?$hash@I@std@@U?$equal_to@I@2@@std@@V?$allocator@U?$pair@$$CBIVc_font@@@std@@@3@$0A@@std@@@std@@IBEABMXZ 10004760 f i c_renderer.obj
 0001:00003760       ?_Getal@?$vector@EV?$allocator@E@std@@@std@@AAEAAV?$allocator@E@2@XZ 10004760 f i c_miscellaneous.obj
 0001:00003760       ?_Getal@?$vector@U?$pair@V?$shared_ptr@Vc_drawable@@@std@@U?$pair@Vc_vector2d@@V1@@2@@std@@V?$allocator@U?$pair@V?$shared_ptr@Vc_drawable@@@std@@U?$pair@Vc_vector2d@@V1@@2@@std@@@2@@std@@AAEAAV?$allocator@U?$pair@V?$shared_ptr@Vc_drawable@@@std@@U?$pair@Vc_vector2d@@V1@@2@@std@@@2@XZ 10004760 f i dllmain.obj
 0001:00003760       ?_Getal@?$deque@Uanimation@c_animation_system@@V?$allocator@Uanimation@c_animation_system@@@std@@@std@@AAEAAV?$allocator@Uanimation@c_animation_system@@@2@XZ 10004760 f i c_aimhelper.obj
 0001:00003760       ?_Getal@?$vector@V?$_List_unchecked_iterator@V?$_List_val@U?$_List_simple_types@U?$pair@$$CBIVc_font@@@std@@@std@@@std@@@std@@V?$allocator@V?$_List_unchecked_iterator@V?$_List_val@U?$_List_simple_types@U?$pair@$$CBIVc_font@@@std@@@std@@@std@@@std@@@2@@std@@ABEABV?$allocator@V?$_List_unchecked_iterator@V?$_List_val@U?$_List_simple_types@U?$pair@$$CBIVc_font@@@std@@@std@@@std@@@std@@@2@XZ 10004760 f i c_renderer.obj
 0001:00003760       ?_Getal@?$vector@V?$_List_unchecked_iterator@V?$_List_val@U?$_List_simple_types@U?$pair@$$CBIUnetvar@c_netvar@@@std@@@std@@@std@@@std@@V?$allocator@V?$_List_unchecked_iterator@V?$_List_val@U?$_List_simple_types@U?$pair@$$CBIUnetvar@c_netvar@@@std@@@std@@@std@@@std@@@2@@std@@AAEAAV?$allocator@V?$_List_unchecked_iterator@V?$_List_val@U?$_List_simple_types@U?$pair@$$CBIUnetvar@c_netvar@@@std@@@std@@@std@@@std@@@2@XZ 10004760 f i dllmain.obj
 0001:00003760       ?_Getal@?$vector@HV?$allocator@H@std@@@std@@ABEABV?$allocator@H@2@XZ 10004760 f i c_aimhelper.obj
 0001:00003760       ?_Getal@?$list@U?$pair@$$CBIUnetvar@c_netvar@@@std@@V?$allocator@U?$pair@$$CBIUnetvar@c_netvar@@@std@@@2@@std@@AAEAAV?$allocator@U?$_List_node@U?$pair@$$CBIUnetvar@c_netvar@@@std@@PAX@std@@@2@XZ 10004760 f i dllmain.obj
 0001:00003760       ?_Myhead@?$list@U?$pair@$$CBIUanimation_info@c_animation_system@@@std@@V?$allocator@U?$pair@$$CBIUanimation_info@c_animation_system@@@std@@@2@@std@@ABEABQAU?$_List_node@U?$pair@$$CBIUanimation_info@c_animation_system@@@std@@PAX@2@XZ 10004760 f i c_animation_system.obj
 0001:00003760       ?_Getcomp@?$_Tree@V?$_Tmap_traits@V?$basic_string@DU?$char_traits@D@std@@V?$allocator@D@2@@std@@V?$basic_json@Vmap@std@@Vvector@2@V?$basic_string@DU?$char_traits@D@std@@V?$allocator@D@2@@2@_N_J_KNVallocator@2@Uadl_serializer@nlohmann@@@nlohmann@@U?$less@X@2@V?$allocator@U?$pair@$$CBV?$basic_string@DU?$char_traits@D@std@@V?$allocator@D@2@@std@@V?$basic_json@Vmap@std@@Vvector@2@V?$basic_string@DU?$char_traits@D@std@@V?$allocator@D@2@@2@_N_J_KNVallocator@2@Uadl_serializer@nlohmann@@@nlohmann@@@std@@@2@$0A@@std@@@std@@IAEAAU?$less@X@2@XZ 10004760 f i c_conf.obj
 0001:00003760       ?_Getal@?$vector@V?$function@$$A6AXXZ@std@@V?$allocator@V?$function@$$A6AXXZ@std@@@2@@std@@ABEABV?$allocator@V?$function@$$A6AXXZ@std@@@2@XZ 10004760 f i c_renderer.obj
 0001:00003760       ?_Getal@?$vector@V?$_List_unchecked_iterator@V?$_List_val@U?$_List_simple_types@U?$pair@$$CBIVc_font@@@std@@@std@@@std@@@std@@V?$allocator@V?$_List_unchecked_iterator@V?$_List_val@U?$_List_simple_types@U?$pair@$$CBIVc_font@@@std@@@std@@@std@@@std@@@2@@std@@AAEAAV?$allocator@V?$_List_unchecked_iterator@V?$_List_val@U?$_List_simple_types@U?$pair@$$CBIVc_font@@@std@@@std@@@std@@@std@@@2@XZ 10004760 f i c_damage_esp.obj
 0001:00003760       ?_Getal@?$vector@U?$pair@V?$shared_ptr@Vc_drawable@@@std@@U?$pair@Vc_vector2d@@V1@@2@@std@@V?$allocator@U?$pair@V?$shared_ptr@Vc_drawable@@@std@@U?$pair@Vc_vector2d@@V1@@2@@std@@@2@@std@@ABEABV?$allocator@U?$pair@V?$shared_ptr@Vc_drawable@@@std@@U?$pair@Vc_vector2d@@V1@@2@@std@@@2@XZ 10004760 f i c_aiming.obj
 0001:00003760       ?_Getal@?$vector@HV?$allocator@H@std@@@std@@AAEAAV?$allocator@H@2@XZ 10004760 f i c_aimhelper.obj
 0001:00003760       ?_Getal@?$deque@Ushot@resolver@@V?$allocator@Ushot@resolver@@@std@@@std@@AAEAAV?$allocator@Ushot@resolver@@@2@XZ 10004760 f i c_animation_system.obj
 0001:00003760       ?_Getal@?$vector@Vc_vector3d@@V?$allocator@Vc_vector3d@@@std@@@std@@AAEAAV?$allocator@Vc_vector3d@@@2@XZ 10004760 f i c_damage_esp.obj
 0001:00003760       ?_Max_bucket_size@?$_Hash@V?$_Umap_traits@IU?$pair@HH@std@@V?$_Uhash_compare@IU?$hash@I@std@@U?$equal_to@I@2@@2@V?$allocator@U?$pair@$$CBIU?$pair@HH@std@@@std@@@2@$0A@@std@@@std@@IAEAAMXZ 10004760 f i c_esp.obj
 0001:00003760       ?_Max_bucket_size@?$_Hash@V?$_Umap_traits@PAVc_hotkey_select@@V?$function@$$A6AXI@Z@std@@V?$_Uhash_compare@PAVc_hotkey_select@@U?$hash@PAVc_hotkey_select@@@std@@U?$equal_to@PAVc_hotkey_select@@@3@@3@V?$allocator@U?$pair@QAVc_hotkey_select@@V?$function@$$A6AXI@Z@std@@@std@@@3@$0A@@std@@@std@@IBEABMXZ 10004760 f i c_hotkeys.obj
 0001:00003760       ?_Myhead@?$list@U?$pair@$$CBIU?$pair@HH@std@@@std@@V?$allocator@U?$pair@$$CBIU?$pair@HH@std@@@std@@@2@@std@@AAEAAPAU?$_List_node@U?$pair@$$CBIU?$pair@HH@std@@@std@@PAX@2@XZ 10004760 f i c_esp.obj
 0001:00003760       ?_Getal@?$vector@Unade_info@c_esp@@V?$allocator@Unade_info@c_esp@@@std@@@std@@ABEABV?$allocator@Unade_info@c_esp@@@2@XZ 10004760 f i c_esp.obj
 0001:00003760       ?_Max_bucket_size@?$_Hash@V?$_Umap_traits@IV?$unordered_map@IUnetvar@c_netvar@@U?$hash@I@std@@U?$equal_to@I@4@V?$allocator@U?$pair@$$CBIUnetvar@c_netvar@@@std@@@4@@std@@V?$_Uhash_compare@IU?$hash@I@std@@U?$equal_to@I@2@@2@V?$allocator@U?$pair@$$CBIV?$unordered_map@IUnetvar@c_netvar@@U?$hash@I@std@@U?$equal_to@I@4@V?$allocator@U?$pair@$$CBIUnetvar@c_netvar@@@std@@@4@@std@@@std@@@2@$0A@@std@@@std@@IAEAAMXZ 10004760 f i c_netvar.obj
 0001:00003760       ?_Getal@?$list@U?$pair@$$CBIU?$pair@HH@std@@@std@@V?$allocator@U?$pair@$$CBIU?$pair@HH@std@@@std@@@2@@std@@ABEABV?$allocator@U?$_List_node@U?$pair@$$CBIU?$pair@HH@std@@@std@@PAX@std@@@2@XZ 10004760 f i c_esp.obj
 0001:00003760       ?_Getal@?$vector@V?$function@$$A6AXI@Z@std@@V?$allocator@V?$function@$$A6AXI@Z@std@@@2@@std@@AAEAAV?$allocator@V?$function@$$A6AXI@Z@std@@@2@XZ 10004760 f i c_fake_ping.obj
 0001:00003760       ?_Getkeyeq@?$_Uhash_compare@IU?$hash@I@std@@U?$equal_to@I@2@@std@@QBEABU?$equal_to@I@2@XZ 10004760 f i c_aimhelper.obj
 0001:00003760       ?_Getal@?$vector@Uhitmarker_info@@V?$allocator@Uhitmarker_info@@@std@@@std@@ABEABV?$allocator@Uhitmarker_info@@@2@XZ 10004760 f i c_hitmarker.obj
 0001:00003760       ?_Getal@?$list@U?$pair@$$CBIU?$pair@HH@std@@@std@@V?$allocator@U?$pair@$$CBIU?$pair@HH@std@@@std@@@2@@std@@AAEAAV?$allocator@U?$_List_node@U?$pair@$$CBIU?$pair@HH@std@@@std@@PAX@std@@@2@XZ 10004760 f i c_esp.obj
 0001:00003760       ?_Getal@?$vector@V?$function@$$A6AXI@Z@std@@V?$allocator@V?$function@$$A6AXI@Z@std@@@2@@std@@ABEABV?$allocator@V?$function@$$A6AXI@Z@std@@@2@XZ 10004760 f i c_hotkeys.obj
 0001:00003760       ?_Getal@?$vector@Vc_vector2d@@V?$allocator@Vc_vector2d@@@std@@@std@@AAEAAV?$allocator@Vc_vector2d@@@2@XZ 10004760 f i c_damage_esp.obj
 0001:00003760       ?_Getal@?$vector@Vc_vector2d@@V?$allocator@Vc_vector2d@@@std@@@std@@ABEABV?$allocator@Vc_vector2d@@@2@XZ 10004760 f i c_renderer.obj
 0001:00003760       ?_Getal@?$list@U?$pair@$$CBIUnetvar@c_netvar@@@std@@V?$allocator@U?$pair@$$CBIUnetvar@c_netvar@@@std@@@2@@std@@ABEABV?$allocator@U?$_List_node@U?$pair@$$CBIUnetvar@c_netvar@@@std@@PAX@std@@@2@XZ 10004760 f i c_aimhelper.obj
 0001:00003760       ?_Getal@?$list@U?$pair@$$CBIVc_font@@@std@@V?$allocator@U?$pair@$$CBIVc_font@@@std@@@2@@std@@AAEAAV?$allocator@U?$_List_node@U?$pair@$$CBIVc_font@@@std@@PAX@std@@@2@XZ 10004760 f i c_damage_esp.obj
 0001:00003760       ?_Getal@?$_Tree@V?$_Tmap_traits@V?$basic_string@DU?$char_traits@D@std@@V?$allocator@D@2@@std@@V?$basic_json@Vmap@std@@Vvector@2@V?$basic_string@DU?$char_traits@D@std@@V?$allocator@D@2@@2@_N_J_KNVallocator@2@Uadl_serializer@nlohmann@@@nlohmann@@U?$less@X@2@V?$allocator@U?$pair@$$CBV?$basic_string@DU?$char_traits@D@std@@V?$allocator@D@2@@std@@V?$basic_json@Vmap@std@@Vvector@2@V?$basic_string@DU?$char_traits@D@std@@V?$allocator@D@2@@2@_N_J_KNVallocator@2@Uadl_serializer@nlohmann@@@nlohmann@@@std@@@2@$0A@@std@@@std@@IBEABV?$allocator@U?$_Tree_node@U?$pair@$$CBV?$basic_string@DU?$char_traits@D@std@@V?$allocator@D@2@@std@@V?$basic_json@Vmap@std@@Vvector@2@V?$basic_string@DU?$char_traits@D@std@@V?$allocator@D@2@@2@_N_J_KNVallocator@2@Uadl_serializer@nlohmann@@@nlohmann@@@std@@PAX@std@@@2@XZ 10004760 f i c_conf.obj
 0001:00003760       ?_Getal@?$vector@W4hitbox@c_cs_player@@V?$allocator@W4hitbox@c_cs_player@@@std@@@std@@AAEAAV?$allocator@W4hitbox@c_cs_player@@@2@XZ 10004760 f i c_ragebot.obj
 0001:00003760       ?_Getal@?$vector@V?$vector@MV?$allocator@M@std@@@std@@V?$allocator@V?$vector@MV?$allocator@M@std@@@std@@@2@@std@@ABEABV?$allocator@V?$vector@MV?$allocator@M@std@@@std@@@2@XZ 10004760 f i c_font.obj
 0001:00003760       ?_Getal@?$vector@V?$_List_unchecked_iterator@V?$_List_val@U?$_List_simple_types@U?$pair@$$CBIV?$unordered_map@IUnetvar@c_netvar@@U?$hash@I@std@@U?$equal_to@I@4@V?$allocator@U?$pair@$$CBIUnetvar@c_netvar@@@std@@@4@@std@@@std@@@std@@@std@@@std@@V?$allocator@V?$_List_unchecked_iterator@V?$_List_val@U?$_List_simple_types@U?$pair@$$CBIV?$unordered_map@IUnetvar@c_netvar@@U?$hash@I@std@@U?$equal_to@I@4@V?$allocator@U?$pair@$$CBIUnetvar@c_netvar@@@std@@@4@@std@@@std@@@std@@@std@@@std@@@2@@std@@AAEAAV?$allocator@V?$_List_unchecked_iterator@V?$_List_val@U?$_List_simple_types@U?$pair@$$CBIV?$unordered_map@IUnetvar@c_netvar@@U?$hash@I@std@@U?$equal_to@I@4@V?$allocator@U?$pair@$$CBIUnetvar@c_netvar@@@std@@@4@@std@@@std@@@std@@@std@@@std@@@2@XZ 10004760 f i dllmain.obj
 0001:00003760       ?_Getal@?$deque@Ushot@resolver@@V?$allocator@Ushot@resolver@@@std@@@std@@ABEABV?$allocator@Ushot@resolver@@@2@XZ 10004760 f i c_resolver.obj
 0001:00003760       ?_Myhead@?$list@U?$pair@$$CBIUnetvar@c_netvar@@@std@@V?$allocator@U?$pair@$$CBIUnetvar@c_netvar@@@std@@@2@@std@@ABEABQAU?$_List_node@U?$pair@$$CBIUnetvar@c_netvar@@@std@@PAX@2@XZ 10004760 f i c_aimhelper.obj
 0001:00003760       ?_Getal@?$vector@DV?$allocator@D@std@@@std@@AAEAAV?$allocator@D@2@XZ 10004760 f i c_miscellaneous.obj
 0001:00003760       ?_Getcomp@?$_Tree@V?$_Tmap_traits@V?$basic_string@DU?$char_traits@D@std@@V?$allocator@D@2@@std@@V?$basic_json@Vmap@std@@Vvector@2@V?$basic_string@DU?$char_traits@D@std@@V?$allocator@D@2@@2@_N_J_KNVallocator@2@Uadl_serializer@nlohmann@@@nlohmann@@U?$less@X@2@V?$allocator@U?$pair@$$CBV?$basic_string@DU?$char_traits@D@std@@V?$allocator@D@2@@std@@V?$basic_json@Vmap@std@@Vvector@2@V?$basic_string@DU?$char_traits@D@std@@V?$allocator@D@2@@2@_N_J_KNVallocator@2@Uadl_serializer@nlohmann@@@nlohmann@@@std@@@2@$0A@@std@@@std@@IBEABU?$less@X@2@XZ 10004760 f i c_conf.obj
 0001:00003760       ?_Getal@?$list@U?$pair@$$CBIUanimation_info@c_animation_system@@@std@@V?$allocator@U?$pair@$$CBIUanimation_info@c_animation_system@@@std@@@2@@std@@AAEAAV?$allocator@U?$_List_node@U?$pair@$$CBIUanimation_info@c_animation_system@@@std@@PAX@std@@@2@XZ 10004760 f i c_aimhelper.obj
 0001:00003760       ?_Getal@?$deque@Uanimation@c_animation_system@@V?$allocator@Uanimation@c_animation_system@@@std@@@std@@ABEABV?$allocator@Uanimation@c_animation_system@@@2@XZ 10004760 f i c_animation_system.obj
 0001:00003760       ?_Getal@?$list@U?$pair@$$CBIV?$unordered_map@IUnetvar@c_netvar@@U?$hash@I@std@@U?$equal_to@I@4@V?$allocator@U?$pair@$$CBIUnetvar@c_netvar@@@std@@@4@@std@@@std@@V?$allocator@U?$pair@$$CBIV?$unordered_map@IUnetvar@c_netvar@@U?$hash@I@std@@U?$equal_to@I@4@V?$allocator@U?$pair@$$CBIUnetvar@c_netvar@@@std@@@4@@std@@@std@@@2@@std@@AAEAAV?$allocator@U?$_List_node@U?$pair@$$CBIV?$unordered_map@IUnetvar@c_netvar@@U?$hash@I@std@@U?$equal_to@I@4@V?$allocator@U?$pair@$$CBIUnetvar@c_netvar@@@std@@@4@@std@@@std@@PAX@std@@@2@XZ 10004760 f i dllmain.obj
 0001:00003760       ?_Getal@?$vector@V?$tuple@MMM@std@@V?$allocator@V?$tuple@MMM@std@@@2@@std@@AAEAAV?$allocator@V?$tuple@MMM@std@@@2@XZ 10004760 f i c_aimhelper.obj
 0001:00003760       ?_Getal@?$vector@V?$tuple@MMM@std@@V?$allocator@V?$tuple@MMM@std@@@2@@std@@ABEABV?$allocator@V?$tuple@MMM@std@@@2@XZ 10004760 f i c_aimhelper.obj
 0001:00003760       ?_Getal@?$vector@V?$basic_string@DU?$char_traits@D@std@@V?$allocator@D@2@@std@@V?$allocator@V?$basic_string@DU?$char_traits@D@std@@V?$allocator@D@2@@std@@@2@@std@@AAEAAV?$allocator@V?$basic_string@DU?$char_traits@D@std@@V?$allocator@D@2@@std@@@2@XZ 10004760 f i c_miscellaneous.obj
 0001:00003760       ?_Getal@?$vector@V?$function@$$A6AXXZ@std@@V?$allocator@V?$function@$$A6AXXZ@std@@@2@@std@@AAEAAV?$allocator@V?$function@$$A6AXXZ@std@@@2@XZ 10004760 f i c_damage_esp.obj
 0001:00003760       ?_Getal@?$vector@V?$_List_unchecked_iterator@V?$_List_val@U?$_List_simple_types@U?$pair@QAVc_hotkey_select@@V?$function@$$A6AXI@Z@std@@@std@@@std@@@std@@@std@@V?$allocator@V?$_List_unchecked_iterator@V?$_List_val@U?$_List_simple_types@U?$pair@QAVc_hotkey_select@@V?$function@$$A6AXI@Z@std@@@std@@@std@@@std@@@std@@@2@@std@@ABEABV?$allocator@V?$_List_unchecked_iterator@V?$_List_val@U?$_List_simple_types@U?$pair@QAVc_hotkey_select@@V?$function@$$A6AXI@Z@std@@@std@@@std@@@std@@@std@@@2@XZ 10004760 f i c_hotkeys.obj
 0001:00003760       ?_Getal@?$vector@U?$pair@PAVc_cs_player@@M@std@@V?$allocator@U?$pair@PAVc_cs_player@@M@std@@@2@@std@@AAEAAV?$allocator@U?$pair@PAVc_cs_player@@M@std@@@2@XZ 10004760 f i c_chams.obj
 0001:00003760       ?_Myhead@?$list@U?$pair@QAVc_hotkey_select@@V?$function@$$A6AXI@Z@std@@@std@@V?$allocator@U?$pair@QAVc_hotkey_select@@V?$function@$$A6AXI@Z@std@@@std@@@2@@std@@AAEAAPAU?$_List_node@U?$pair@QAVc_hotkey_select@@V?$function@$$A6AXI@Z@std@@@std@@PAX@2@XZ 10004760 f i c_hotkeys.obj
 0001:00003760       ?_Getkeyeq@?$_Uhash_compare@PAVc_hotkey_select@@U?$hash@PAVc_hotkey_select@@@std@@U?$equal_to@PAVc_hotkey_select@@@3@@std@@QBEABU?$equal_to@PAVc_hotkey_select@@@2@XZ 10004760 f i c_hotkeys.obj
 0001:00003760       ?_Getal@?$basic_string@DU?$char_traits@D@std@@V?$allocator@D@2@@std@@ABEABV?$allocator@D@2@XZ 10004760 f i dll.obj
 0001:00003760       ?_Getal@?$vector@Vc_vector3d@@V?$allocator@Vc_vector3d@@@std@@@std@@ABEABV?$allocator@Vc_vector3d@@@2@XZ 10004760 f i c_resolver.obj
 0001:00003760       ?_Getal@?$deque@Uc_incoming_sequence@@V?$allocator@Uc_incoming_sequence@@@std@@@std@@AAEAAV?$allocator@Uc_incoming_sequence@@@2@XZ 10004760 f i c_fake_ping.obj
 0001:00003760       ?_Gethash@?$_Uhash_compare@PAVc_hotkey_select@@U?$hash@PAVc_hotkey_select@@@std@@U?$equal_to@PAVc_hotkey_select@@@3@@std@@QBEABU?$hash@PAVc_hotkey_select@@@2@XZ 10004760 f i c_hotkeys.obj
 0001:00003760       ?_Getal@?$basic_string@_WU?$char_traits@_W@std@@V?$allocator@_W@2@@std@@AAEAAV?$allocator@_W@2@XZ 10004760 f i c_miscellaneous.obj
 0001:00003760       ?_Max_bucket_size@?$_Hash@V?$_Umap_traits@IUnetvar@c_netvar@@V?$_Uhash_compare@IU?$hash@I@std@@U?$equal_to@I@2@@std@@V?$allocator@U?$pair@$$CBIUnetvar@c_netvar@@@std@@@4@$0A@@std@@@std@@IAEAAMXZ 10004760 f i c_aimhelper.obj
 0001:00003760       ?_Max_bucket_size@?$_Hash@V?$_Umap_traits@IUanimation_info@c_animation_system@@V?$_Uhash_compare@IU?$hash@I@std@@U?$equal_to@I@2@@std@@V?$allocator@U?$pair@$$CBIUanimation_info@c_animation_system@@@std@@@4@$0A@@std@@@std@@IBEABMXZ 10004760 f i c_animation_system.obj
 0001:00003760       ?_Getal@?$vector@Uplayer_info@c_esp@@V?$allocator@Uplayer_info@c_esp@@@std@@@std@@AAEAAV?$allocator@Uplayer_info@c_esp@@@2@XZ 10004760 f i c_damage_esp.obj
 0001:00003760       ?_Getal@?$vector@U?$pair@PAVc_cs_player@@M@std@@V?$allocator@U?$pair@PAVc_cs_player@@M@std@@@2@@std@@ABEABV?$allocator@U?$pair@PAVc_cs_player@@M@std@@@2@XZ 10004760 f i c_chams.obj
 0001:00003760       ?_Getal@?$vector@EV?$allocator@E@std@@@std@@ABEABV?$allocator@E@2@XZ 10004760 f i c_miscellaneous.obj
 0001:00003760       ?_Getal@?$vector@V?$_List_unchecked_iterator@V?$_List_val@U?$_List_simple_types@U?$pair@$$CBIUanimation_info@c_animation_system@@@std@@@std@@@std@@@std@@V?$allocator@V?$_List_unchecked_iterator@V?$_List_val@U?$_List_simple_types@U?$pair@$$CBIUanimation_info@c_animation_system@@@std@@@std@@@std@@@std@@@2@@std@@AAEAAV?$allocator@V?$_List_unchecked_iterator@V?$_List_val@U?$_List_simple_types@U?$pair@$$CBIUanimation_info@c_animation_system@@@std@@@std@@@std@@@std@@@2@XZ 10004760 f i c_aimhelper.obj
 0001:00003760       ?_Max_bucket_size@?$_Hash@V?$_Umap_traits@IVc_font@@V?$_Uhash_compare@IU?$hash@I@std@@U?$equal_to@I@2@@std@@V?$allocator@U?$pair@$$CBIVc_font@@@std@@@3@$0A@@std@@@std@@IAEAAMXZ 10004760 f i c_renderer.obj
 0001:00003760       ?_Getal@?$vector@V?$_List_unchecked_iterator@V?$_List_val@U?$_List_simple_types@U?$pair@$$CBIU?$pair@HH@std@@@std@@@std@@@std@@@std@@V?$allocator@V?$_List_unchecked_iterator@V?$_List_val@U?$_List_simple_types@U?$pair@$$CBIU?$pair@HH@std@@@std@@@std@@@std@@@std@@@2@@std@@ABEABV?$allocator@V?$_List_unchecked_iterator@V?$_List_val@U?$_List_simple_types@U?$pair@$$CBIU?$pair@HH@std@@@std@@@std@@@std@@@std@@@2@XZ 10004760 f i c_esp.obj
 0001:00003760       ?_Getal@?$basic_string@DU?$char_traits@D@std@@V?$allocator@D@2@@std@@AAEAAV?$allocator@D@2@XZ 10004760 f i dll.obj
 0001:00003760       ?_Getal@?$vector@PAUanimation@c_animation_system@@V?$allocator@PAUanimation@c_animation_system@@@std@@@std@@AAEAAV?$allocator@PAUanimation@c_animation_system@@@2@XZ 10004760 f i c_aimhelper.obj
 0001:00003760       ?_Myhead@?$list@U?$pair@$$CBIUnetvar@c_netvar@@@std@@V?$allocator@U?$pair@$$CBIUnetvar@c_netvar@@@std@@@2@@std@@AAEAAPAU?$_List_node@U?$pair@$$CBIUnetvar@c_netvar@@@std@@PAX@2@XZ 10004760 f i c_aimhelper.obj
 0001:00003760       ?_Myhead@?$list@U?$pair@$$CBIVc_font@@@std@@V?$allocator@U?$pair@$$CBIVc_font@@@std@@@2@@std@@ABEABQAU?$_List_node@U?$pair@$$CBIVc_font@@@std@@PAX@2@XZ 10004760 f i c_renderer.obj
 0001:00003760       ?_Getal@?$vector@V?$vector@MV?$allocator@M@std@@@std@@V?$allocator@V?$vector@MV?$allocator@M@std@@@std@@@2@@std@@AAEAAV?$allocator@V?$vector@MV?$allocator@M@std@@@std@@@2@XZ 10004760 f i c_font.obj
 0001:00003760       ?_Getal@?$basic_string@_WU?$char_traits@_W@std@@V?$allocator@_W@2@@std@@ABEABV?$allocator@_W@2@XZ 10004760 f i c_miscellaneous.obj
 0001:00003760       ?_Getal@?$vector@W4hitbox@c_cs_player@@V?$allocator@W4hitbox@c_cs_player@@@std@@@std@@ABEABV?$allocator@W4hitbox@c_cs_player@@@2@XZ 10004760 f i c_ragebot.obj
 0001:00003760       ?_Getal@?$vector@PAUanimation@c_animation_system@@V?$allocator@PAUanimation@c_animation_system@@@std@@@std@@ABEABV?$allocator@PAUanimation@c_animation_system@@@2@XZ 10004760 f i c_aimhelper.obj
 0001:00003760       ?_Getal@?$vector@U?$pair@V?$basic_string@DU?$char_traits@D@std@@V?$allocator@D@2@@std@@D@std@@V?$allocator@U?$pair@V?$basic_string@DU?$char_traits@D@std@@V?$allocator@D@2@@std@@D@std@@@2@@std@@ABEABV?$allocator@U?$pair@V?$basic_string@DU?$char_traits@D@std@@V?$allocator@D@2@@std@@D@std@@@2@XZ 10004760 f i c_menu.obj
 0001:00003760       ?_Getal@?$vector@V?$basic_json@Vmap@std@@Vvector@2@V?$basic_string@DU?$char_traits@D@std@@V?$allocator@D@2@@2@_N_J_KNVallocator@2@Uadl_serializer@nlohmann@@@nlohmann@@V?$allocator@V?$basic_json@Vmap@std@@Vvector@2@V?$basic_string@DU?$char_traits@D@std@@V?$allocator@D@2@@2@_N_J_KNVallocator@2@Uadl_serializer@nlohmann@@@nlohmann@@@std@@@std@@AAEAAV?$allocator@V?$basic_json@Vmap@std@@Vvector@2@V?$basic_string@DU?$char_traits@D@std@@V?$allocator@D@2@@2@_N_J_KNVallocator@2@Uadl_serializer@nlohmann@@@nlohmann@@@2@XZ 10004760 f i c_conf.obj
 0001:00003760       ?_Getal@?$vector@DV?$allocator@D@std@@@std@@ABEABV?$allocator@D@2@XZ 10004760 f i c_miscellaneous.obj
 0001:00003760       ?_Getcomp@?$_Tree@V?$_Tmap_traits@HHU?$less@H@std@@V?$allocator@U?$pair@$$CBHH@std@@@2@$0A@@std@@@std@@IBEABU?$less@H@2@XZ 10004760 f i c_prediction_.obj
 0001:00003760       ?_Max_bucket_size@?$_Hash@V?$_Umap_traits@IU?$pair@HH@std@@V?$_Uhash_compare@IU?$hash@I@std@@U?$equal_to@I@2@@2@V?$allocator@U?$pair@$$CBIU?$pair@HH@std@@@std@@@2@$0A@@std@@@std@@IBEABMXZ 10004760 f i c_esp.obj
 0001:00003760       ?_Getcomp@?$_Tree@V?$_Tmap_traits@HHU?$less@H@std@@V?$allocator@U?$pair@$$CBHH@std@@@2@$0A@@std@@@std@@IAEAAU?$less@H@2@XZ 10004760 f i c_prediction_.obj
 0001:00003760       ?_Getal@?$vector@V?$_List_unchecked_iterator@V?$_List_val@U?$_List_simple_types@U?$pair@$$CBIUanimation_info@c_animation_system@@@std@@@std@@@std@@@std@@V?$allocator@V?$_List_unchecked_iterator@V?$_List_val@U?$_List_simple_types@U?$pair@$$CBIUanimation_info@c_animation_system@@@std@@@std@@@std@@@std@@@2@@std@@ABEABV?$allocator@V?$_List_unchecked_iterator@V?$_List_val@U?$_List_simple_types@U?$pair@$$CBIUanimation_info@c_animation_system@@@std@@@std@@@std@@@std@@@2@XZ 10004760 f i c_aimhelper.obj
 0001:00003760       ?_Getal@?$list@U?$pair@$$CBIUanimation_info@c_animation_system@@@std@@V?$allocator@U?$pair@$$CBIUanimation_info@c_animation_system@@@std@@@2@@std@@ABEABV?$allocator@U?$_List_node@U?$pair@$$CBIUanimation_info@c_animation_system@@@std@@PAX@std@@@2@XZ 10004760 f i c_animation_system.obj
 0001:00003760       ?_Getal@?$_Tree@V?$_Tmap_traits@HHU?$less@H@std@@V?$allocator@U?$pair@$$CBHH@std@@@2@$0A@@std@@@std@@IAEAAV?$allocator@U?$_Tree_node@U?$pair@$$CBHH@std@@PAX@std@@@2@XZ 10004760 f i c_prediction_.obj
 0001:00003760       ?_Max_bucket_size@?$_Hash@V?$_Umap_traits@IV?$unordered_map@IUnetvar@c_netvar@@U?$hash@I@std@@U?$equal_to@I@4@V?$allocator@U?$pair@$$CBIUnetvar@c_netvar@@@std@@@4@@std@@V?$_Uhash_compare@IU?$hash@I@std@@U?$equal_to@I@2@@2@V?$allocator@U?$pair@$$CBIV?$unordered_map@IUnetvar@c_netvar@@U?$hash@I@std@@U?$equal_to@I@4@V?$allocator@U?$pair@$$CBIUnetvar@c_netvar@@@std@@@4@@std@@@std@@@2@$0A@@std@@@std@@IBEABMXZ 10004760 f i c_aimhelper.obj
 0001:00003760       ?_Getal@?$vector@Uaim_info@c_aimhelper@@V?$allocator@Uaim_info@c_aimhelper@@@std@@@std@@AAEAAV?$allocator@Uaim_info@c_aimhelper@@@2@XZ 10004760 f i c_aimhelper.obj
 0001:00003760       ?_Getal@?$list@U?$pair@$$CBIV?$unordered_map@IUnetvar@c_netvar@@U?$hash@I@std@@U?$equal_to@I@4@V?$allocator@U?$pair@$$CBIUnetvar@c_netvar@@@std@@@4@@std@@@std@@V?$allocator@U?$pair@$$CBIV?$unordered_map@IUnetvar@c_netvar@@U?$hash@I@std@@U?$equal_to@I@4@V?$allocator@U?$pair@$$CBIUnetvar@c_netvar@@@std@@@4@@std@@@std@@@2@@std@@ABEABV?$allocator@U?$_List_node@U?$pair@$$CBIV?$unordered_map@IUnetvar@c_netvar@@U?$hash@I@std@@U?$equal_to@I@4@V?$allocator@U?$pair@$$CBIUnetvar@c_netvar@@@std@@@4@@std@@@std@@PAX@std@@@2@XZ 10004760 f i c_aimhelper.obj
 0001:00003760       ?_Myhead@?$list@U?$pair@$$CBIUanimation_info@c_animation_system@@@std@@V?$allocator@U?$pair@$$CBIUanimation_info@c_animation_system@@@std@@@2@@std@@AAEAAPAU?$_List_node@U?$pair@$$CBIUanimation_info@c_animation_system@@@std@@PAX@2@XZ 10004760 f i c_aimhelper.obj
 0001:00003760       ?_Getal@?$vector@V?$_List_unchecked_iterator@V?$_List_val@U?$_List_simple_types@U?$pair@$$CBIU?$pair@HH@std@@@std@@@std@@@std@@@std@@V?$allocator@V?$_List_unchecked_iterator@V?$_List_val@U?$_List_simple_types@U?$pair@$$CBIU?$pair@HH@std@@@std@@@std@@@std@@@std@@@2@@std@@AAEAAV?$allocator@V?$_List_unchecked_iterator@V?$_List_val@U?$_List_simple_types@U?$pair@$$CBIU?$pair@HH@std@@@std@@@std@@@std@@@std@@@2@XZ 10004760 f i c_esp.obj
 0001:00003760       ?_Max_bucket_size@?$_Hash@V?$_Umap_traits@IUanimation_info@c_animation_system@@V?$_Uhash_compare@IU?$hash@I@std@@U?$equal_to@I@2@@std@@V?$allocator@U?$pair@$$CBIUanimation_info@c_animation_system@@@std@@@4@$0A@@std@@@std@@IAEAAMXZ 10004760 f i c_aimhelper.obj
 0001:00003760       ?_Getal@?$vector@V?$_List_unchecked_iterator@V?$_List_val@U?$_List_simple_types@U?$pair@QAVc_hotkey_select@@V?$function@$$A6AXI@Z@std@@@std@@@std@@@std@@@std@@V?$allocator@V?$_List_unchecked_iterator@V?$_List_val@U?$_List_simple_types@U?$pair@QAVc_hotkey_select@@V?$function@$$A6AXI@Z@std@@@std@@@std@@@std@@@std@@@2@@std@@AAEAAV?$allocator@V?$_List_unchecked_iterator@V?$_List_val@U?$_List_simple_types@U?$pair@QAVc_hotkey_select@@V?$function@$$A6AXI@Z@std@@@std@@@std@@@std@@@std@@@2@XZ 10004760 f i c_fake_ping.obj
 0001:00003760       ?_Myhead@?$list@U?$pair@$$CBIVc_font@@@std@@V?$allocator@U?$pair@$$CBIVc_font@@@std@@@2@@std@@AAEAAPAU?$_List_node@U?$pair@$$CBIVc_font@@@std@@PAX@2@XZ 10004760 f i c_renderer.obj
 0001:00003760       ?_Getal@?$vector@Uplayer_info@c_esp@@V?$allocator@Uplayer_info@c_esp@@@std@@@std@@ABEABV?$allocator@Uplayer_info@c_esp@@@2@XZ 10004760 f i c_esp.obj
 0001:00003760       ?_Getal@?$vector@Unade_info@c_esp@@V?$allocator@Unade_info@c_esp@@@std@@@std@@AAEAAV?$allocator@Unade_info@c_esp@@@2@XZ 10004760 f i c_damage_esp.obj
 0001:00003760       ?_Getal@?$list@U?$pair@$$CBIVc_font@@@std@@V?$allocator@U?$pair@$$CBIVc_font@@@std@@@2@@std@@ABEABV?$allocator@U?$_List_node@U?$pair@$$CBIVc_font@@@std@@PAX@std@@@2@XZ 10004760 f i c_renderer.obj
 0001:00003760       ?_Getal@?$vector@V?$basic_json@Vmap@std@@Vvector@2@V?$basic_string@DU?$char_traits@D@std@@V?$allocator@D@2@@2@_N_J_KNVallocator@2@Uadl_serializer@nlohmann@@@nlohmann@@V?$allocator@V?$basic_json@Vmap@std@@Vvector@2@V?$basic_string@DU?$char_traits@D@std@@V?$allocator@D@2@@2@_N_J_KNVallocator@2@Uadl_serializer@nlohmann@@@nlohmann@@@std@@@std@@ABEABV?$allocator@V?$basic_json@Vmap@std@@Vvector@2@V?$basic_string@DU?$char_traits@D@std@@V?$allocator@D@2@@2@_N_J_KNVallocator@2@Uadl_serializer@nlohmann@@@nlohmann@@@2@XZ 10004760 f i c_conf.obj
 0001:00003780       ?_Getfacet@locale@std@@QBEPBVfacet@12@I@Z 10004780 f i dll.obj
 0001:00003810       ?_Init@?$basic_filebuf@DU?$char_traits@D@std@@@std@@IAEXPAU_iobuf@@W4_Initfl@12@@Z 10004810 f i dll.obj
 0001:000038e0       ?_Initcvt@?$basic_filebuf@DU?$char_traits@D@std@@@std@@IAEXABV?$codecvt@DDU_Mbstatet@@@2@@Z 100048e0 f i dll.obj
 0001:00003930       ?_Large_string_engaged@?$_String_val@U?$_Simple_types@D@std@@@std@@QBE_NXZ 10004930 f i dll.obj
 0001:00003960       ?_Lock@?$basic_filebuf@DU?$char_traits@D@std@@@std@@UAEXXZ 10004960 f i dll.obj
 0001:00003990       ?_Myptr@?$_String_val@U?$_Simple_types@D@std@@@std@@QAEPADXZ 10004990 f i dll.obj
 0001:00003990       ?_Myptr@?$_String_val@U?$_Simple_types@D@std@@@std@@QBEPBDXZ 10004990 f i c_damage_esp.obj
 0001:000039d0       ?_Orphan_all@?$basic_string@_WU?$char_traits@_W@std@@V?$allocator@_W@2@@std@@QAEXXZ 100049d0 f i c_miscellaneous.obj
 0001:000039d0       ?_Orphan_all@?$deque@Uc_incoming_sequence@@V?$allocator@Uc_incoming_sequence@@@std@@@std@@AAEXXZ 100049d0 f i c_net_channel_.obj
 0001:000039d0       ?_Orphan_all@?$deque@Ushot@resolver@@V?$allocator@Ushot@resolver@@@std@@@std@@AAEXXZ 100049d0 f i c_resolver.obj
 0001:000039d0       ?_Orphan_all@?$deque@Uanimation@c_animation_system@@V?$allocator@Uanimation@c_animation_system@@@std@@@std@@AAEXXZ 100049d0 f i c_animation_system.obj
 0001:000039d0       ?_Orphan_all@?$basic_string@DU?$char_traits@D@std@@V?$allocator@D@2@@std@@QAEXXZ 100049d0 f i dll.obj
 0001:000039f0       ?_Reset_back@?$basic_filebuf@DU?$char_traits@D@std@@@std@@AAEXXZ 100049f0 f i dll.obj
 0001:00003a30       ?_Set_back@?$basic_filebuf@DU?$char_traits@D@std@@@std@@AAEXXZ 10004a30 f i dll.obj
 0001:00003a90       ?_Tidy_deallocate@?$basic_string@DU?$char_traits@D@std@@V?$allocator@D@2@@std@@AAEXXZ 10004a90 f i dll.obj
 0001:00003b60       ?_Tidy_init@?$basic_string@DU?$char_traits@D@std@@V?$allocator@D@2@@std@@AAEXXZ 10004b60 f i dll.obj
 0001:00003bb0       ?_Unlock@?$basic_filebuf@DU?$char_traits@D@std@@@std@@UAEXXZ 10004bb0 f i dll.obj
 0001:00003be0       ?_Xlen@?$basic_string@DU?$char_traits@D@std@@V?$allocator@D@2@@std@@CAXXZ 10004be0 f i dll.obj
 0001:00003be0       ?_Xlen@?$basic_string@_WU?$char_traits@_W@std@@V?$allocator@_W@2@@std@@CAXXZ 10004be0 f i c_miscellaneous.obj
 0001:00003bf0       ?_Xran@?$_String_val@U?$_Simple_types@D@std@@@std@@SAXXZ 10004bf0 f i dll.obj
 0001:00003c00       ?allocate@?$allocator@D@std@@QAEPADI@Z 10004c00 f i dll.obj
 0001:00003c00       ?allocate@?$allocator@E@std@@QAEPAEI@Z 10004c00 f i c_miscellaneous.obj
 0001:00003c30       ?assign@?$char_traits@D@std@@SAXAADABD@Z 10004c30 f i dll.obj
 0001:00003c40       ?begin@?$basic_string@DU?$char_traits@D@std@@V?$allocator@D@2@@std@@QAE?AV?$_String_iterator@V?$_String_val@U?$_Simple_types@D@std@@@std@@@2@XZ 10004c40 f i dll.obj
 0001:00003cb0       ?close@?$basic_filebuf@DU?$char_traits@D@std@@@std@@QAEPAV12@XZ 10004cb0 f i dll.obj
 0001:00003d20       ?copy@?$char_traits@D@std@@SAPADQADQBDI@Z 10004d20 f i dll.obj
 0001:00003d40       ?_Unchecked_begin@?$basic_string@DU?$char_traits@D@std@@V?$allocator@D@2@@std@@QAEPADXZ 10004d40 f i c_welcome_message.obj
 0001:00003d40       ?c_str@?$basic_string@DU?$char_traits@D@std@@V?$allocator@D@2@@std@@QBEPBDXZ 10004d40 f i c_damage_esp.obj
 0001:00003d40       ?data@?$basic_string@DU?$char_traits@D@std@@V?$allocator@D@2@@std@@QBEPBDXZ 10004d40 f i c_conf.obj
 0001:00003d40       ?data@?$basic_string@DU?$char_traits@D@std@@V?$allocator@D@2@@std@@QAEPADXZ 10004d40 f i dll.obj
 0001:00003d90       ?deallocate@?$allocator@E@std@@QAEXQAEI@Z 10004d90 f i c_miscellaneous.obj
 0001:00003d90       ?deallocate@?$allocator@D@std@@QAEXQADI@Z 10004d90 f i dll.obj
 0001:00003db0       ?max_size@?$_Default_allocator_traits@V?$allocator@E@std@@@std@@SAIABV?$allocator@E@2@@Z 10004db0 f i c_miscellaneous.obj
 0001:00003db0       ?eof@?$char_traits@D@std@@SAHXZ 10004db0 f i dll.obj
 0001:00003db0       ?max_size@?$_Default_allocator_traits@V?$allocator@D@std@@@std@@SAIABV?$allocator@D@2@@Z 10004db0 f i dll.obj
 0001:00003db0       ?max@?$mersenne_twister_engine@I$0CA@$0CHA@$0BIN@$0BP@$0JJAILANP@$0L@$0PPPPPPPP@$06$0JNCMFGIA@$0P@$0OPMGAAAA@$0BC@$0GMAHIJGF@@std@@SAIXZ 10004db0 f i c_resolver.obj
 0001:00003dc0       ?eq_int_type@?$char_traits@D@std@@SA_NABH0@Z 10004dc0 f i dll.obj
 0001:00003df0       ?erase@?$basic_string@DU?$char_traits@D@std@@V?$allocator@D@2@@std@@QAEAAV12@II@Z 10004df0 f i dll.obj
 0001:00003e80       ?front@?$basic_string@DU?$char_traits@D@std@@V?$allocator@D@2@@std@@QAEAADXZ 10004e80 f i dll.obj
 0001:00003ea0       ?imbue@?$basic_filebuf@DU?$char_traits@D@std@@@std@@MAEXABVlocale@2@@Z 10004ea0 f i dll.obj
 0001:00003ed0       ?max@?$numeric_limits@H@std@@SAHXZ 10004ed0 f i dll.obj
 0001:00003ed0       ?max_size@?$_Default_allocator_traits@V?$allocator@_W@std@@@std@@SAIABV?$allocator@_W@2@@Z 10004ed0 f i c_miscellaneous.obj
 0001:00003ee0       ?max_size@?$basic_string@DU?$char_traits@D@std@@V?$allocator@D@2@@std@@QBEIXZ 10004ee0 f i dll.obj
 0001:00003f40       ?move@?$char_traits@D@std@@SAPADQADQBDI@Z 10004f40 f i dll.obj
 0001:00003f60       ?not_eof@?$char_traits@D@std@@SAHABH@Z 10004f60 f i dll.obj
 0001:00003fb0       ?open@?$basic_filebuf@DU?$char_traits@D@std@@@std@@QAEPAV12@PBDHH@Z 10004fb0 f i dll.obj
 0001:00004070       ?overflow@?$basic_filebuf@DU?$char_traits@D@std@@@std@@MAEHH@Z 10005070 f i dll.obj
 0001:00004260       ?pbackfail@?$basic_filebuf@DU?$char_traits@D@std@@@std@@MAEHH@Z 10005260 f i dll.obj
 0001:000043c0       ?push_back@?$basic_string@DU?$char_traits@D@std@@V?$allocator@D@2@@std@@QAEXD@Z 100053c0 f i dll.obj
 0001:00004450       ?release@?$unique_ptr@V?$c_hook@I@@U?$default_delete@V?$c_hook@I@@@std@@@std@@QAEPAV?$c_hook@I@@XZ 10005450 f i c_cs_player_.obj
 0001:00004450       ?release@?$unique_ptr@$$BY0A@IU?$default_delete@$$BY0A@I@std@@@std@@QAEPAIXZ 10005450 f i c_client.obj
 0001:00004450       ?release@?$unique_ptr@V_Facet_base@std@@U?$default_delete@V_Facet_base@std@@@2@@std@@QAEPAV_Facet_base@2@XZ 10005450 f i dll.obj
 0001:000044a0       ?seekoff@?$basic_filebuf@DU?$char_traits@D@std@@@std@@MAE?AV?$fpos@U_Mbstatet@@@2@_JHH@Z 100054a0 f i dll.obj
 0001:00004580       ?seekpos@?$basic_filebuf@DU?$char_traits@D@std@@@std@@MAE?AV?$fpos@U_Mbstatet@@@2@V32@H@Z 10005580 f i dll.obj
 0001:00004620       ?setbuf@?$basic_filebuf@DU?$char_traits@D@std@@@std@@MAEPAV?$basic_streambuf@DU?$char_traits@D@std@@@2@PAD_J@Z 10005620 f i dll.obj
 0001:000046a0       ?size@?$basic_string@DU?$char_traits@D@std@@V?$allocator@D@2@@std@@QBEIXZ 100056a0 f i dll.obj
 0001:000046c0       ?state@?$fpos@U_Mbstatet@@@std@@QBE?AU_Mbstatet@@XZ 100056c0 f i dll.obj
 0001:000046f0       ?sync@?$basic_filebuf@DU?$char_traits@D@std@@@std@@MAEHXZ 100056f0 f i dll.obj
 0001:00004770       ?to_char_type@?$char_traits@D@std@@SADABH@Z 10005770 f i dll.obj
 0001:00004780       ?to_int_type@?$char_traits@D@std@@SAHABD@Z 10005780 f i dll.obj
 0001:00004790       ?uflow@?$basic_filebuf@DU?$char_traits@D@std@@@std@@MAEHXZ 10005790 f i dll.obj
 0001:00004a20       ?underflow@?$basic_filebuf@DU?$char_traits@D@std@@@std@@MAEHXZ 10005a20 f i dll.obj
 0001:00004ac0       ?what@exception@std@@UBEPBDXZ 10005ac0 f i dll.obj
 0001:00004af0       ?xsgetn@?$basic_filebuf@DU?$char_traits@D@std@@@std@@MAE_JPAD_J@Z 10005af0 f i dll.obj
 0001:00004c60       ?xsputn@?$basic_filebuf@DU?$char_traits@D@std@@@std@@MAE_JPBD_J@Z 10005c60 f i dll.obj
 0001:00004d80       ??$?0$$V@?$_Compressed_pair@V?$allocator@W4hitbox@c_cs_player@@@std@@V?$_Vector_val@U?$_Simple_types@W4hitbox@c_cs_player@@@std@@@2@$00@std@@QAE@U_Zero_then_variadic_args_t@1@@Z 10005d80 f i c_ragebot.obj
 0001:00004d80       ??$?0$$V@?$_Compressed_pair@V?$allocator@Uhitmarker_info@@@std@@V?$_Vector_val@U?$_Simple_types@Uhitmarker_info@@@std@@@2@$00@std@@QAE@U_Zero_then_variadic_args_t@1@@Z 10005d80 f i c_hitmarker.obj
 0001:00004d80       ??$?0$$V@?$_Compressed_pair@V?$allocator@U?$pair@V?$basic_string@DU?$char_traits@D@std@@V?$allocator@D@2@@std@@D@std@@@std@@V?$_Vector_val@U?$_Simple_types@U?$pair@V?$basic_string@DU?$char_traits@D@std@@V?$allocator@D@2@@std@@D@std@@@std@@@2@$00@std@@QAE@U_Zero_then_variadic_args_t@1@@Z 10005d80 f i c_float_select.obj
 0001:00004d80       ??$?0$$V@?$_Compressed_pair@V?$allocator@Uaim_info@c_aimhelper@@@std@@V?$_Vector_val@U?$_Simple_types@Uaim_info@c_aimhelper@@@std@@@2@$00@std@@QAE@U_Zero_then_variadic_args_t@1@@Z 10005d80 f i c_aimhelper.obj
 0001:00004d80       ??$?0$$V@?$_Compressed_pair@V?$allocator@U?$pair@PAVc_cs_player@@M@std@@@std@@V?$_Vector_val@U?$_Simple_types@U?$pair@PAVc_cs_player@@M@std@@@std@@@2@$00@std@@QAE@U_Zero_then_variadic_args_t@1@@Z 10005d80 f i c_chams.obj
 0001:00004d80       ??$?0$$V@?$_Compressed_pair@V?$allocator@Vc_vector3d@@@std@@V?$_Vector_val@U?$_Simple_types@Vc_vector3d@@@std@@@2@$00@std@@QAE@U_Zero_then_variadic_args_t@1@@Z 10005d80 f i c_ragebot.obj
 0001:00004d80       ??$?0$$V@?$_Compressed_pair@V?$allocator@V?$function@$$A6AXXZ@std@@@std@@V?$_Vector_val@U?$_Simple_types@V?$function@$$A6AXXZ@std@@@std@@@2@$00@std@@QAE@U_Zero_then_variadic_args_t@1@@Z 10005d80 f i c_renderer.obj
 0001:00004d80       ??$?0$$V@?$_Compressed_pair@V?$allocator@V?$function@$$A6AXI@Z@std@@@std@@V?$_Vector_val@U?$_Simple_types@V?$function@$$A6AXI@Z@std@@@std@@@2@$00@std@@QAE@U_Zero_then_variadic_args_t@1@@Z 10005d80 f i c_hotkeys.obj
 0001:00004d80       ??$?0$$V@?$_Compressed_pair@V?$allocator@D@std@@V?$_Vector_val@U?$_Simple_types@D@std@@@2@$00@std@@QAE@U_Zero_then_variadic_args_t@1@@Z 10005d80 f i c_conf.obj
 0001:00004d80       ??$?0$$V@?$_Compressed_pair@V?$allocator@Vc_vector2d@@@std@@V?$_Vector_val@U?$_Simple_types@Vc_vector2d@@@std@@@2@$00@std@@QAE@U_Zero_then_variadic_args_t@1@@Z 10005d80 f i c_renderer.obj
 0001:00004d80       ??$?0$$V@?$_Compressed_pair@V?$allocator@M@std@@V?$_Vector_val@U?$_Simple_types@M@std@@@2@$00@std@@QAE@U_Zero_then_variadic_args_t@1@@Z 10005d80 f i c_font.obj
 0001:00004d80       ??$?0$$V@?$_Compressed_pair@V?$allocator@PAUanimation@c_animation_system@@@std@@V?$_Vector_val@U?$_Simple_types@PAUanimation@c_animation_system@@@std@@@2@$00@std@@QAE@U_Zero_then_variadic_args_t@1@@Z 10005d80 f i c_animation_system.obj
 0001:00004d80       ??$?0$$V@?$_Compressed_pair@V?$allocator@V?$basic_json@Vmap@std@@Vvector@2@V?$basic_string@DU?$char_traits@D@std@@V?$allocator@D@2@@2@_N_J_KNVallocator@2@Uadl_serializer@nlohmann@@@nlohmann@@@std@@V?$_Vector_val@U?$_Simple_types@V?$basic_json@Vmap@std@@Vvector@2@V?$basic_string@DU?$char_traits@D@std@@V?$allocator@D@2@@2@_N_J_KNVallocator@2@Uadl_serializer@nlohmann@@@nlohmann@@@std@@@2@$00@std@@QAE@U_Zero_then_variadic_args_t@1@@Z 10005d80 f i c_conf.obj
 0001:00004d80       ??$?0$$V@?$_Compressed_pair@V?$allocator@H@std@@V?$_Vector_val@U?$_Simple_types@H@std@@@2@$00@std@@QAE@U_Zero_then_variadic_args_t@1@@Z 10005d80 f i c_aimhelper.obj
 0001:00004d80       ??$?0$$V@?$_Compressed_pair@V?$allocator@Uimpact_info@@@std@@V?$_Vector_val@U?$_Simple_types@Uimpact_info@@@std@@@2@$00@std@@QAE@U_Zero_then_variadic_args_t@1@@Z 10005d80 f i c_hitmarker.obj
 0001:00004d80       ??$?0$$V@?$_Compressed_pair@V?$allocator@Unade_info@c_esp@@@std@@V?$_Vector_val@U?$_Simple_types@Unade_info@c_esp@@@std@@@2@$00@std@@QAE@U_Zero_then_variadic_args_t@1@@Z 10005d80 f i c_damage_esp.obj
 0001:00004d80       ??$?0$$V@?$_Compressed_pair@V?$allocator@V?$vector@MV?$allocator@M@std@@@std@@@std@@V?$_Vector_val@U?$_Simple_types@V?$vector@MV?$allocator@M@std@@@std@@@std@@@2@$00@std@@QAE@U_Zero_then_variadic_args_t@1@@Z 10005d80 f i c_font.obj
 0001:00004d80       ??$?0$$V@?$_Compressed_pair@V?$allocator@Uplayer_info@c_esp@@@std@@V?$_Vector_val@U?$_Simple_types@Uplayer_info@c_esp@@@std@@@2@$00@std@@QAE@U_Zero_then_variadic_args_t@1@@Z 10005d80 f i c_damage_esp.obj
 0001:00004d80       ??$?0$$V@?$_Compressed_pair@V?$allocator@V?$tuple@MMM@std@@@std@@V?$_Vector_val@U?$_Simple_types@V?$tuple@MMM@std@@@std@@@2@$00@std@@QAE@U_Zero_then_variadic_args_t@1@@Z 10005d80 f i c_aimhelper.obj
 0001:00004da0       ??$?0$0A@$00$01$02$03$04$05$06$07$08$09@?$xorstr@$0L@$0EE@@@QAE@PBDU?$integer_sequence@I$0A@$00$01$02$03$04$05$06$07$08$09@std@@@Z 10005da0 f i c_damage_esp.obj
 0001:00004f00       ??$?0$0A@$00$01$02$03$04$05$06$07$08$09@?$xorstr@$0L@$0GA@@@QAE@PBDU?$integer_sequence@I$0A@$00$01$02$03$04$05$06$07$08$09@std@@@Z 10005f00 f i c_damage_esp.obj
 0001:00005060       ??$?0$0A@$00$01$02$03$04$05$06$07$08$09@?$xorstr@$0L@$0GI@@@QAE@PBDU?$integer_sequence@I$0A@$00$01$02$03$04$05$06$07$08$09@std@@@Z 10006060 f i c_damage_esp.obj
 0001:000051c0       ??$?0$0A@$00$01$02$03$04$05$06$07@?$xorstr@$08$0BC@@@QAE@PBDU?$integer_sequence@I$0A@$00$01$02$03$04$05$06$07@std@@@Z 100061c0 f i c_damage_esp.obj
 0001:000052e0       ??$?0$0A@$00$01$02$03$04$05$06$07@?$xorstr@$08$0CP@@@QAE@PBDU?$integer_sequence@I$0A@$00$01$02$03$04$05$06$07@std@@@Z 100062e0 f i c_damage_esp.obj
 0001:00005400       ??$?0$0A@$00$01$02$03$04$05@?$xorstr@$06$0CF@@@QAE@PBDU?$integer_sequence@I$0A@$00$01$02$03$04$05@std@@@Z 10006400 f i c_damage_esp.obj
 0001:000054e0       ??$?0$0A@$00$01$02$03$04$05@?$xorstr@$06$0HK@@@QAE@PBDU?$integer_sequence@I$0A@$00$01$02$03$04$05@std@@@Z 100064e0 f i c_damage_esp.obj
 0001:000055c0       ??$?0$0A@$00$01$02$03$04@?$xorstr@$05$0GI@@@QAE@PBDU?$integer_sequence@I$0A@$00$01$02$03$04@std@@@Z 100065c0 f i c_damage_esp.obj
 0001:00005690       ??$?0$0A@$00@?$xorstr@$01$0DK@@@QAE@PBDU?$integer_sequence@I$0A@$00@std@@@Z 10006690 f i c_damage_esp.obj
 0001:000056e0       ??$?0$0A@$00@?$xorstr@$01$0DL@@@QAE@PBDU?$integer_sequence@I$0A@$00@std@@@Z 100066e0 f i c_damage_esp.obj
 0001:00005730       ??$?0$0A@$00@?$xorstr@$01$0EK@@@QAE@PBDU?$integer_sequence@I$0A@$00@std@@@Z 10006730 f i c_damage_esp.obj
 0001:00005780       ??$?0ABV?$allocator@_W@std@@$$V@?$_Compressed_pair@V?$allocator@_W@std@@V?$_String_val@U?$_Simple_types@_W@std@@@2@$00@std@@QAE@U_One_then_variadic_args_t@1@ABV?$allocator@_W@1@@Z 10006780 f i c_miscellaneous.obj
 0001:00005780       ??$?0ABV?$allocator@D@std@@$$V@?$_Compressed_pair@V?$allocator@D@std@@V?$_String_val@U?$_Simple_types@D@std@@@2@$00@std@@QAE@U_One_then_variadic_args_t@1@ABV?$allocator@D@1@@Z 10006780 f i c_damage_esp.obj
 0001:00005780       ??$?0V?$allocator@D@std@@$$V@?$_Compressed_pair@V?$allocator@D@std@@V?$_String_val@U?$_Simple_types@D@std@@@2@$00@std@@QAE@U_One_then_variadic_args_t@1@$$QAV?$allocator@D@1@@Z 10006780 f i c_damage_esp.obj
 0001:000057b0       ??$_Destroy_range@V?$allocator@V?$function@$$A6AXXZ@std@@@std@@@std@@YAXPAV?$function@$$A6AXXZ@0@0AAV?$allocator@V?$function@$$A6AXXZ@std@@@0@@Z 100067b0 f i c_damage_esp.obj
 0001:000057b0       ??$_Destroy_range@V?$allocator@V?$function@$$A6AXI@Z@std@@@std@@@std@@YAXPAV?$function@$$A6AXI@Z@0@0AAV?$allocator@V?$function@$$A6AXI@Z@std@@@0@@Z 100067b0 f i c_fake_ping.obj
 0001:00005810       ??$_Free_non_head@V?$allocator@U?$_List_node@U?$pair@$$CBIVc_font@@@std@@PAX@std@@@std@@@?$_List_node@U?$pair@$$CBIVc_font@@@std@@PAX@std@@SAXAAV?$allocator@U?$_List_node@U?$pair@$$CBIVc_font@@@std@@PAX@std@@@1@PAU01@@Z 10006810 f i c_damage_esp.obj
 0001:00005860       ??$_Freenode0@V?$allocator@U?$_List_node@U?$pair@$$CBIVc_font@@@std@@PAX@std@@@std@@@?$_List_node@U?$pair@$$CBIVc_font@@@std@@PAX@std@@SAXAAV?$allocator@U?$_List_node@U?$pair@$$CBIVc_font@@@std@@PAX@std@@@1@PAU01@@Z 10006860 f i c_damage_esp.obj
 0001:000058e0       ??$_Freenode@V?$allocator@U?$_List_node@U?$pair@$$CBIVc_font@@@std@@PAX@std@@@std@@@?$_List_node@U?$pair@$$CBIVc_font@@@std@@PAX@std@@SAXAAV?$allocator@U?$_List_node@U?$pair@$$CBIVc_font@@@std@@PAX@std@@@1@PAU01@@Z 100068e0 f i c_damage_esp.obj
 0001:00005940       ??$_Get_unwrapped@V?$_String_iterator@V?$_String_val@U?$_Simple_types@D@std@@@std@@@std@@$0A@@std@@YAPADABV?$_String_iterator@V?$_String_val@U?$_Simple_types@D@std@@@std@@@0@@Z 10006940 f i c_damage_esp.obj
 0001:00005950       ??$_Get_unwrapped_n@V?$_String_iterator@V?$_String_val@U?$_Simple_types@D@std@@@std@@@std@@H$0A@@std@@YAPADABV?$_String_iterator@V?$_String_val@U?$_Simple_types@D@std@@@std@@@0@H@Z 10006950 f i c_damage_esp.obj
 0001:00005980       ??$_Idl_distance@V?$_String_iterator@V?$_String_val@U?$_Simple_types@D@std@@@std@@@std@@PAD@std@@YAHABQAD0@Z 10006980 f i c_damage_esp.obj
 0001:00005980       ??$_Idl_distance@PBEPBE@std@@YAHABQBE0@Z 10006980 f i c_miscellaneous.obj
 0001:00005980       ??$_Idl_distance@PADPAD@std@@YAHABQAD0@Z 10006980 f i c_conf.obj
 0001:00005990       ??$_Reallocate_for@V<lambda_1>@?1??assign@?$basic_string@DU?$char_traits@D@std@@V?$allocator@D@2@@std@@QAEAAV34@QBDI@Z@PBD@?$basic_string@DU?$char_traits@D@std@@V?$allocator@D@2@@std@@AAEAAV01@IV<lambda_1>@?1??assign@01@QAEAAV01@QBDI@Z@PBD@Z 10006990 f i c_damage_esp.obj
 0001:00005a70       ??$_Reallocate_grow_by@V<lambda_1>@?1??append@?$basic_string@DU?$char_traits@D@std@@V?$allocator@D@2@@std@@QAEAAV34@ID@Z@ID@?$basic_string@DU?$char_traits@D@std@@V?$allocator@D@2@@std@@AAEAAV01@IV<lambda_1>@?1??append@01@QAEAAV01@ID@Z@ID@Z 10006a70 f i c_damage_esp.obj
 0001:00005ba0       ??$_Seek_wrapped@V?$_String_iterator@V?$_String_val@U?$_Simple_types@D@std@@@std@@@std@@PAD@std@@YAXAAV?$_String_iterator@V?$_String_val@U?$_Simple_types@D@std@@@std@@@0@ABQAD@Z 10006ba0 f i c_damage_esp.obj
 0001:00005bc0       ??$_Traits_find_first_not_of@U?$char_traits@D@std@@@std@@YAIQBDII0IU?$integral_constant@_N$00@0@@Z 10006bc0 f i c_damage_esp.obj
 0001:00005cd0       ??$_Traits_find_first_not_of@U?$char_traits@D@std@@@std@@YAIQBDII0IU?$integral_constant@_N$0A@@0@@Z 10006cd0 f i c_damage_esp.obj
 0001:00005d30       ??$_Traits_find_first_of@U?$char_traits@D@std@@@std@@YAIQBDII0IU?$integral_constant@_N$00@0@@Z 10006d30 f i c_damage_esp.obj
 0001:00005e50       ??$_Traits_find_first_of@U?$char_traits@D@std@@@std@@YAIQBDII0IU?$integral_constant@_N$0A@@0@@Z 10006e50 f i c_damage_esp.obj
 0001:00005ec0       ??$destroy@U?$pair@$$CBIVc_font@@@std@@@?$_Default_allocator_traits@V?$allocator@U?$_List_node@U?$pair@$$CBIVc_font@@@std@@PAX@std@@@std@@@std@@SAXAAV?$allocator@U?$_List_node@U?$pair@$$CBIVc_font@@@std@@PAX@std@@@1@QAU?$pair@$$CBIVc_font@@@1@@Z 10006ec0 f i c_damage_esp.obj
 0001:00005ed0       ??$destroy@V?$function@$$A6AXI@Z@std@@@?$_Default_allocator_traits@V?$allocator@V?$function@$$A6AXI@Z@std@@@std@@@std@@SAXAAV?$allocator@V?$function@$$A6AXI@Z@std@@@1@QAV?$function@$$A6AXI@Z@1@@Z 10006ed0 f i c_fake_ping.obj
 0001:00005ed0       ??$destroy@V?$function@$$A6AXXZ@std@@@?$_Default_allocator_traits@V?$allocator@V?$function@$$A6AXXZ@std@@@std@@@std@@SAXAAV?$allocator@V?$function@$$A6AXXZ@std@@@1@QAV?$function@$$A6AXXZ@1@@Z 10006ed0 f i c_damage_esp.obj
 0001:00005ef0       ??$get_interface@Vc_engine_client@@@@YAPAVc_engine_client@@II@Z 10006ef0 f i c_damage_esp.obj
 0001:00005ef0       ??$get_interface@Vc_client_entity_list@@@@YAPAVc_client_entity_list@@II@Z 10006ef0 f i c_damage_esp.obj
 0001:00006130       ??$instance@$$V@?$c_singleton@Vc_config@@@@SAPAVc_config@@XZ 10007130 f i c_damage_esp.obj
 0001:00006180       ??$instance@$$V@?$c_singleton@Vidirect3ddevice9@@@@SAPAVidirect3ddevice9@@XZ 10007180 f i c_damage_esp.obj
 0001:00006220       ??$transform@V?$_String_iterator@V?$_String_val@U?$_Simple_types@D@std@@@std@@@std@@V12@P6AHH@Z@std@@YA?AV?$_String_iterator@V?$_String_val@U?$_Simple_types@D@std@@@std@@@0@V10@0V10@P6AHH@Z@Z 10007220 f i c_damage_esp.obj
 0001:000062d0       ??0?$_String_bitmap@D$00@std@@QAE@XZ 100072d0 f i c_damage_esp.obj
 0001:00006300       ??0?$_Vector_val@U?$_Simple_types@U?$pair@PAVc_cs_player@@M@std@@@std@@@std@@QAE@XZ 10007300 f i c_chams.obj
 0001:00006300       ??0?$_Vector_val@U?$_Simple_types@Vc_vector2d@@@std@@@std@@QAE@XZ 10007300 f i c_renderer.obj
 0001:00006300       ??0?$_Vector_val@U?$_Simple_types@U?$pair@V?$basic_string@DU?$char_traits@D@std@@V?$allocator@D@2@@std@@D@std@@@std@@@std@@QAE@XZ 10007300 f i c_menu.obj
 0001:00006300       ??0?$_Vector_val@U?$_Simple_types@V?$_List_unchecked_iterator@V?$_List_val@U?$_List_simple_types@U?$pair@$$CBIVc_font@@@std@@@std@@@std@@@std@@@std@@@std@@QAE@XZ 10007300 f i c_renderer.obj
 0001:00006300       ??0?$_Vector_val@U?$_Simple_types@E@std@@@std@@QAE@XZ 10007300 f i c_miscellaneous.obj
 0001:00006300       ??0?$_Vector_val@U?$_Simple_types@Uaim_info@c_aimhelper@@@std@@@std@@QAE@XZ 10007300 f i c_aimhelper.obj
 0001:00006300       ??0?$_Vector_val@U?$_Simple_types@Uplayer_info@c_esp@@@std@@@std@@QAE@XZ 10007300 f i c_damage_esp.obj
 0001:00006300       ??0?$_Vector_val@U?$_Simple_types@U?$pair@V?$shared_ptr@Vc_drawable@@@std@@U?$pair@Vc_vector2d@@V1@@2@@std@@@std@@@std@@QAE@XZ 10007300 f i c_checkbox.obj
 0001:00006300       ??0?$_Vector_val@U?$_Simple_types@V?$function@$$A6AXXZ@std@@@std@@@std@@QAE@XZ 10007300 f i c_renderer.obj
 0001:00006300       ??0?$_Vector_val@U?$_Simple_types@Uhitmarker_info@@@std@@@std@@QAE@XZ 10007300 f i c_hitmarker.obj
 0001:00006300       ??0?$_Vector_val@U?$_Simple_types@V?$_List_unchecked_iterator@V?$_List_val@U?$_List_simple_types@U?$pair@$$CBIV?$unordered_map@IUnetvar@c_netvar@@U?$hash@I@std@@U?$equal_to@I@4@V?$allocator@U?$pair@$$CBIUnetvar@c_netvar@@@std@@@4@@std@@@std@@@std@@@std@@@std@@@std@@@std@@QAE@XZ 10007300 f i c_netvar.obj
 0001:00006300       ??0?$_Vector_val@U?$_Simple_types@Unade_info@c_esp@@@std@@@std@@QAE@XZ 10007300 f i c_damage_esp.obj
 0001:00006300       ??0?$_Vector_val@U?$_Simple_types@V?$basic_string@DU?$char_traits@D@std@@V?$allocator@D@2@@std@@@std@@@std@@QAE@XZ 10007300 f i c_miscellaneous.obj
 0001:00006300       ??0?$_Vector_val@U?$_Simple_types@D@std@@@std@@QAE@XZ 10007300 f i c_miscellaneous.obj
 0001:00006300       ??0?$_Vector_val@U?$_Simple_types@PAUanimation@c_animation_system@@@std@@@std@@QAE@XZ 10007300 f i c_aimhelper.obj
 0001:00006300       ??0?$_Vector_val@U?$_Simple_types@V?$_List_unchecked_iterator@V?$_List_val@U?$_List_simple_types@U?$pair@$$CBIUanimation_info@c_animation_system@@@std@@@std@@@std@@@std@@@std@@@std@@QAE@XZ 10007300 f i c_aimhelper.obj
 0001:00006300       ??0?$_Vector_val@U?$_Simple_types@M@std@@@std@@QAE@XZ 10007300 f i c_font.obj
 0001:00006300       ??0?$_Vector_val@U?$_Simple_types@V?$basic_json@Vmap@std@@Vvector@2@V?$basic_string@DU?$char_traits@D@std@@V?$allocator@D@2@@2@_N_J_KNVallocator@2@Uadl_serializer@nlohmann@@@nlohmann@@@std@@@std@@QAE@XZ 10007300 f i c_conf.obj
 0001:00006300       ??0?$_Vector_val@U?$_Simple_types@V?$vector@MV?$allocator@M@std@@@std@@@std@@@std@@QAE@XZ 10007300 f i c_font.obj
 0001:00006300       ??0?$_Vector_val@U?$_Simple_types@H@std@@@std@@QAE@XZ 10007300 f i c_aimhelper.obj
 0001:00006300       ??0?$_Vector_val@U?$_Simple_types@Uimpact_info@@@std@@@std@@QAE@XZ 10007300 f i c_hitmarker.obj
 0001:00006300       ??0?$_Vector_val@U?$_Simple_types@W4hitbox@c_cs_player@@@std@@@std@@QAE@XZ 10007300 f i c_ragebot.obj
 0001:00006300       ??0?$_Vector_val@U?$_Simple_types@Vc_vector3d@@@std@@@std@@QAE@XZ 10007300 f i c_ragebot.obj
 0001:00006300       ??0?$_Vector_val@U?$_Simple_types@V?$_List_unchecked_iterator@V?$_List_val@U?$_List_simple_types@U?$pair@QAVc_hotkey_select@@V?$function@$$A6AXI@Z@std@@@std@@@std@@@std@@@std@@@std@@@std@@QAE@XZ 10007300 f i c_hotkeys.obj
 0001:00006300       ??0?$_Vector_val@U?$_Simple_types@V?$tuple@MMM@std@@@std@@@std@@QAE@XZ 10007300 f i c_aimhelper.obj
 0001:00006300       ??0?$_Vector_val@U?$_Simple_types@V?$_List_unchecked_iterator@V?$_List_val@U?$_List_simple_types@U?$pair@$$CBIUnetvar@c_netvar@@@std@@@std@@@std@@@std@@@std@@@std@@QAE@XZ 10007300 f i c_aimhelper.obj
 0001:00006300       ??0?$_Vector_val@U?$_Simple_types@V?$function@$$A6AXI@Z@std@@@std@@@std@@QAE@XZ 10007300 f i c_hotkeys.obj
 0001:00006300       ??0?$_Vector_val@U?$_Simple_types@V?$_List_unchecked_iterator@V?$_List_val@U?$_List_simple_types@U?$pair@$$CBIU?$pair@HH@std@@@std@@@std@@@std@@@std@@@std@@@std@@QAE@XZ 10007300 f i c_esp.obj
 0001:00006330       ??0?$basic_string@DU?$char_traits@D@std@@V?$allocator@D@2@@std@@QAE@$$QAV01@@Z 10007330 f i c_damage_esp.obj
 0001:000063d0       ??0?$basic_string@DU?$char_traits@D@std@@V?$allocator@D@2@@std@@QAE@ABV01@IIABV?$allocator@D@1@@Z 100073d0 f i c_damage_esp.obj
 0001:00006470       ??0?$basic_string@DU?$char_traits@D@std@@V?$allocator@D@2@@std@@QAE@QBD@Z 10007470 f i c_damage_esp.obj
 0001:00006510       ??0?$vector@Uplayer_info@c_esp@@V?$allocator@Uplayer_info@c_esp@@@std@@@std@@QAE@XZ 10007510 f i c_damage_esp.obj
 0001:00006510       ??0?$vector@V?$function@$$A6AXI@Z@std@@V?$allocator@V?$function@$$A6AXI@Z@std@@@2@@std@@QAE@XZ 10007510 f i c_hotkeys.obj
 0001:00006510       ??0?$vector@V?$basic_json@Vmap@std@@Vvector@2@V?$basic_string@DU?$char_traits@D@std@@V?$allocator@D@2@@2@_N_J_KNVallocator@2@Uadl_serializer@nlohmann@@@nlohmann@@V?$allocator@V?$basic_json@Vmap@std@@Vvector@2@V?$basic_string@DU?$char_traits@D@std@@V?$allocator@D@2@@2@_N_J_KNVallocator@2@Uadl_serializer@nlohmann@@@nlohmann@@@std@@@std@@QAE@XZ 10007510 f i c_conf.obj
 0001:00006510       ??0?$vector@V?$tuple@MMM@std@@V?$allocator@V?$tuple@MMM@std@@@2@@std@@QAE@XZ 10007510 f i c_aimhelper.obj
 0001:00006510       ??0?$vector@Vc_vector3d@@V?$allocator@Vc_vector3d@@@std@@@std@@QAE@XZ 10007510 f i c_ragebot.obj
 0001:00006510       ??0?$vector@MV?$allocator@M@std@@@std@@QAE@XZ 10007510 f i c_font.obj
 0001:00006510       ??0?$vector@Vc_vector2d@@V?$allocator@Vc_vector2d@@@std@@@std@@QAE@XZ 10007510 f i c_renderer.obj
 0001:00006510       ??0?$vector@W4hitbox@c_cs_player@@V?$allocator@W4hitbox@c_cs_player@@@std@@@std@@QAE@XZ 10007510 f i c_ragebot.obj
 0001:00006510       ??0?$vector@HV?$allocator@H@std@@@std@@QAE@XZ 10007510 f i c_aimhelper.obj
 0001:00006510       ??0?$vector@Uaim_info@c_aimhelper@@V?$allocator@Uaim_info@c_aimhelper@@@std@@@std@@QAE@XZ 10007510 f i c_aimhelper.obj
 0001:00006510       ??0?$vector@DV?$allocator@D@std@@@std@@QAE@XZ 10007510 f i c_conf.obj
 0001:00006510       ??0?$vector@Uimpact_info@@V?$allocator@Uimpact_info@@@std@@@std@@QAE@XZ 10007510 f i c_hitmarker.obj
 0001:00006510       ??0?$vector@Unade_info@c_esp@@V?$allocator@Unade_info@c_esp@@@std@@@std@@QAE@XZ 10007510 f i c_damage_esp.obj
 0001:00006510       ??0?$vector@U?$pair@V?$basic_string@DU?$char_traits@D@std@@V?$allocator@D@2@@std@@D@std@@V?$allocator@U?$pair@V?$basic_string@DU?$char_traits@D@std@@V?$allocator@D@2@@std@@D@std@@@2@@std@@QAE@XZ 10007510 f i c_float_select.obj
 0001:00006510       ??0?$vector@V?$function@$$A6AXXZ@std@@V?$allocator@V?$function@$$A6AXXZ@std@@@2@@std@@QAE@XZ 10007510 f i c_renderer.obj
 0001:00006510       ??0?$vector@PAUanimation@c_animation_system@@V?$allocator@PAUanimation@c_animation_system@@@std@@@std@@QAE@XZ 10007510 f i c_animation_system.obj
 0001:00006510       ??0?$vector@V?$vector@MV?$allocator@M@std@@@std@@V?$allocator@V?$vector@MV?$allocator@M@std@@@std@@@2@@std@@QAE@XZ 10007510 f i c_font.obj
 0001:00006510       ??0?$vector@U?$pair@PAVc_cs_player@@M@std@@V?$allocator@U?$pair@PAVc_cs_player@@M@std@@@2@@std@@QAE@XZ 10007510 f i c_chams.obj
 0001:00006510       ??0?$vector@Uhitmarker_info@@V?$allocator@Uhitmarker_info@@@std@@@std@@QAE@XZ 10007510 f i c_hitmarker.obj
 0001:00006570       ??0FloatingText@@QAE@XZ    10007570 f i c_damage_esp.obj
 0001:000065e0       ??0_Fake_proxy_ptr_impl@std@@QAE@ABU_Fake_allocator@1@ABU_Container_base0@1@@Z 100075e0 f i c_damage_esp.obj
 0001:000065f0       ??0_Mutex_base@std@@QAE@H@Z 100075f0 f i c_damage_esp.obj
 0001:00006620       ??0c_vector2d@@QAE@MM@Z    10007620 f i c_damage_esp.obj
 0001:00006650       ??0c_vector2d@@QAE@XZ      10007650 f i c_damage_esp.obj
 0001:00006680       ??0D3DXVECTOR3@@QAE@MMM@Z  10007680 f i c_renderer.obj
 0001:00006680       ??0c_vector3d@@QAE@MMM@Z   10007680 f i c_damage_esp.obj
 0001:000066c0       ??0c_vector3d@@QAE@XZ      100076c0 f i c_damage_esp.obj
 0001:00006700       ??0esp_info@c_esp@@QAE@XZ  10007700 f i c_damage_esp.obj
 0001:00006790       ??0mutex@std@@QAE@XZ       10007790 f i c_damage_esp.obj
 0001:000067b0       ??1?$_Func_class@XPAVc_cs_player@@@std@@QAE@XZ 100077b0 f i c_aimhelper.obj
 0001:000067b0       ??1?$_Func_class@_NHW4parse_event_t@?$parser@V?$basic_json@Vmap@std@@Vvector@2@V?$basic_string@DU?$char_traits@D@std@@V?$allocator@D@2@@2@_N_J_KNVallocator@2@Uadl_serializer@nlohmann@@@nlohmann@@@detail@nlohmann@@AAV?$basic_json@Vmap@std@@Vvector@2@V?$basic_string@DU?$char_traits@D@std@@V?$allocator@D@2@@2@_N_J_KNVallocator@2@Uadl_serializer@nlohmann@@@4@@std@@QAE@XZ 100077b0 f i c_conf.obj
 0001:000067b0       ??1?$_Func_class@X$$V@std@@QAE@XZ 100077b0 f i c_damage_esp.obj
 0001:000067b0       ??1?$_Func_class@XI@std@@QAE@XZ 100077b0 f i c_fake_ping.obj
 0001:000067b0       ??1?$_Func_class@XPAVc_client_entity@@@std@@QAE@XZ 100077b0 f i c_esp.obj
 0001:000067d0       ??1?$_Hash@V?$_Umap_traits@IVc_font@@V?$_Uhash_compare@IU?$hash@I@std@@U?$equal_to@I@2@@std@@V?$allocator@U?$pair@$$CBIVc_font@@@std@@@3@$0A@@std@@@std@@QAE@XZ 100077d0 f i c_damage_esp.obj
 0001:00006800       ??1?$function@$$A6A_NHW4parse_event_t@?$parser@V?$basic_json@Vmap@std@@Vvector@2@V?$basic_string@DU?$char_traits@D@std@@V?$allocator@D@2@@2@_N_J_KNVallocator@2@Uadl_serializer@nlohmann@@@nlohmann@@@detail@nlohmann@@AAV?$basic_json@Vmap@std@@Vvector@2@V?$basic_string@DU?$char_traits@D@std@@V?$allocator@D@2@@2@_N_J_KNVallocator@2@Uadl_serializer@nlohmann@@@4@@Z@std@@QAE@XZ 10007800 f i c_conf.obj
 0001:00006800       ??1?$function@$$A6AXPAVc_client_entity@@@Z@std@@QAE@XZ 10007800 f i c_esp.obj
 0001:00006800       ??1?$function@$$A6AXPAVc_cs_player@@@Z@std@@QAE@XZ 10007800 f i c_aimhelper.obj
 0001:00006800       ??1?$function@$$A6AXI@Z@std@@QAE@XZ 10007800 f i c_fake_ping.obj
 0001:00006800       ??1?$function@$$A6AXXZ@std@@QAE@XZ 10007800 f i c_damage_esp.obj
 0001:00006820       ??1?$list@U?$pair@$$CBIVc_font@@@std@@V?$allocator@U?$pair@$$CBIVc_font@@@std@@@2@@std@@QAE@XZ 10007820 f i c_damage_esp.obj
 0001:00006840       ??1?$pair@$$CBIVc_font@@@std@@QAE@XZ 10007840 f i c_damage_esp.obj
 0001:00006860       ??1?$unique_ptr@Vc_renderer@@U?$default_delete@Vc_renderer@@@std@@@std@@QAE@XZ 10007860 f i c_damage_esp.obj
 0001:000068a0       ??1?$unordered_map@IVc_font@@U?$hash@I@std@@U?$equal_to@I@3@V?$allocator@U?$pair@$$CBIVc_font@@@std@@@3@@std@@QAE@XZ 100078a0 f i c_damage_esp.obj
 0001:000068c0       ??1?$vector@Unade_info@c_esp@@V?$allocator@Unade_info@c_esp@@@std@@@std@@QAE@XZ 100078c0 f i c_damage_esp.obj
 0001:000068c0       ??1?$vector@Uimpact_info@@V?$allocator@Uimpact_info@@@std@@@std@@QAE@XZ 100078c0 f i c_hitmarker.obj
 0001:000068e0       ??1?$vector@Uplayer_info@c_esp@@V?$allocator@Uplayer_info@c_esp@@@std@@@std@@QAE@XZ 100078e0 f i c_damage_esp.obj
 0001:00006900       ??1?$vector@W4hitbox@c_cs_player@@V?$allocator@W4hitbox@c_cs_player@@@std@@@std@@QAE@XZ 10007900 f i c_ragebot.obj
 0001:00006900       ??1?$vector@V?$_List_unchecked_iterator@V?$_List_val@U?$_List_simple_types@U?$pair@$$CBIU?$pair@HH@std@@@std@@@std@@@std@@@std@@V?$allocator@V?$_List_unchecked_iterator@V?$_List_val@U?$_List_simple_types@U?$pair@$$CBIU?$pair@HH@std@@@std@@@std@@@std@@@std@@@2@@std@@QAE@XZ 10007900 f i c_esp.obj
 0001:00006900       ??1?$vector@V?$_List_unchecked_iterator@V?$_List_val@U?$_List_simple_types@U?$pair@$$CBIV?$unordered_map@IUnetvar@c_netvar@@U?$hash@I@std@@U?$equal_to@I@4@V?$allocator@U?$pair@$$CBIUnetvar@c_netvar@@@std@@@4@@std@@@std@@@std@@@std@@@std@@V?$allocator@V?$_List_unchecked_iterator@V?$_List_val@U?$_List_simple_types@U?$pair@$$CBIV?$unordered_map@IUnetvar@c_netvar@@U?$hash@I@std@@U?$equal_to@I@4@V?$allocator@U?$pair@$$CBIUnetvar@c_netvar@@@std@@@4@@std@@@std@@@std@@@std@@@std@@@2@@std@@QAE@XZ 10007900 f i dllmain.obj
 0001:00006900       ??1?$vector@V?$_List_unchecked_iterator@V?$_List_val@U?$_List_simple_types@U?$pair@QAVc_hotkey_select@@V?$function@$$A6AXI@Z@std@@@std@@@std@@@std@@@std@@V?$allocator@V?$_List_unchecked_iterator@V?$_List_val@U?$_List_simple_types@U?$pair@QAVc_hotkey_select@@V?$function@$$A6AXI@Z@std@@@std@@@std@@@std@@@std@@@2@@std@@QAE@XZ 10007900 f i c_fake_ping.obj
 0001:00006900       ??1?$vector@MV?$allocator@M@std@@@std@@QAE@XZ 10007900 f i c_font.obj
 0001:00006900       ??1?$vector@V?$_List_unchecked_iterator@V?$_List_val@U?$_List_simple_types@U?$pair@$$CBIUnetvar@c_netvar@@@std@@@std@@@std@@@std@@V?$allocator@V?$_List_unchecked_iterator@V?$_List_val@U?$_List_simple_types@U?$pair@$$CBIUnetvar@c_netvar@@@std@@@std@@@std@@@std@@@2@@std@@QAE@XZ 10007900 f i dllmain.obj
 0001:00006900       ??1?$vector@V?$_List_unchecked_iterator@V?$_List_val@U?$_List_simple_types@U?$pair@$$CBIVc_font@@@std@@@std@@@std@@@std@@V?$allocator@V?$_List_unchecked_iterator@V?$_List_val@U?$_List_simple_types@U?$pair@$$CBIVc_font@@@std@@@std@@@std@@@std@@@2@@std@@QAE@XZ 10007900 f i c_damage_esp.obj
 0001:00006900       ??1?$vector@V?$_List_unchecked_iterator@V?$_List_val@U?$_List_simple_types@U?$pair@$$CBIUanimation_info@c_animation_system@@@std@@@std@@@std@@@std@@V?$allocator@V?$_List_unchecked_iterator@V?$_List_val@U?$_List_simple_types@U?$pair@$$CBIUanimation_info@c_animation_system@@@std@@@std@@@std@@@std@@@2@@std@@QAE@XZ 10007900 f i c_aimhelper.obj
 0001:00006900       ??1?$vector@PAUanimation@c_animation_system@@V?$allocator@PAUanimation@c_animation_system@@@std@@@std@@QAE@XZ 10007900 f i c_aimhelper.obj
 0001:00006900       ??1?$vector@HV?$allocator@H@std@@@std@@QAE@XZ 10007900 f i c_aimhelper.obj
 0001:00006920       ??1?$vector@V?$function@$$A6AXXZ@std@@V?$allocator@V?$function@$$A6AXXZ@std@@@2@@std@@QAE@XZ 10007920 f i c_damage_esp.obj
 0001:00006920       ??1?$vector@V?$function@$$A6AXI@Z@std@@V?$allocator@V?$function@$$A6AXI@Z@std@@@2@@std@@QAE@XZ 10007920 f i c_fake_ping.obj
 0001:00006940       ??1?$vector@U?$pair@PAVc_cs_player@@M@std@@V?$allocator@U?$pair@PAVc_cs_player@@M@std@@@2@@std@@QAE@XZ 10007940 f i c_chams.obj
 0001:00006940       ??1?$vector@Vc_vector2d@@V?$allocator@Vc_vector2d@@@std@@@std@@QAE@XZ 10007940 f i c_damage_esp.obj
 0001:00006960       ??1?$vector@Vc_vector3d@@V?$allocator@Vc_vector3d@@@std@@@std@@QAE@XZ 10007960 f i c_damage_esp.obj
 0001:00006960       ??1?$vector@V?$tuple@MMM@std@@V?$allocator@V?$tuple@MMM@std@@@2@@std@@QAE@XZ 10007960 f i c_aimhelper.obj
 0001:00006980       ??1_Mutex_base@std@@QAE@XZ 10007980 f i c_damage_esp.obj
 0001:000069a0       ??1c_renderer@@QAE@XZ      100079a0 f i c_damage_esp.obj
 0001:000069e0       ??1chams@chams_conf@config_conf@c_config@@QAE@XZ 100079e0 f i c_damage_esp.obj
 0001:00006a00       ??1chams_conf@config_conf@c_config@@QAE@XZ 10007a00 f i c_damage_esp.obj
 0001:00006a50       ??1config_conf@c_config@@QAE@XZ 10007a50 f i c_damage_esp.obj
 0001:00006a80       ??1esp_conf@config_conf@c_config@@QAE@XZ 10007a80 f i c_damage_esp.obj
 0001:00006ab0       ??1esp_info@c_esp@@QAE@XZ  10007ab0 f i c_damage_esp.obj
 0001:00006ae0       ??1idirect3ddevice9@@QAE@XZ 10007ae0 f i c_damage_esp.obj
 0001:00006b00       ??1mutex@std@@QAE@XZ       10007b00 f i c_damage_esp.obj
 0001:00006b20       ??1player@esp_conf@config_conf@c_config@@QAE@XZ 10007b20 f i c_damage_esp.obj
 0001:00006b40       ??A?$array@E$0BJA@@std@@QBEABEI@Z 10007b40 f i c_conf.obj
 0001:00006b40       ??A?$array@D$0BI@@std@@QAEAADI@Z 10007b40 f i c_chams.obj
 0001:00006b40       ??A?$array@D$0CN@@std@@QAEAADI@Z 10007b40 f i c_animation_system.obj
 0001:00006b40       ??A?$array@D$0BF@@std@@QAEAADI@Z 10007b40 f i c_esp.obj
 0001:00006b40       ??A?$array@D$05@std@@QAEAADI@Z 10007b40 f i c_damage_esp.obj
 0001:00006b40       ??A?$array@D$0IF@@std@@QAEAADI@Z 10007b40 f i c_events.obj
 0001:00006b40       ??A?$array@D$07@std@@QAEAADI@Z 10007b40 f i c_esp.obj
 0001:00006b40       ??A?$array@D$0CO@@std@@QAEAADI@Z 10007b40 f i c_view_render_.obj
 0001:00006b40       ??A?$array@D$08@std@@QAEAADI@Z 10007b40 f i c_damage_esp.obj
 0001:00006b40       ??A?$array@D$0DM@@std@@QAEAADI@Z 10007b40 f i sounds.obj
 0001:00006b40       ??A?$array@D$0BD@@std@@QAEAADI@Z 10007b40 f i c_miscellaneous.obj
 0001:00006b40       ??A?$array@D$0BA@@std@@QAEAADI@Z 10007b40 f i c_trace_system.obj
 0001:00006b40       ??A?$array@D$0CI@@std@@QAEAADI@Z 10007b40 f i c_miscellaneous.obj
 0001:00006b40       ??A?$array@D$0FF@@std@@QAEAADI@Z 10007b40 f i c_welcome_message.obj
 0001:00006b40       ??A?$array@D$09@std@@QAEAADI@Z 10007b40 f i c_esp.obj
 0001:00006b40       ??A?$array@D$06@std@@QAEAADI@Z 10007b40 f i c_damage_esp.obj
 0001:00006b40       ??A?$array@D$0CJ@@std@@QAEAADI@Z 10007b40 f i c_miscellaneous.obj
 0001:00006b40       ??A?$array@D$0BO@@std@@QAEAADI@Z 10007b40 f i c_miscellaneous.obj
 0001:00006b40       ??A?$array@D$0BJ@@std@@QAEAADI@Z 10007b40 f i c_animation_system.obj
 0001:00006b40       ??A?$array@D$02@std@@QAEAADI@Z 10007b40 f i c_resolver.obj
 0001:00006b40       ??A?$array@D$0CB@@std@@QAEAADI@Z 10007b40 f i c_esp.obj
 0001:00006b40       ??A?$array@D$0BL@@std@@QAEAADI@Z 10007b40 f i c_miscellaneous.obj
 0001:00006b40       ??A?$array@D$0JF@@std@@QAEAADI@Z 10007b40 f i c_events.obj
 0001:00006b40       ??A?$array@D$0CH@@std@@QAEAADI@Z 10007b40 f i c_animation_system.obj
 0001:00006b40       ??A?$array@D$0BG@@std@@QAEAADI@Z 10007b40 f i c_miscellaneous.obj
 0001:00006b40       ??A?$array@D$0FG@@std@@QAEAADI@Z 10007b40 f i c_resolver.obj
 0001:00006b40       ??A?$array@D$0BFO@@std@@QAEAADI@Z 10007b40 f i c_welcome_message.obj
 0001:00006b40       ??A?$array@D$0BC@@std@@QAEAADI@Z 10007b40 f i c_chams.obj
 0001:00006b40       ??A?$array@D$0BE@@std@@QAEAADI@Z 10007b40 f i c_animation_system.obj
 0001:00006b40       ??A?$array@D$03@std@@QAEAADI@Z 10007b40 f i c_resolver.obj
 0001:00006b40       ??A?$array@D$0DA@@std@@QAEAADI@Z 10007b40 f i c_animation_system.obj
 0001:00006b40       ??A?$array@D$0CF@@std@@QAEAADI@Z 10007b40 f i sounds.obj
 0001:00006b40       ??A?$array@D$0L@@std@@QAEAADI@Z 10007b40 f i c_damage_esp.obj
 0001:00006b40       ??A?$array@D$0KM@@std@@QAEAADI@Z 10007b40 f i c_events.obj
 0001:00006b40       ??A?$array@D$0CK@@std@@QAEAADI@Z 10007b40 f i c_cs_player_.obj
 0001:00006b40       ??A?$array@D$04@std@@QAEAADI@Z 10007b40 f i c_resolver.obj
 0001:00006b40       ??A?$array@D$0BN@@std@@QAEAADI@Z 10007b40 f i c_aimhelper.obj
 0001:00006b40       ??A?$array@D$00@std@@QAEAADI@Z 10007b40 f i c_select.obj
 0001:00006b40       ??A?$array@D$0P@@std@@QAEAADI@Z 10007b40 f i c_antiaim.obj
 0001:00006b40       ??A?$array@D$0BB@@std@@QAEAADI@Z 10007b40 f i c_hitmarker.obj
 0001:00006b40       ??A?$array@D$0O@@std@@QAEAADI@Z 10007b40 f i c_miscellaneous.obj
 0001:00006b40       ??A?$array@D$01@std@@QAEAADI@Z 10007b40 f i c_damage_esp.obj
 0001:00006b40       ??A?$array@D$0BM@@std@@QAEAADI@Z 10007b40 f i idirect3ddevice9.obj
 0001:00006b40       ??A?$array@D$0EA@@std@@QAEAADI@Z 10007b40 f i c_conf.obj
 0001:00006b40       ??A?$array@D$0CD@@std@@QAEAADI@Z 10007b40 f i c_antiaim.obj
 0001:00006b40       ??A?$array@D$0CE@@std@@QAEAADI@Z 10007b40 f i sounds.obj
 0001:00006b40       ??A?$array@D$0CM@@std@@QAEAADI@Z 10007b40 f i c_miscellaneous.obj
 0001:00006b40       ??A?$array@D$0CG@@std@@QAEAADI@Z 10007b40 f i c_engine_client.obj
 0001:00006b40       ??A?$array@D$0CAA@@std@@QAEAADI@Z 10007b40 f i c_conf.obj
 0001:00006b40       ??A?$array@D$0DE@@std@@QAEAADI@Z 10007b40 f i c_miscellaneous.obj
 0001:00006b40       ??A?$array@D$0M@@std@@QAEAADI@Z 10007b40 f i c_chams.obj
 0001:00006b40       ??A?$array@D$0DD@@std@@QAEAADI@Z 10007b40 f i c_cs_player_.obj
 0001:00006b40       ??A?$array@D$0N@@std@@QAEAADI@Z 10007b40 f i c_prediction_system.obj
 0001:00006b40       ??A?$array@D$0DB@@std@@QAEAADI@Z 10007b40 f i sounds.obj
 0001:00006b40       ??A?$array@D$0BH@@std@@QAEAADI@Z 10007b40 f i c_chams.obj
 0001:00006b40       ??A?$array@D$0DC@@std@@QAEAADI@Z 10007b40 f i c_antiaim.obj
 0001:00006b40       ??A?$array@D$0BK@@std@@QAEAADI@Z 10007b40 f i c_animation_system.obj
 0001:00006b40       ??A?$array@D$0CC@@std@@QAEAADI@Z 10007b40 f i c_chams.obj
 0001:00006b40       ??A?$array@D$0ID@@std@@QAEAADI@Z 10007b40 f i c_events.obj
 0001:00006b60       ??A?$array@VFloatingText@@$0DC@@std@@QAEAAVFloatingText@@I@Z 10007b60 f i c_damage_esp.obj
 0001:00006b80       ??A?$basic_string@DU?$char_traits@D@std@@V?$allocator@D@2@@std@@QAEAADI@Z 10007b80 f i c_damage_esp.obj
 0001:00006b80       ??A?$basic_string@DU?$char_traits@D@std@@V?$allocator@D@2@@std@@QBEABDI@Z 10007b80 f i c_esp.obj
 0001:00006bb0       ??Amatrix3x4@@QBEPBMH@Z    10007bb0 f i c_aimhelper.obj
 0001:00006bb0       ??Amatrix3x4@@QAEPAMH@Z    10007bb0 f i c_aimhelper.obj
 0001:00006bb0       ??Aviewmatrix@@QAEPAMH@Z   10007bb0 f i c_damage_esp.obj
 0001:00006bd0       ??Gc_vector2d@@QBE?AV0@ABV0@@Z 10007bd0 f i c_damage_esp.obj
 0001:00006c20       ??R<lambda_1>@?1??append@?$basic_string@DU?$char_traits@D@std@@V?$allocator@D@2@@std@@QAEAAV23@ID@Z@QBEXQADQBDIID@Z 10007c20 f i c_damage_esp.obj
 0001:00006c80       ??R<lambda_1>@?1??assign@?$basic_string@DU?$char_traits@D@std@@V?$allocator@D@2@@std@@QAEAAV23@QBDI@Z@QBEXQADI0@Z 10007c80 f i c_damage_esp.obj
 0001:00006cc0       ??R?$default_delete@Vc_renderer@@@std@@QBEXPAVc_renderer@@@Z 10007cc0 f i c_damage_esp.obj
 0001:00006d00       ??_G?$function@$$A6AXXZ@std@@QAEPAXI@Z 10007d00 f i c_damage_esp.obj
 0001:00006d00       ??_G?$function@$$A6AXI@Z@std@@QAEPAXI@Z 10007d00 f i c_fake_ping.obj
 0001:00006d30       ??_G?$pair@$$CBIVc_font@@@std@@QAEPAXI@Z 10007d30 f i c_damage_esp.obj
 0001:00006d60       ??_Gc_renderer@@QAEPAXI@Z  10007d60 f i c_damage_esp.obj
 0001:00006d90       ?_Destroy@?$vector@Uhitmarker_info@@V?$allocator@Uhitmarker_info@@@std@@@std@@AAEXPAUhitmarker_info@@0@Z 10007d90 f i c_hitmarker.obj
 0001:00006d90       ?_Destroy@?$vector@HV?$allocator@H@std@@@std@@AAEXPAH0@Z 10007d90 f i c_aimhelper.obj
 0001:00006d90       ?_Destroy@?$vector@V?$tuple@MMM@std@@V?$allocator@V?$tuple@MMM@std@@@2@@std@@AAEXPAV?$tuple@MMM@2@0@Z 10007d90 f i c_aimhelper.obj
 0001:00006d90       ?_Destroy@?$vector@V?$_List_unchecked_iterator@V?$_List_val@U?$_List_simple_types@U?$pair@QAVc_hotkey_select@@V?$function@$$A6AXI@Z@std@@@std@@@std@@@std@@@std@@V?$allocator@V?$_List_unchecked_iterator@V?$_List_val@U?$_List_simple_types@U?$pair@QAVc_hotkey_select@@V?$function@$$A6AXI@Z@std@@@std@@@std@@@std@@@std@@@2@@std@@AAEXPAV?$_List_unchecked_iterator@V?$_List_val@U?$_List_simple_types@U?$pair@QAVc_hotkey_select@@V?$function@$$A6AXI@Z@std@@@std@@@std@@@std@@@2@0@Z 10007d90 f i c_fake_ping.obj
 0001:00006d90       ?_Destroy@?$vector@Uaim_info@c_aimhelper@@V?$allocator@Uaim_info@c_aimhelper@@@std@@@std@@AAEXPAUaim_info@c_aimhelper@@0@Z 10007d90 f i c_aimhelper.obj
 0001:00006d90       ?_Destroy@?$vector@Uimpact_info@@V?$allocator@Uimpact_info@@@std@@@std@@AAEXPAUimpact_info@@0@Z 10007d90 f i c_hitmarker.obj
 0001:00006d90       ?_Destroy@?$vector@W4hitbox@c_cs_player@@V?$allocator@W4hitbox@c_cs_player@@@std@@@std@@AAEXPAW4hitbox@c_cs_player@@0@Z 10007d90 f i c_ragebot.obj
 0001:00006d90       ?_Destroy@?$vector@PAUanimation@c_animation_system@@V?$allocator@PAUanimation@c_animation_system@@@std@@@std@@AAEXPAPAUanimation@c_animation_system@@0@Z 10007d90 f i c_aimhelper.obj
 0001:00006d90       ?_Destroy@?$vector@V?$_List_unchecked_iterator@V?$_List_val@U?$_List_simple_types@U?$pair@$$CBIV?$unordered_map@IUnetvar@c_netvar@@U?$hash@I@std@@U?$equal_to@I@4@V?$allocator@U?$pair@$$CBIUnetvar@c_netvar@@@std@@@4@@std@@@std@@@std@@@std@@@std@@V?$allocator@V?$_List_unchecked_iterator@V?$_List_val@U?$_List_simple_types@U?$pair@$$CBIV?$unordered_map@IUnetvar@c_netvar@@U?$hash@I@std@@U?$equal_to@I@4@V?$allocator@U?$pair@$$CBIUnetvar@c_netvar@@@std@@@4@@std@@@std@@@std@@@std@@@std@@@2@@std@@AAEXPAV?$_List_unchecked_iterator@V?$_List_val@U?$_List_simple_types@U?$pair@$$CBIV?$unordered_map@IUnetvar@c_netvar@@U?$hash@I@std@@U?$equal_to@I@4@V?$allocator@U?$pair@$$CBIUnetvar@c_netvar@@@std@@@4@@std@@@std@@@std@@@std@@@2@0@Z 10007d90 f i dllmain.obj
 0001:00006d90       ?_Destroy@?$vector@V?$_List_unchecked_iterator@V?$_List_val@U?$_List_simple_types@U?$pair@$$CBIUanimation_info@c_animation_system@@@std@@@std@@@std@@@std@@V?$allocator@V?$_List_unchecked_iterator@V?$_List_val@U?$_List_simple_types@U?$pair@$$CBIUanimation_info@c_animation_system@@@std@@@std@@@std@@@std@@@2@@std@@AAEXPAV?$_List_unchecked_iterator@V?$_List_val@U?$_List_simple_types@U?$pair@$$CBIUanimation_info@c_animation_system@@@std@@@std@@@std@@@2@0@Z 10007d90 f i c_aimhelper.obj
 0001:00006d90       ?_Destroy@?$vector@MV?$allocator@M@std@@@std@@AAEXPAM0@Z 10007d90 f i c_font.obj
 0001:00006d90       ?_Destroy@?$vector@V?$_List_unchecked_iterator@V?$_List_val@U?$_List_simple_types@U?$pair@$$CBIUnetvar@c_netvar@@@std@@@std@@@std@@@std@@V?$allocator@V?$_List_unchecked_iterator@V?$_List_val@U?$_List_simple_types@U?$pair@$$CBIUnetvar@c_netvar@@@std@@@std@@@std@@@std@@@2@@std@@AAEXPAV?$_List_unchecked_iterator@V?$_List_val@U?$_List_simple_types@U?$pair@$$CBIUnetvar@c_netvar@@@std@@@std@@@std@@@2@0@Z 10007d90 f i dllmain.obj
 0001:00006d90       ?_Destroy@?$vector@U?$pair@PAVc_cs_player@@M@std@@V?$allocator@U?$pair@PAVc_cs_player@@M@std@@@2@@std@@AAEXPAU?$pair@PAVc_cs_player@@M@2@0@Z 10007d90 f i c_chams.obj
 0001:00006d90       ?_Destroy@?$vector@Uplayer_info@c_esp@@V?$allocator@Uplayer_info@c_esp@@@std@@@std@@AAEXPAUplayer_info@c_esp@@0@Z 10007d90 f i c_damage_esp.obj
 0001:00006d90       ?_Destroy@?$vector@Unade_info@c_esp@@V?$allocator@Unade_info@c_esp@@@std@@@std@@AAEXPAUnade_info@c_esp@@0@Z 10007d90 f i c_damage_esp.obj
 0001:00006d90       ?_Destroy@?$vector@V?$_List_unchecked_iterator@V?$_List_val@U?$_List_simple_types@U?$pair@$$CBIU?$pair@HH@std@@@std@@@std@@@std@@@std@@V?$allocator@V?$_List_unchecked_iterator@V?$_List_val@U?$_List_simple_types@U?$pair@$$CBIU?$pair@HH@std@@@std@@@std@@@std@@@std@@@2@@std@@AAEXPAV?$_List_unchecked_iterator@V?$_List_val@U?$_List_simple_types@U?$pair@$$CBIU?$pair@HH@std@@@std@@@std@@@std@@@2@0@Z 10007d90 f i c_esp.obj
 0001:00006d90       ?_Destroy@?$vector@DV?$allocator@D@std@@@std@@AAEXPAD0@Z 10007d90 f i c_miscellaneous.obj
 0001:00006d90       ?_Destroy@?$vector@Vc_vector3d@@V?$allocator@Vc_vector3d@@@std@@@std@@AAEXPAVc_vector3d@@0@Z 10007d90 f i c_damage_esp.obj
 0001:00006d90       ?_Destroy@?$vector@EV?$allocator@E@std@@@std@@AAEXPAE0@Z 10007d90 f i c_miscellaneous.obj
 0001:00006d90       ?_Destroy@?$vector@V?$_List_unchecked_iterator@V?$_List_val@U?$_List_simple_types@U?$pair@$$CBIVc_font@@@std@@@std@@@std@@@std@@V?$allocator@V?$_List_unchecked_iterator@V?$_List_val@U?$_List_simple_types@U?$pair@$$CBIVc_font@@@std@@@std@@@std@@@std@@@2@@std@@AAEXPAV?$_List_unchecked_iterator@V?$_List_val@U?$_List_simple_types@U?$pair@$$CBIVc_font@@@std@@@std@@@std@@@2@0@Z 10007d90 f i c_damage_esp.obj
 0001:00006d90       ?_Destroy@?$vector@Vc_vector2d@@V?$allocator@Vc_vector2d@@@std@@@std@@AAEXPAVc_vector2d@@0@Z 10007d90 f i c_damage_esp.obj
 0001:00006dc0       ?_Destroy@?$vector@V?$function@$$A6AXI@Z@std@@V?$allocator@V?$function@$$A6AXI@Z@std@@@2@@std@@AAEXPAV?$function@$$A6AXI@Z@2@0@Z 10007dc0 f i c_fake_ping.obj
 0001:00006dc0       ?_Destroy@?$vector@V?$function@$$A6AXXZ@std@@V?$allocator@V?$function@$$A6AXXZ@std@@@2@@std@@AAEXPAV?$function@$$A6AXXZ@2@0@Z 10007dc0 f i c_damage_esp.obj
 0001:00006df0       ?_Empty@?$_Func_class@XI@std@@IBE_NXZ 10007df0 f i c_fake_ping.obj
 0001:00006df0       ?_Empty@?$_Func_class@XPAVc_cs_player@@@std@@IBE_NXZ 10007df0 f i c_aimhelper.obj
 0001:00006df0       ?_Empty@?$_Func_class@X$$V@std@@IBE_NXZ 10007df0 f i c_damage_esp.obj
 0001:00006df0       ?_Empty@?$_Func_class@XPAVc_client_entity@@@std@@IBE_NXZ 10007df0 f i c_esp.obj
 0001:00006df0       ?_Empty@?$_Func_class@_NHW4parse_event_t@?$parser@V?$basic_json@Vmap@std@@Vvector@2@V?$basic_string@DU?$char_traits@D@std@@V?$allocator@D@2@@2@_N_J_KNVallocator@2@Uadl_serializer@nlohmann@@@nlohmann@@@detail@nlohmann@@AAV?$basic_json@Vmap@std@@Vvector@2@V?$basic_string@DU?$char_traits@D@std@@V?$allocator@D@2@@2@_N_J_KNVallocator@2@Uadl_serializer@nlohmann@@@4@@std@@IBE_NXZ 10007df0 f i c_conf.obj
 0001:00006e20       ?_Eos@?$basic_string@DU?$char_traits@D@std@@V?$allocator@D@2@@std@@AAEXI@Z 10007e20 f i c_damage_esp.obj
 0001:00006e70       ?_Getimpl@?$_Func_class@_NHW4parse_event_t@?$parser@V?$basic_json@Vmap@std@@Vvector@2@V?$basic_string@DU?$char_traits@D@std@@V?$allocator@D@2@@2@_N_J_KNVallocator@2@Uadl_serializer@nlohmann@@@nlohmann@@@detail@nlohmann@@AAV?$basic_json@Vmap@std@@Vvector@2@V?$basic_string@DU?$char_traits@D@std@@V?$allocator@D@2@@2@_N_J_KNVallocator@2@Uadl_serializer@nlohmann@@@4@@std@@ABEPAV?$_Func_base@_NHW4parse_event_t@?$parser@V?$basic_json@Vmap@std@@Vvector@2@V?$basic_string@DU?$char_traits@D@std@@V?$allocator@D@2@@2@_N_J_KNVallocator@2@Uadl_serializer@nlohmann@@@nlohmann@@@detail@nlohmann@@AAV?$basic_json@Vmap@std@@Vvector@2@V?$basic_string@DU?$char_traits@D@std@@V?$allocator@D@2@@2@_N_J_KNVallocator@2@Uadl_serializer@nlohmann@@@4@@2@XZ 10007e70 f i c_conf.obj
 0001:00006e70       ?_Getimpl@?$_Func_class@XPAVc_cs_player@@@std@@ABEPAV?$_Func_base@XPAVc_cs_player@@@2@XZ 10007e70 f i c_aimhelper.obj
 0001:00006e70       ?_Getimpl@?$_Func_class@XPAVc_client_entity@@@std@@ABEPAV?$_Func_base@XPAVc_client_entity@@@2@XZ 10007e70 f i c_esp.obj
 0001:00006e70       ?_Getimpl@?$_Func_class@XI@std@@ABEPAV?$_Func_base@XI@2@XZ 10007e70 f i c_fake_ping.obj
 0001:00006e70       ?_Getimpl@?$_Func_class@X$$V@std@@ABEPAV?$_Func_base@X$$V@2@XZ 10007e70 f i c_damage_esp.obj
 0001:00006e90       ?_Local@?$_Func_class@_NHW4parse_event_t@?$parser@V?$basic_json@Vmap@std@@Vvector@2@V?$basic_string@DU?$char_traits@D@std@@V?$allocator@D@2@@2@_N_J_KNVallocator@2@Uadl_serializer@nlohmann@@@nlohmann@@@detail@nlohmann@@AAV?$basic_json@Vmap@std@@Vvector@2@V?$basic_string@DU?$char_traits@D@std@@V?$allocator@D@2@@2@_N_J_KNVallocator@2@Uadl_serializer@nlohmann@@@4@@std@@ABE_NXZ 10007e90 f i c_conf.obj
 0001:00006e90       ?_Local@?$_Func_class@XPAVc_client_entity@@@std@@ABE_NXZ 10007e90 f i c_esp.obj
 0001:00006e90       ?_Local@?$_Func_class@XI@std@@ABE_NXZ 10007e90 f i c_fake_ping.obj
 0001:00006e90       ?_Local@?$_Func_class@X$$V@std@@ABE_NXZ 10007e90 f i c_damage_esp.obj
 0001:00006e90       ?_Local@?$_Func_class@XPAVc_cs_player@@@std@@ABE_NXZ 10007e90 f i c_aimhelper.obj
 0001:00006ed0       ?_Mark@?$_String_bitmap@D$00@std@@QAE_NPBDQBD@Z 10007ed0 f i c_damage_esp.obj
 0001:00006f10       ?_Match@?$_String_bitmap@D$00@std@@QBE_ND@Z 10007f10 f i c_damage_esp.obj
 0001:00006f30       ?_Seek_to@?$_String_const_iterator@V?$_String_val@U?$_Simple_types@D@std@@@std@@@std@@QAEXPBD@Z 10007f30 f i c_damage_esp.obj
 0001:00006f50       ?_Set@?$_Func_class@_NHW4parse_event_t@?$parser@V?$basic_json@Vmap@std@@Vvector@2@V?$basic_string@DU?$char_traits@D@std@@V?$allocator@D@2@@2@_N_J_KNVallocator@2@Uadl_serializer@nlohmann@@@nlohmann@@@detail@nlohmann@@AAV?$basic_json@Vmap@std@@Vvector@2@V?$basic_string@DU?$char_traits@D@std@@V?$allocator@D@2@@2@_N_J_KNVallocator@2@Uadl_serializer@nlohmann@@@4@@std@@AAEXPAV?$_Func_base@_NHW4parse_event_t@?$parser@V?$basic_json@Vmap@std@@Vvector@2@V?$basic_string@DU?$char_traits@D@std@@V?$allocator@D@2@@2@_N_J_KNVallocator@2@Uadl_serializer@nlohmann@@@nlohmann@@@detail@nlohmann@@AAV?$basic_json@Vmap@std@@Vvector@2@V?$basic_string@DU?$char_traits@D@std@@V?$allocator@D@2@@2@_N_J_KNVallocator@2@Uadl_serializer@nlohmann@@@4@@2@@Z 10007f50 f i c_conf.obj
 0001:00006f50       ?_Set@?$_Func_class@XPAVc_client_entity@@@std@@AAEXPAV?$_Func_base@XPAVc_client_entity@@@2@@Z 10007f50 f i c_esp.obj
 0001:00006f50       ?_Set@?$_Func_class@XI@std@@AAEXPAV?$_Func_base@XI@2@@Z 10007f50 f i c_fake_ping.obj
 0001:00006f50       ?_Set@?$_Func_class@XPAVc_cs_player@@@std@@AAEXPAV?$_Func_base@XPAVc_cs_player@@@2@@Z 10007f50 f i c_aimhelper.obj
 0001:00006f50       ?_Set@?$_Func_class@X$$V@std@@AAEXPAV?$_Func_base@X$$V@2@@Z 10007f50 f i c_damage_esp.obj
 0001:00006f70       ?_Take_contents@?$basic_string@DU?$char_traits@D@std@@V?$allocator@D@2@@std@@QAEXAAV12@U?$integral_constant@_N$00@2@@Z 10007f70 f i c_damage_esp.obj
 0001:00006fe0       ?_Tidy@?$_Func_class@XI@std@@IAEXXZ 10007fe0 f i c_fake_ping.obj
 0001:00006fe0       ?_Tidy@?$_Func_class@XPAVc_cs_player@@@std@@IAEXXZ 10007fe0 f i c_aimhelper.obj
 0001:00006fe0       ?_Tidy@?$_Func_class@XPAVc_client_entity@@@std@@IAEXXZ 10007fe0 f i c_esp.obj
 0001:00006fe0       ?_Tidy@?$_Func_class@X$$V@std@@IAEXXZ 10007fe0 f i c_damage_esp.obj
 0001:00006fe0       ?_Tidy@?$_Func_class@_NHW4parse_event_t@?$parser@V?$basic_json@Vmap@std@@Vvector@2@V?$basic_string@DU?$char_traits@D@std@@V?$allocator@D@2@@2@_N_J_KNVallocator@2@Uadl_serializer@nlohmann@@@nlohmann@@@detail@nlohmann@@AAV?$basic_json@Vmap@std@@Vvector@2@V?$basic_string@DU?$char_traits@D@std@@V?$allocator@D@2@@2@_N_J_KNVallocator@2@Uadl_serializer@nlohmann@@@4@@std@@IAEXXZ 10007fe0 f i c_conf.obj
 0001:00007040       ?_Tidy@?$list@U?$pair@$$CBIVc_font@@@std@@V?$allocator@U?$pair@$$CBIVc_font@@@std@@@2@@std@@AAEXXZ 10008040 f i c_damage_esp.obj
 0001:00007090       ?_Tidy@?$vector@Uimpact_info@@V?$allocator@Uimpact_info@@@std@@@std@@AAEXXZ 10008090 f i c_hitmarker.obj
 0001:00007090       ?_Tidy@?$vector@Unade_info@c_esp@@V?$allocator@Unade_info@c_esp@@@std@@@std@@AAEXXZ 10008090 f i c_damage_esp.obj
 0001:00007160       ?_Tidy@?$vector@Uplayer_info@c_esp@@V?$allocator@Uplayer_info@c_esp@@@std@@@std@@AAEXXZ 10008160 f i c_damage_esp.obj
 0001:00007230       ?_Tidy@?$vector@V?$_List_unchecked_iterator@V?$_List_val@U?$_List_simple_types@U?$pair@$$CBIU?$pair@HH@std@@@std@@@std@@@std@@@std@@V?$allocator@V?$_List_unchecked_iterator@V?$_List_val@U?$_List_simple_types@U?$pair@$$CBIU?$pair@HH@std@@@std@@@std@@@std@@@std@@@2@@std@@AAEXXZ 10008230 f i c_esp.obj
 0001:00007230       ?_Tidy@?$vector@V?$_List_unchecked_iterator@V?$_List_val@U?$_List_simple_types@U?$pair@$$CBIVc_font@@@std@@@std@@@std@@@std@@V?$allocator@V?$_List_unchecked_iterator@V?$_List_val@U?$_List_simple_types@U?$pair@$$CBIVc_font@@@std@@@std@@@std@@@std@@@2@@std@@AAEXXZ 10008230 f i c_damage_esp.obj
 0001:00007230       ?_Tidy@?$vector@V?$_List_unchecked_iterator@V?$_List_val@U?$_List_simple_types@U?$pair@QAVc_hotkey_select@@V?$function@$$A6AXI@Z@std@@@std@@@std@@@std@@@std@@V?$allocator@V?$_List_unchecked_iterator@V?$_List_val@U?$_List_simple_types@U?$pair@QAVc_hotkey_select@@V?$function@$$A6AXI@Z@std@@@std@@@std@@@std@@@std@@@2@@std@@AAEXXZ 10008230 f i c_fake_ping.obj
 0001:00007230       ?_Tidy@?$vector@MV?$allocator@M@std@@@std@@AAEXXZ 10008230 f i c_font.obj
 0001:00007230       ?_Tidy@?$vector@PAUanimation@c_animation_system@@V?$allocator@PAUanimation@c_animation_system@@@std@@@std@@AAEXXZ 10008230 f i c_aimhelper.obj
 0001:00007230       ?_Tidy@?$vector@V?$_List_unchecked_iterator@V?$_List_val@U?$_List_simple_types@U?$pair@$$CBIUnetvar@c_netvar@@@std@@@std@@@std@@@std@@V?$allocator@V?$_List_unchecked_iterator@V?$_List_val@U?$_List_simple_types@U?$pair@$$CBIUnetvar@c_netvar@@@std@@@std@@@std@@@std@@@2@@std@@AAEXXZ 10008230 f i dllmain.obj
 0001:00007230       ?_Tidy@?$vector@HV?$allocator@H@std@@@std@@AAEXXZ 10008230 f i c_aimhelper.obj
 0001:00007230       ?_Tidy@?$vector@V?$_List_unchecked_iterator@V?$_List_val@U?$_List_simple_types@U?$pair@$$CBIV?$unordered_map@IUnetvar@c_netvar@@U?$hash@I@std@@U?$equal_to@I@4@V?$allocator@U?$pair@$$CBIUnetvar@c_netvar@@@std@@@4@@std@@@std@@@std@@@std@@@std@@V?$allocator@V?$_List_unchecked_iterator@V?$_List_val@U?$_List_simple_types@U?$pair@$$CBIV?$unordered_map@IUnetvar@c_netvar@@U?$hash@I@std@@U?$equal_to@I@4@V?$allocator@U?$pair@$$CBIUnetvar@c_netvar@@@std@@@4@@std@@@std@@@std@@@std@@@std@@@2@@std@@AAEXXZ 10008230 f i dllmain.obj
 0001:00007230       ?_Tidy@?$vector@W4hitbox@c_cs_player@@V?$allocator@W4hitbox@c_cs_player@@@std@@@std@@AAEXXZ 10008230 f i c_ragebot.obj
 0001:00007230       ?_Tidy@?$vector@V?$_List_unchecked_iterator@V?$_List_val@U?$_List_simple_types@U?$pair@$$CBIUanimation_info@c_animation_system@@@std@@@std@@@std@@@std@@V?$allocator@V?$_List_unchecked_iterator@V?$_List_val@U?$_List_simple_types@U?$pair@$$CBIUanimation_info@c_animation_system@@@std@@@std@@@std@@@std@@@2@@std@@AAEXXZ 10008230 f i c_aimhelper.obj
 0001:00007300       ?_Tidy@?$vector@V?$function@$$A6AXXZ@std@@V?$allocator@V?$function@$$A6AXXZ@std@@@2@@std@@AAEXXZ 10008300 f i c_damage_esp.obj
 0001:00007300       ?_Tidy@?$vector@V?$function@$$A6AXI@Z@std@@V?$allocator@V?$function@$$A6AXI@Z@std@@@2@@std@@AAEXXZ 10008300 f i c_fake_ping.obj
 0001:000073d0       ?_Tidy@?$vector@U?$pair@PAVc_cs_player@@M@std@@V?$allocator@U?$pair@PAVc_cs_player@@M@std@@@2@@std@@AAEXXZ 100083d0 f i c_chams.obj
 0001:000073d0       ?_Tidy@?$vector@Vc_vector2d@@V?$allocator@Vc_vector2d@@@std@@@std@@AAEXXZ 100083d0 f i c_damage_esp.obj
 0001:000074a0       ?_Tidy@?$vector@Vc_vector3d@@V?$allocator@Vc_vector3d@@@std@@@std@@AAEXXZ 100084a0 f i c_damage_esp.obj
 0001:000074a0       ?_Tidy@?$vector@V?$tuple@MMM@std@@V?$allocator@V?$tuple@MMM@std@@@2@@std@@AAEXXZ 100084a0 f i c_aimhelper.obj
 0001:00007570       ?_Unwrapped@?$_String_iterator@V?$_String_val@U?$_Simple_types@D@std@@@std@@@std@@QBEPADXZ 10008570 f i c_damage_esp.obj
 0001:00007590       ?accent@c_color@@SA?AV1@XZ 10008590 f i c_damage_esp.obj
 0001:000075d0       ?append@?$basic_string@DU?$char_traits@D@std@@V?$allocator@D@2@@std@@QAEAAV12@ID@Z 100085d0 f i c_damage_esp.obj
 0001:00007670       ?assign@?$basic_string@DU?$char_traits@D@std@@V?$allocator@D@2@@std@@QAEAAV12@ABV12@II@Z 10008670 f i c_damage_esp.obj
 0001:000076d0       ?assign@?$basic_string@DU?$char_traits@D@std@@V?$allocator@D@2@@std@@QAEAAV12@QBD@Z 100086d0 f i c_damage_esp.obj
 0001:00007700       ?assign@?$basic_string@DU?$char_traits@D@std@@V?$allocator@D@2@@std@@QAEAAV12@QBDI@Z 10008700 f i c_damage_esp.obj
 0001:00007790       ?assign@?$char_traits@D@std@@SAPADQADID@Z 10008790 f i c_damage_esp.obj
 0001:00007850       ?deallocate@?$_Default_allocator_traits@V?$allocator@U?$_List_node@U?$pair@$$CBIVc_font@@@std@@PAX@std@@@std@@@std@@SAXAAV?$allocator@U?$_List_node@U?$pair@$$CBIVc_font@@@std@@PAX@std@@@2@QAU?$_List_node@U?$pair@$$CBIVc_font@@@std@@PAX@2@I@Z 10008850 f i c_damage_esp.obj
 0001:00007870       ?deallocate@?$allocator@Uimpact_info@@@std@@QAEXQAUimpact_info@@I@Z 10008870 f i c_hitmarker.obj
 0001:00007870       ?deallocate@?$allocator@Unade_info@c_esp@@@std@@QAEXQAUnade_info@c_esp@@I@Z 10008870 f i c_damage_esp.obj
 0001:00007870       ?deallocate@?$allocator@V?$basic_json@Vmap@std@@Vvector@2@V?$basic_string@DU?$char_traits@D@std@@V?$allocator@D@2@@2@_N_J_KNVallocator@2@Uadl_serializer@nlohmann@@@nlohmann@@@std@@QAEXQAV?$basic_json@Vmap@std@@Vvector@2@V?$basic_string@DU?$char_traits@D@std@@V?$allocator@D@2@@2@_N_J_KNVallocator@2@Uadl_serializer@nlohmann@@@nlohmann@@I@Z 10008870 f i c_conf.obj
 0001:00007890       ?deallocate@?$allocator@Uplayer_info@c_esp@@@std@@QAEXQAUplayer_info@c_esp@@I@Z 10008890 f i c_damage_esp.obj
 0001:000078c0       ?deallocate@?$allocator@W4hitbox@c_cs_player@@@std@@QAEXQAW4hitbox@c_cs_player@@I@Z 100088c0 f i c_ragebot.obj
 0001:000078c0       ?deallocate@?$allocator@V?$_List_unchecked_iterator@V?$_List_val@U?$_List_simple_types@U?$pair@$$CBIU?$pair@HH@std@@@std@@@std@@@std@@@std@@@std@@QAEXQAV?$_List_unchecked_iterator@V?$_List_val@U?$_List_simple_types@U?$pair@$$CBIU?$pair@HH@std@@@std@@@std@@@std@@@2@I@Z 100088c0 f i c_esp.obj
 0001:000078c0       ?deallocate@?$allocator@V?$_List_unchecked_iterator@V?$_List_val@U?$_List_simple_types@U?$pair@$$CBIVc_font@@@std@@@std@@@std@@@std@@@std@@QAEXQAV?$_List_unchecked_iterator@V?$_List_val@U?$_List_simple_types@U?$pair@$$CBIVc_font@@@std@@@std@@@std@@@2@I@Z 100088c0 f i c_damage_esp.obj
 0001:000078c0       ?deallocate@?$allocator@M@std@@QAEXQAMI@Z 100088c0 f i c_font.obj
 0001:000078c0       ?deallocate@?$allocator@V?$_List_unchecked_iterator@V?$_List_val@U?$_List_simple_types@U?$pair@QAVc_hotkey_select@@V?$function@$$A6AXI@Z@std@@@std@@@std@@@std@@@std@@@std@@QAEXQAV?$_List_unchecked_iterator@V?$_List_val@U?$_List_simple_types@U?$pair@QAVc_hotkey_select@@V?$function@$$A6AXI@Z@std@@@std@@@std@@@std@@@2@I@Z 100088c0 f i c_fake_ping.obj
 0001:000078c0       ?deallocate@?$allocator@H@std@@QAEXQAHI@Z 100088c0 f i c_aimhelper.obj
 0001:000078c0       ?deallocate@?$allocator@PAUshot@resolver@@@std@@QAEXQAPAUshot@resolver@@I@Z 100088c0 f i c_animation_system.obj
 0001:000078c0       ?deallocate@?$allocator@PAUanimation@c_animation_system@@@std@@QAEXQAPAUanimation@c_animation_system@@I@Z 100088c0 f i c_aimhelper.obj
 0001:000078c0       ?deallocate@?$allocator@V?$_List_unchecked_iterator@V?$_List_val@U?$_List_simple_types@U?$pair@$$CBIUanimation_info@c_animation_system@@@std@@@std@@@std@@@std@@@std@@QAEXQAV?$_List_unchecked_iterator@V?$_List_val@U?$_List_simple_types@U?$pair@$$CBIUanimation_info@c_animation_system@@@std@@@std@@@std@@@2@I@Z 100088c0 f i c_aimhelper.obj
 0001:000078c0       ?deallocate@?$allocator@PAUc_incoming_sequence@@@std@@QAEXQAPAUc_incoming_sequence@@I@Z 100088c0 f i c_fake_ping.obj
 0001:000078c0       ?deallocate@?$allocator@V?$_List_unchecked_iterator@V?$_List_val@U?$_List_simple_types@U?$pair@$$CBIV?$unordered_map@IUnetvar@c_netvar@@U?$hash@I@std@@U?$equal_to@I@4@V?$allocator@U?$pair@$$CBIUnetvar@c_netvar@@@std@@@4@@std@@@std@@@std@@@std@@@std@@@std@@QAEXQAV?$_List_unchecked_iterator@V?$_List_val@U?$_List_simple_types@U?$pair@$$CBIV?$unordered_map@IUnetvar@c_netvar@@U?$hash@I@std@@U?$equal_to@I@4@V?$allocator@U?$pair@$$CBIUnetvar@c_netvar@@@std@@@4@@std@@@std@@@std@@@std@@@2@I@Z 100088c0 f i dllmain.obj
 0001:000078c0       ?deallocate@?$allocator@V?$_List_unchecked_iterator@V?$_List_val@U?$_List_simple_types@U?$pair@$$CBIUnetvar@c_netvar@@@std@@@std@@@std@@@std@@@std@@QAEXQAV?$_List_unchecked_iterator@V?$_List_val@U?$_List_simple_types@U?$pair@$$CBIUnetvar@c_netvar@@@std@@@std@@@std@@@2@I@Z 100088c0 f i dllmain.obj
 0001:000078e0       ?deallocate@?$allocator@V?$function@$$A6AXI@Z@std@@@std@@QAEXQAV?$function@$$A6AXI@Z@2@I@Z 100088e0 f i c_fake_ping.obj
 0001:000078e0       ?deallocate@?$allocator@V?$function@$$A6AXXZ@std@@@std@@QAEXQAV?$function@$$A6AXXZ@2@I@Z 100088e0 f i c_damage_esp.obj
 0001:00007900       ?deallocate@?$allocator@U?$pair@PAVc_cs_player@@M@std@@@std@@QAEXQAU?$pair@PAVc_cs_player@@M@2@I@Z 10008900 f i c_chams.obj
 0001:00007900       ?deallocate@?$allocator@Vc_vector2d@@@std@@QAEXQAVc_vector2d@@I@Z 10008900 f i c_damage_esp.obj
 0001:00007920       ?deallocate@?$allocator@V?$vector@MV?$allocator@M@std@@@std@@@std@@QAEXQAV?$vector@MV?$allocator@M@std@@@2@I@Z 10008920 f i c_font.obj
 0001:00007920       ?deallocate@?$allocator@Vc_vector3d@@@std@@QAEXQAVc_vector3d@@I@Z 10008920 f i c_damage_esp.obj
 0001:00007920       ?deallocate@?$allocator@V?$tuple@MMM@std@@@std@@QAEXQAV?$tuple@MMM@2@I@Z 10008920 f i c_aimhelper.obj
 0001:00007940       ?dec@?$xorstr@$01$0DK@@@QAE?AV?$basic_string@DU?$char_traits@D@std@@V?$allocator@D@2@@std@@XZ 10008940 f i c_damage_esp.obj
 0001:00007a20       ?dec@?$xorstr@$01$0DL@@@QAE?AV?$basic_string@DU?$char_traits@D@std@@V?$allocator@D@2@@std@@XZ 10008a20 f i c_damage_esp.obj
 0001:00007b00       ?dec@?$xorstr@$01$0EK@@@QAE?AV?$basic_string@DU?$char_traits@D@std@@V?$allocator@D@2@@std@@XZ 10008b00 f i c_damage_esp.obj
 0001:00007be0       ?dec@?$xorstr@$05$0GI@@@QAE?AV?$basic_string@DU?$char_traits@D@std@@V?$allocator@D@2@@std@@XZ 10008be0 f i c_damage_esp.obj
 0001:00007cc0       ?dec@?$xorstr@$06$0CF@@@QAE?AV?$basic_string@DU?$char_traits@D@std@@V?$allocator@D@2@@std@@XZ 10008cc0 f i c_damage_esp.obj
 0001:00007da0       ?dec@?$xorstr@$06$0HK@@@QAE?AV?$basic_string@DU?$char_traits@D@std@@V?$allocator@D@2@@std@@XZ 10008da0 f i c_damage_esp.obj
 0001:00007e80       ?dec@?$xorstr@$08$0BC@@@QAE?AV?$basic_string@DU?$char_traits@D@std@@V?$allocator@D@2@@std@@XZ 10008e80 f i c_damage_esp.obj
 0001:00007f60       ?dec@?$xorstr@$08$0CP@@@QAE?AV?$basic_string@DU?$char_traits@D@std@@V?$allocator@D@2@@std@@XZ 10008f60 f i c_damage_esp.obj
 0001:00008040       ?dec@?$xorstr@$0L@$0EE@@@QAE?AV?$basic_string@DU?$char_traits@D@std@@V?$allocator@D@2@@std@@XZ 10009040 f i c_damage_esp.obj
 0001:00008120       ?dec@?$xorstr@$0L@$0GA@@@QAE?AV?$basic_string@DU?$char_traits@D@std@@V?$allocator@D@2@@std@@XZ 10009120 f i c_damage_esp.obj
 0001:00008200       ?dec@?$xorstr@$0L@$0GI@@@QAE?AV?$basic_string@DU?$char_traits@D@std@@V?$allocator@D@2@@std@@XZ 10009200 f i c_damage_esp.obj
 0001:000082e0       ?draw_damage@c_damage_esp@@QAEXXZ 100092e0 f   c_damage_esp.obj
 0001:00008790       ?enc@?$xorstr@$01$0DK@@@CADD@Z 10009790 f i c_damage_esp.obj
 0001:00008790       ?enc@?$xorstr@$0CD@$0DK@@@CADD@Z 10009790 f i c_antiaim.obj
 0001:00008790       ?enc@?$xorstr@$03$0DK@@@CADD@Z 10009790 f i c_conf.obj
 0001:00008790       ?enc@?$xorstr@$0L@$0DK@@@CADD@Z 10009790 f i c_conf.obj
 0001:00008790       ?enc@?$xorstr@$02$0DK@@@CADD@Z 10009790 f i c_resolver.obj
 0001:00008790       ?enc@?$xorstr@$0BH@$0DK@@@CADD@Z 10009790 f i c_chams.obj
 0001:000087a0       ?enc@?$xorstr@$01$0DL@@@CADD@Z 100097a0 f i c_damage_esp.obj
 0001:000087a0       ?enc@?$xorstr@$0BI@$0DL@@@CADD@Z 100097a0 f i c_chams.obj
 0001:000087b0       ?enc@?$xorstr@$0BC@$0EK@@@CADD@Z 100097b0 f i c_chams.obj
 0001:000087b0       ?enc@?$xorstr@$01$0EK@@@CADD@Z 100097b0 f i c_damage_esp.obj
 0001:000087b0       ?enc@?$xorstr@$03$0EK@@@CADD@Z 100097b0 f i c_visuals.obj
 0001:000087c0       ?enc@?$xorstr@$03$0GI@@@CADD@Z 100097c0 f i c_resolver.obj
 0001:000087c0       ?enc@?$xorstr@$05$0GI@@@CADD@Z 100097c0 f i c_damage_esp.obj
 0001:000087c0       ?enc@?$xorstr@$0L@$0GI@@@CADD@Z 100097c0 f i c_damage_esp.obj
 0001:000087c0       ?enc@?$xorstr@$0BN@$0GI@@@CADD@Z 100097c0 f i c_aimhelper.obj
 0001:000087c0       ?enc@?$xorstr@$0DA@$0GI@@@CADD@Z 100097c0 f i c_miscellaneous.obj
 0001:000087c0       ?enc@?$xorstr@$07$0GI@@@CADD@Z 100097c0 f i c_aiming.obj
 0001:000087c0       ?enc@?$xorstr@$04$0GI@@@CADD@Z 100097c0 f i c_conf.obj
 0001:000087d0       ?enc@?$xorstr@$0DA@$0CF@@@CADD@Z 100097d0 f i c_chams.obj
 0001:000087d0       ?enc@?$xorstr@$0O@$0CF@@@CADD@Z 100097d0 f i sounds.obj
 0001:000087d0       ?enc@?$xorstr@$03$0CF@@@CADD@Z 100097d0 f i c_resolver.obj
 0001:000087d0       ?enc@?$xorstr@$06$0CF@@@CADD@Z 100097d0 f i c_damage_esp.obj
 0001:000087d0       ?enc@?$xorstr@$0BJ@$0CF@@@CADD@Z 100097d0 f i c_animation_system.obj
 0001:000087d0       ?enc@?$xorstr@$04$0CF@@@CADD@Z 100097d0 f i c_model_render_.obj
 0001:000087d0       ?enc@?$xorstr@$0BD@$0CF@@@CADD@Z 100097d0 f i c_visuals.obj
 0001:000087d0       ?enc@?$xorstr@$08$0CF@@@CADD@Z 100097d0 f i c_conf.obj
 0001:000087e0       ?enc@?$xorstr@$03$0HK@@@CADD@Z 100097e0 f i c_resolver.obj
 0001:000087e0       ?enc@?$xorstr@$09$0HK@@@CADD@Z 100097e0 f i c_visuals.obj
 0001:000087e0       ?enc@?$xorstr@$06$0HK@@@CADD@Z 100097e0 f i c_damage_esp.obj
 0001:000087e0       ?enc@?$xorstr@$08$0HK@@@CADD@Z 100097e0 f i c_visuals.obj
 0001:000087e0       ?enc@?$xorstr@$0BJ@$0HK@@@CADD@Z 100097e0 f i c_chams.obj
 0001:000087e0       ?enc@?$xorstr@$0O@$0HK@@@CADD@Z 100097e0 f i c_conf.obj
 0001:000087e0       ?enc@?$xorstr@$0BG@$0HK@@@CADD@Z 100097e0 f i c_miscellaneous.obj
 0001:000087e0       ?enc@?$xorstr@$0BE@$0HK@@@CADD@Z 100097e0 f i c_legitbot.obj
 0001:000087f0       ?enc@?$xorstr@$08$0BC@@@CADD@Z 100097f0 f i c_damage_esp.obj
 0001:000087f0       ?enc@?$xorstr@$03$0BC@@@CADD@Z 100097f0 f i c_resolver.obj
 0001:000087f0       ?enc@?$xorstr@$09$0BC@@@CADD@Z 100097f0 f i sounds.obj
 0001:000087f0       ?enc@?$xorstr@$0DM@$0BC@@@CADD@Z 100097f0 f i sounds.obj
 0001:000087f0       ?enc@?$xorstr@$02$0BC@@@CADD@Z 100097f0 f i c_resolver.obj
 0001:000087f0       ?enc@?$xorstr@$0CC@$0BC@@@CADD@Z 100097f0 f i c_chams.obj
 0001:00008800       ?enc@?$xorstr@$0N@$0CP@@@CADD@Z 10009800 f i c_misc.obj
 0001:00008800       ?enc@?$xorstr@$04$0CP@@@CADD@Z 10009800 f i c_conf.obj
 0001:00008800       ?enc@?$xorstr@$0P@$0CP@@@CADD@Z 10009800 f i c_antiaim.obj
 0001:00008800       ?enc@?$xorstr@$0M@$0CP@@@CADD@Z 10009800 f i c_chams.obj
 0001:00008800       ?enc@?$xorstr@$02$0CP@@@CADD@Z 10009800 f i c_resolver.obj
 0001:00008800       ?enc@?$xorstr@$08$0CP@@@CADD@Z 10009800 f i c_damage_esp.obj
 0001:00008800       ?enc@?$xorstr@$05$0CP@@@CADD@Z 10009800 f i c_aiming.obj
 0001:00008810       ?enc@?$xorstr@$0L@$0EE@@@CADD@Z 10009810 f i c_damage_esp.obj
 0001:00008810       ?enc@?$xorstr@$0CD@$0EE@@@CADD@Z 10009810 f i c_cl_camera_height_restriction_debug.obj
 0001:00008810       ?enc@?$xorstr@$0BC@$0EE@@@CADD@Z 10009810 f i c_chams.obj
 0001:00008810       ?enc@?$xorstr@$04$0EE@@@CADD@Z 10009810 f i c_conf.obj
 0001:00008810       ?enc@?$xorstr@$0IF@$0EE@@@CADD@Z 10009810 f i c_events.obj
 0001:00008810       ?enc@?$xorstr@$03$0EE@@@CADD@Z 10009810 f i c_visuals.obj
 0001:00008820       ?enc@?$xorstr@$09$0GA@@@CADD@Z 10009820 f i c_visuals.obj
 0001:00008820       ?enc@?$xorstr@$0L@$0GA@@@CADD@Z 10009820 f i c_damage_esp.obj
 0001:00008820       ?enc@?$xorstr@$0N@$0GA@@@CADD@Z 10009820 f i c_conf.obj
 0001:00008820       ?enc@?$xorstr@$04$0GA@@@CADD@Z 10009820 f i c_conf.obj
 0001:00008830       ?end@?$basic_string@DU?$char_traits@D@std@@V?$allocator@D@2@@std@@QAE?AV?$_String_iterator@V?$_String_val@U?$_Simple_types@D@std@@@std@@@2@XZ 10009830 f i c_damage_esp.obj
 0001:00008950       ?find@?$char_traits@D@std@@SAPBDQBDIABD@Z 10009950 f i c_damage_esp.obj
 0001:00008980       ?find_first_not_of@?$basic_string@DU?$char_traits@D@std@@V?$allocator@D@2@@std@@QBEIQBDI@Z 10009980 f i c_damage_esp.obj
 0001:00008a20       ?find_first_of@?$basic_string@DU?$char_traits@D@std@@V?$allocator@D@2@@std@@QBEIQBDI@Z 10009a20 f i c_damage_esp.obj
 0001:00008ac0       ?fnv1a_rt@@YAIPBD@Z        10009ac0 f i c_damage_esp.obj
 0001:00008b80       ?get@c_config@@QAEAAUconfig_conf@1@XZ 10009b80 f i c_damage_esp.obj
 0001:00009080       ?key_comp@?$_Tree@V?$_Tmap_traits@V?$basic_string@DU?$char_traits@D@std@@V?$allocator@D@2@@std@@V?$basic_json@Vmap@std@@Vvector@2@V?$basic_string@DU?$char_traits@D@std@@V?$allocator@D@2@@2@_N_J_KNVallocator@2@Uadl_serializer@nlohmann@@@nlohmann@@U?$less@X@2@V?$allocator@U?$pair@$$CBV?$basic_string@DU?$char_traits@D@std@@V?$allocator@D@2@@std@@V?$basic_json@Vmap@std@@Vvector@2@V?$basic_string@DU?$char_traits@D@std@@V?$allocator@D@2@@2@_N_J_KNVallocator@2@Uadl_serializer@nlohmann@@@nlohmann@@@std@@@2@$0A@@std@@@std@@QBE?AU?$less@X@2@XZ 1000a080 f i c_conf.obj
 0001:00009080       ?get_allocator@?$basic_string@DU?$char_traits@D@std@@V?$allocator@D@2@@std@@QBE?AV?$allocator@D@2@XZ 1000a080 f i c_damage_esp.obj
 0001:000091a0       ?get_module_handle@memory@@YAIII@Z 1000a1a0 f i c_damage_esp.obj
 0001:00009350       ?get_latency@c_net_channel@@QAEMH@Z 1000a350 f i c_animation_system.obj
 0001:00009350       ?get_player_for_user_id@c_engine_client@@QAEHH@Z 1000a350 f i c_damage_esp.obj
 0001:00009380       ?get_proc_address@memory@@YAIII_N@Z 1000a380 f i c_damage_esp.obj
 0001:000094e0       ?gradient2@c_color@@SA?AV1@XZ 1000a4e0 f i c_damage_esp.obj
 0001:00009520       ?is_alive@c_base_entity@@QAE_NXZ 1000a520 f i c_damage_esp.obj
 0001:00009550       ?length@?$char_traits@D@std@@SAIQBD@Z 1000a550 f i c_damage_esp.obj
 0001:00009590       ?on_bullet_impact@c_damage_esp@@QAEXPAVc_game_event@@@Z 1000a590 f   c_damage_esp.obj
 0001:00009910       ?on_player_hurt@c_damage_esp@@QAEXPAVc_game_event@@@Z 1000a910 f   c_damage_esp.obj
 0001:00009dd0       ?primary@c_color@@SA?AV1@XZ 1000add0 f i c_damage_esp.obj
 0001:00009e10       ?random_float@math@@SAMMM@Z 1000ae10 f i c_damage_esp.obj
 0001:00009ee0       ?resize@?$basic_string@DU?$char_traits@D@std@@V?$allocator@D@2@@std@@QAEXID@Z 1000aee0 f i c_damage_esp.obj
 0001:00009f30       ?rva_2_offset@memory@@YAHIPAU_IMAGE_NT_HEADERS@@_N@Z 1000af30 f i c_damage_esp.obj
 0001:00009fc0       ?scale@c_renderer@@QBEXAAVc_vector2d@@@Z 1000afc0 f i c_damage_esp.obj
 0001:0000a070       ?screen_transform@c_renderer@@QBE_NABVc_vector3d@@AAVc_vector2d@@AAUviewmatrix@@@Z 1000b070 f i c_damage_esp.obj
 0001:0000a2f0       ?substr@?$basic_string@DU?$char_traits@D@std@@V?$allocator@D@2@@std@@QBE?AV12@II@Z 1000b2f0 f i c_damage_esp.obj
 0001:0000a340       ___local_stdio_printf_options 1000b340 f i c_damage_esp.obj
 0001:0000a350       __vsprintf_s_l             1000b350 f i c_damage_esp.obj
 0001:0000a3a0       _sprintf_s                 1000b3a0 f i c_damage_esp.obj
 0001:0000a3e0       _wmemcpy                   1000b3e0 f i c_damage_esp.obj
 0001:0000a400       ??$_Destroy_range@V?$allocator@U?$pair@V?$shared_ptr@Vc_drawable@@@std@@U?$pair@Vc_vector2d@@V1@@2@@std@@@std@@@std@@YAXPAU?$pair@V?$shared_ptr@Vc_drawable@@@std@@U?$pair@Vc_vector2d@@V1@@2@@0@0AAV?$allocator@U?$pair@V?$shared_ptr@Vc_drawable@@@std@@U?$pair@Vc_vector2d@@V1@@2@@std@@@0@@Z 1000b400 f i dllmain.obj
 0001:0000a460       ??$_Free_non_head@V?$allocator@U?$_List_node@U?$pair@$$CBIU?$pair@HH@std@@@std@@PAX@std@@@std@@@?$_List_node@U?$pair@$$CBIU?$pair@HH@std@@@std@@PAX@std@@SAXAAV?$allocator@U?$_List_node@U?$pair@$$CBIU?$pair@HH@std@@@std@@PAX@std@@@1@PAU01@@Z 1000b460 f i c_esp.obj
 0001:0000a460       ??$_Free_non_head@V?$allocator@U?$_List_node@U?$pair@$$CBIUnetvar@c_netvar@@@std@@PAX@std@@@std@@@?$_List_node@U?$pair@$$CBIUnetvar@c_netvar@@@std@@PAX@std@@SAXAAV?$allocator@U?$_List_node@U?$pair@$$CBIUnetvar@c_netvar@@@std@@PAX@std@@@1@PAU01@@Z 1000b460 f i dllmain.obj
 0001:0000a4b0       ??$_Free_non_head@V?$allocator@U?$_List_node@U?$pair@$$CBIV?$unordered_map@IUnetvar@c_netvar@@U?$hash@I@std@@U?$equal_to@I@4@V?$allocator@U?$pair@$$CBIUnetvar@c_netvar@@@std@@@4@@std@@@std@@PAX@std@@@std@@@?$_List_node@U?$pair@$$CBIV?$unordered_map@IUnetvar@c_netvar@@U?$hash@I@std@@U?$equal_to@I@4@V?$allocator@U?$pair@$$CBIUnetvar@c_netvar@@@std@@@4@@std@@@std@@PAX@std@@SAXAAV?$allocator@U?$_List_node@U?$pair@$$CBIV?$unordered_map@IUnetvar@c_netvar@@U?$hash@I@std@@U?$equal_to@I@4@V?$allocator@U?$pair@$$CBIUnetvar@c_netvar@@@std@@@4@@std@@@std@@PAX@std@@@1@PAU01@@Z 1000b4b0 f i dllmain.obj
 0001:0000a500       ??$_Freenode0@V?$allocator@U?$_List_node@U?$pair@$$CBIUnetvar@c_netvar@@@std@@PAX@std@@@std@@@?$_List_node@U?$pair@$$CBIUnetvar@c_netvar@@@std@@PAX@std@@SAXAAV?$allocator@U?$_List_node@U?$pair@$$CBIUnetvar@c_netvar@@@std@@PAX@std@@@1@PAU01@@Z 1000b500 f i dllmain.obj
 0001:0000a500       ??$_Freenode0@V?$allocator@U?$_List_node@U?$pair@$$CBIU?$pair@HH@std@@@std@@PAX@std@@@std@@@?$_List_node@U?$pair@$$CBIU?$pair@HH@std@@@std@@PAX@std@@SAXAAV?$allocator@U?$_List_node@U?$pair@$$CBIU?$pair@HH@std@@@std@@PAX@std@@@1@PAU01@@Z 1000b500 f i c_esp.obj
 0001:0000a580       ??$_Freenode0@V?$allocator@U?$_List_node@U?$pair@$$CBIV?$unordered_map@IUnetvar@c_netvar@@U?$hash@I@std@@U?$equal_to@I@4@V?$allocator@U?$pair@$$CBIUnetvar@c_netvar@@@std@@@4@@std@@@std@@PAX@std@@@std@@@?$_List_node@U?$pair@$$CBIV?$unordered_map@IUnetvar@c_netvar@@U?$hash@I@std@@U?$equal_to@I@4@V?$allocator@U?$pair@$$CBIUnetvar@c_netvar@@@std@@@4@@std@@@std@@PAX@std@@SAXAAV?$allocator@U?$_List_node@U?$pair@$$CBIV?$unordered_map@IUnetvar@c_netvar@@U?$hash@I@std@@U?$equal_to@I@4@V?$allocator@U?$pair@$$CBIUnetvar@c_netvar@@@std@@@4@@std@@@std@@PAX@std@@@1@PAU01@@Z 1000b580 f i dllmain.obj
 0001:0000a600       ??$_Freenode@V?$allocator@U?$_List_node@U?$pair@$$CBIU?$pair@HH@std@@@std@@PAX@std@@@std@@@?$_List_node@U?$pair@$$CBIU?$pair@HH@std@@@std@@PAX@std@@SAXAAV?$allocator@U?$_List_node@U?$pair@$$CBIU?$pair@HH@std@@@std@@PAX@std@@@1@PAU01@@Z 1000b600 f i c_esp.obj
 0001:0000a600       ??$_Freenode@V?$allocator@U?$_List_node@U?$pair@$$CBIUnetvar@c_netvar@@@std@@PAX@std@@@std@@@?$_List_node@U?$pair@$$CBIUnetvar@c_netvar@@@std@@PAX@std@@SAXAAV?$allocator@U?$_List_node@U?$pair@$$CBIUnetvar@c_netvar@@@std@@PAX@std@@@1@PAU01@@Z 1000b600 f i dllmain.obj
 0001:0000a660       ??$_Freenode@V?$allocator@U?$_List_node@U?$pair@$$CBIV?$unordered_map@IUnetvar@c_netvar@@U?$hash@I@std@@U?$equal_to@I@4@V?$allocator@U?$pair@$$CBIUnetvar@c_netvar@@@std@@@4@@std@@@std@@PAX@std@@@std@@@?$_List_node@U?$pair@$$CBIV?$unordered_map@IUnetvar@c_netvar@@U?$hash@I@std@@U?$equal_to@I@4@V?$allocator@U?$pair@$$CBIUnetvar@c_netvar@@@std@@@4@@std@@@std@@PAX@std@@SAXAAV?$allocator@U?$_List_node@U?$pair@$$CBIV?$unordered_map@IUnetvar@c_netvar@@U?$hash@I@std@@U?$equal_to@I@4@V?$allocator@U?$pair@$$CBIUnetvar@c_netvar@@@std@@@4@@std@@@std@@PAX@std@@@1@PAU01@@Z 1000b660 f i dllmain.obj
 0001:0000a6c0       ??$destroy@U?$pair@$$CBIV?$unordered_map@IUnetvar@c_netvar@@U?$hash@I@std@@U?$equal_to@I@4@V?$allocator@U?$pair@$$CBIUnetvar@c_netvar@@@std@@@4@@std@@@std@@@?$_Default_allocator_traits@V?$allocator@U?$_List_node@U?$pair@$$CBIV?$unordered_map@IUnetvar@c_netvar@@U?$hash@I@std@@U?$equal_to@I@4@V?$allocator@U?$pair@$$CBIUnetvar@c_netvar@@@std@@@4@@std@@@std@@PAX@std@@@std@@@std@@SAXAAV?$allocator@U?$_List_node@U?$pair@$$CBIV?$unordered_map@IUnetvar@c_netvar@@U?$hash@I@std@@U?$equal_to@I@4@V?$allocator@U?$pair@$$CBIUnetvar@c_netvar@@@std@@@4@@std@@@std@@PAX@std@@@1@QAU?$pair@$$CBIV?$unordered_map@IUnetvar@c_netvar@@U?$hash@I@std@@U?$equal_to@I@4@V?$allocator@U?$pair@$$CBIUnetvar@c_netvar@@@std@@@4@@std@@@1@@Z 1000b6c0 f i dllmain.obj
 0001:0000a6d0       ??$destroy@U?$pair@V?$shared_ptr@Vc_drawable@@@std@@U?$pair@Vc_vector2d@@V1@@2@@std@@@?$_Default_allocator_traits@V?$allocator@U?$pair@V?$shared_ptr@Vc_drawable@@@std@@U?$pair@Vc_vector2d@@V1@@2@@std@@@std@@@std@@SAXAAV?$allocator@U?$pair@V?$shared_ptr@Vc_drawable@@@std@@U?$pair@Vc_vector2d@@V1@@2@@std@@@1@QAU?$pair@V?$shared_ptr@Vc_drawable@@@std@@U?$pair@Vc_vector2d@@V1@@2@@1@@Z 1000b6d0 f i dllmain.obj
 0001:0000a6e0       ??$instance@$$V@?$c_singleton@Vc_menu@@@@SAPAVc_menu@@XZ 1000b6e0 f i dllmain.obj
 0001:0000a780       ??$instance@$$V@?$c_singleton@Vc_netvar@@@@SAPAVc_netvar@@XZ 1000b780 f i dllmain.obj
 0001:0000a820       ??$instance@$$V@?$c_singleton@Vc_rifk@@@@SAPAVc_rifk@@XZ 1000b820 f i dllmain.obj
 0001:0000a8b0       ??0c_rifk@@QAE@XZ          1000b8b0 f   dllmain.obj
 0001:0000a8d0       ??1?$_Hash@V?$_Umap_traits@IUnetvar@c_netvar@@V?$_Uhash_compare@IU?$hash@I@std@@U?$equal_to@I@2@@std@@V?$allocator@U?$pair@$$CBIUnetvar@c_netvar@@@std@@@4@$0A@@std@@@std@@QAE@XZ 1000b8d0 f i dllmain.obj
 0001:0000a8d0       ??1?$_Hash@V?$_Umap_traits@IU?$pair@HH@std@@V?$_Uhash_compare@IU?$hash@I@std@@U?$equal_to@I@2@@2@V?$allocator@U?$pair@$$CBIU?$pair@HH@std@@@std@@@2@$0A@@std@@@std@@QAE@XZ 1000b8d0 f i c_esp.obj
 0001:0000a900       ??1?$_Hash@V?$_Umap_traits@IV?$unordered_map@IUnetvar@c_netvar@@U?$hash@I@std@@U?$equal_to@I@4@V?$allocator@U?$pair@$$CBIUnetvar@c_netvar@@@std@@@4@@std@@V?$_Uhash_compare@IU?$hash@I@std@@U?$equal_to@I@2@@2@V?$allocator@U?$pair@$$CBIV?$unordered_map@IUnetvar@c_netvar@@U?$hash@I@std@@U?$equal_to@I@4@V?$allocator@U?$pair@$$CBIUnetvar@c_netvar@@@std@@@4@@std@@@std@@@2@$0A@@std@@@std@@QAE@XZ 1000b900 f i dllmain.obj
 0001:0000a930       ??1?$list@U?$pair@$$CBIU?$pair@HH@std@@@std@@V?$allocator@U?$pair@$$CBIU?$pair@HH@std@@@std@@@2@@std@@QAE@XZ 1000b930 f i c_esp.obj
 0001:0000a930       ??1?$list@U?$pair@$$CBIUnetvar@c_netvar@@@std@@V?$allocator@U?$pair@$$CBIUnetvar@c_netvar@@@std@@@2@@std@@QAE@XZ 1000b930 f i dllmain.obj
 0001:0000a950       ??1?$list@U?$pair@$$CBIV?$unordered_map@IUnetvar@c_netvar@@U?$hash@I@std@@U?$equal_to@I@4@V?$allocator@U?$pair@$$CBIUnetvar@c_netvar@@@std@@@4@@std@@@std@@V?$allocator@U?$pair@$$CBIV?$unordered_map@IUnetvar@c_netvar@@U?$hash@I@std@@U?$equal_to@I@4@V?$allocator@U?$pair@$$CBIUnetvar@c_netvar@@@std@@@4@@std@@@std@@@2@@std@@QAE@XZ 1000b950 f i dllmain.obj
 0001:0000a970       ??1?$pair@$$CBIV?$unordered_map@IUnetvar@c_netvar@@U?$hash@I@std@@U?$equal_to@I@4@V?$allocator@U?$pair@$$CBIUnetvar@c_netvar@@@std@@@4@@std@@@std@@QAE@XZ 1000b970 f i dllmain.obj
 0001:0000a990       ??1?$pair@V?$shared_ptr@Vc_drawable@@@std@@U?$pair@Vc_vector2d@@V1@@2@@std@@QAE@XZ 1000b990 f i dllmain.obj
 0001:0000a990       ??1?$output_adapter@DV?$basic_string@DU?$char_traits@D@std@@V?$allocator@D@2@@std@@@detail@nlohmann@@QAE@XZ 1000b990 f i c_conf.obj
 0001:0000a990       ??1input_adapter@detail@nlohmann@@QAE@XZ 1000b990 f i c_conf.obj
 0001:0000a9b0       ??1?$shared_ptr@Vc_aiming@@@std@@QAE@XZ 1000b9b0 f i c_menu.obj
 0001:0000a9b0       ??1?$shared_ptr@Vc_router@@@std@@QAE@XZ 1000b9b0 f i c_menu.obj
 0001:0000a9b0       ??1?$shared_ptr@Vc_checkbox@@@std@@QAE@XZ 1000b9b0 f i c_aiming.obj
 0001:0000a9b0       ??1?$shared_ptr@Vc_float_select@@@std@@QAE@XZ 1000b9b0 f i c_aiming.obj
 0001:0000a9b0       ??1?$shared_ptr@Vc_text@@@std@@QAE@XZ 1000b9b0 f i c_checkbox.obj
 0001:0000a9b0       ??1?$shared_ptr@Vc_conf@@@std@@QAE@XZ 1000b9b0 f i c_menu.obj
 0001:0000a9b0       ??1?$shared_ptr@Vc_navbar@@@std@@QAE@XZ 1000b9b0 f i c_menu.obj
 0001:0000a9b0       ??1?$shared_ptr@Vc_group_box@@@std@@QAE@XZ 1000b9b0 f i c_aiming.obj
 0001:0000a9b0       ??1?$shared_ptr@Vc_checkbox_inner@c_checkbox@@@std@@QAE@XZ 1000b9b0 f i c_checkbox.obj
 0001:0000a9b0       ??1?$shared_ptr@Vc_select@@@std@@QAE@XZ 1000b9b0 f i c_misc.obj
 0001:0000a9b0       ??1?$shared_ptr@V?$output_string_adapter@DV?$basic_string@DU?$char_traits@D@std@@V?$allocator@D@2@@std@@@detail@nlohmann@@@std@@QAE@XZ 1000b9b0 f i c_conf.obj
 0001:0000a9b0       ??1?$shared_ptr@Vc_flow_layout@@@std@@QAE@XZ 1000b9b0 f i c_menu.obj
 0001:0000a9b0       ??1?$shared_ptr@Vc_hotkey_select@@@std@@QAE@XZ 1000b9b0 f i c_aiming.obj
 0001:0000a9b0       ??1?$shared_ptr@U?$output_adapter_protocol@D@detail@nlohmann@@@std@@QAE@XZ 1000b9b0 f i c_conf.obj
 0001:0000a9b0       ??1?$shared_ptr@Vc_welcome_message@@@std@@QAE@XZ 1000b9b0 f i c_menu.obj
 0001:0000a9b0       ??1?$shared_ptr@Vc_visuals@@@std@@QAE@XZ 1000b9b0 f i c_menu.obj
 0001:0000a9b0       ??1?$shared_ptr@Vc_image@@@std@@QAE@XZ 1000b9b0 f i c_menu.obj
 0001:0000a9b0       ??1?$shared_ptr@Vc_color_select_preview@c_color_select@@@std@@QAE@XZ 1000b9b0 f i c_color_select.obj
 0001:0000a9b0       ??1?$shared_ptr@Vc_misc@@@std@@QAE@XZ 1000b9b0 f i c_menu.obj
 0001:0000a9b0       ??1?$shared_ptr@Vc_drawable@@@std@@QAE@XZ 1000b9b0 f i dllmain.obj
 0001:0000a9b0       ??1?$shared_ptr@Uinput_adapter_protocol@detail@nlohmann@@@std@@QAE@XZ 1000b9b0 f i c_conf.obj
 0001:0000a9b0       ??1?$shared_ptr@Vc_color_select@@@std@@QAE@XZ 1000b9b0 f i c_visuals.obj
 0001:0000a9b0       ??1?$shared_ptr@Vc_button@@@std@@QAE@XZ 1000b9b0 f i c_conf.obj
 0001:0000a9b0       ??1?$shared_ptr@Vc_navbar_tab@@@std@@QAE@XZ 1000b9b0 f i c_navbar.obj
 0001:0000a9b0       ??1?$shared_ptr@Vinput_buffer_adapter@detail@nlohmann@@@std@@QAE@XZ 1000b9b0 f i c_conf.obj
 0001:0000a9f0       ??1?$unordered_map@IUnetvar@c_netvar@@U?$hash@I@std@@U?$equal_to@I@4@V?$allocator@U?$pair@$$CBIUnetvar@c_netvar@@@std@@@4@@std@@QAE@XZ 1000b9f0 f i dllmain.obj
 0001:0000a9f0       ??1?$unordered_map@IU?$pair@HH@std@@U?$hash@I@2@U?$equal_to@I@2@V?$allocator@U?$pair@$$CBIU?$pair@HH@std@@@std@@@2@@std@@QAE@XZ 1000b9f0 f i c_esp.obj
 0001:0000aa10       ??1?$unordered_map@IV?$unordered_map@IUnetvar@c_netvar@@U?$hash@I@std@@U?$equal_to@I@4@V?$allocator@U?$pair@$$CBIUnetvar@c_netvar@@@std@@@4@@std@@U?$hash@I@2@U?$equal_to@I@2@V?$allocator@U?$pair@$$CBIV?$unordered_map@IUnetvar@c_netvar@@U?$hash@I@std@@U?$equal_to@I@4@V?$allocator@U?$pair@$$CBIUnetvar@c_netvar@@@std@@@4@@std@@@std@@@2@@std@@QAE@XZ 1000ba10 f i dllmain.obj
 0001:0000aa30       ??1?$vector@U?$pair@V?$shared_ptr@Vc_drawable@@@std@@U?$pair@Vc_vector2d@@V1@@2@@std@@V?$allocator@U?$pair@V?$shared_ptr@Vc_drawable@@@std@@U?$pair@Vc_vector2d@@V1@@2@@std@@@2@@std@@QAE@XZ 1000ba30 f i dllmain.obj
 0001:0000aa50       ??1c_drawable@@UAE@XZ      1000ba50 f i dllmain.obj
 0001:0000aa70       ??1c_checkbox_inner@c_checkbox@@UAE@XZ 1000ba70 f i c_checkbox.obj
 0001:0000aa70       ??1c_flow_layout@@UAE@XZ   1000ba70 f i dllmain.obj
 0001:0000aa70       ??1c_color_select_preview@c_color_select@@UAE@XZ 1000ba70 f i c_color_select.obj
 0001:0000aa70       ??1c_image@@UAE@XZ         1000ba70 f i c_image.obj
 0001:0000aa90       ??1c_color_select@@UAE@XZ  1000ba90 f i c_color_select.obj
 0001:0000aa90       ??1c_navbar@@UAE@XZ        1000ba90 f i c_navbar.obj
 0001:0000aa90       ??1c_conf@@UAE@XZ          1000ba90 f i c_conf.obj
 0001:0000aa90       ??1c_visuals@@UAE@XZ       1000ba90 f i c_visuals.obj
 0001:0000aa90       ??1c_misc@@UAE@XZ          1000ba90 f i c_misc.obj
 0001:0000aa90       ??1c_router@@UAE@XZ        1000ba90 f i c_router.obj
 0001:0000aa90       ??1c_group_box@@UAE@XZ     1000ba90 f i c_group_box.obj
 0001:0000aa90       ??1c_checkbox@@UAE@XZ      1000ba90 f i c_checkbox.obj
 0001:0000aa90       ??1c_menu@@UAE@XZ          1000ba90 f i dllmain.obj
 0001:0000aa90       ??1c_aiming@@UAE@XZ        1000ba90 f i c_aiming.obj
 0001:0000aab0       ??1c_netvar@@QAE@XZ        1000bab0 f i dllmain.obj
 0001:0000aad0       ??_G?$pair@$$CBIV?$unordered_map@IUnetvar@c_netvar@@U?$hash@I@std@@U?$equal_to@I@4@V?$allocator@U?$pair@$$CBIUnetvar@c_netvar@@@std@@@4@@std@@@std@@QAEPAXI@Z 1000bad0 f i dllmain.obj
 0001:0000ab00       ??_G?$pair@V?$shared_ptr@Vc_drawable@@@std@@U?$pair@Vc_vector2d@@V1@@2@@std@@QAEPAXI@Z 1000bb00 f i dllmain.obj
 0001:0000ab30       ?_Decref@?$_Ptr_base@Vc_flow_layout@@@std@@IAEXXZ 1000bb30 f i c_menu.obj
 0001:0000ab30       ?_Decref@?$_Ptr_base@Vc_navbar@@@std@@IAEXXZ 1000bb30 f i c_menu.obj
 0001:0000ab30       ?_Decref@?$_Ptr_base@Vc_select@@@std@@IAEXXZ 1000bb30 f i c_misc.obj
 0001:0000ab30       ?_Decref@?$_Ptr_base@Vc_color_select@@@std@@IAEXXZ 1000bb30 f i c_visuals.obj
 0001:0000ab30       ?_Decref@?$_Ptr_base@Vc_image@@@std@@IAEXXZ 1000bb30 f i c_menu.obj
 0001:0000ab30       ?_Decref@?$_Ptr_base@Vc_aiming@@@std@@IAEXXZ 1000bb30 f i c_menu.obj
 0001:0000ab30       ?_Decref@?$_Ptr_base@Vc_checkbox_inner@c_checkbox@@@std@@IAEXXZ 1000bb30 f i c_checkbox.obj
 0001:0000ab30       ?_Decref@?$_Ptr_base@Vc_drawable@@@std@@IAEXXZ 1000bb30 f i dllmain.obj
 0001:0000ab30       ?_Decref@?$_Ptr_base@Vinput_buffer_adapter@detail@nlohmann@@@std@@IAEXXZ 1000bb30 f i c_conf.obj
 0001:0000ab30       ?_Decref@?$_Ptr_base@V?$output_string_adapter@DV?$basic_string@DU?$char_traits@D@std@@V?$allocator@D@2@@std@@@detail@nlohmann@@@std@@IAEXXZ 1000bb30 f i c_conf.obj
 0001:0000ab30       ?_Decref@?$_Ptr_base@Uinput_adapter_protocol@detail@nlohmann@@@std@@IAEXXZ 1000bb30 f i c_conf.obj
 0001:0000ab30       ?_Decref@?$_Ptr_base@Vc_checkbox@@@std@@IAEXXZ 1000bb30 f i c_aiming.obj
 0001:0000ab30       ?_Decref@?$_Ptr_base@Vc_misc@@@std@@IAEXXZ 1000bb30 f i c_menu.obj
 0001:0000ab30       ?_Decref@?$_Ptr_base@Vc_color_select_preview@c_color_select@@@std@@IAEXXZ 1000bb30 f i c_color_select.obj
 0001:0000ab30       ?_Decref@?$_Ptr_base@Vc_float_select@@@std@@IAEXXZ 1000bb30 f i c_aiming.obj
 0001:0000ab30       ?_Decref@?$_Ptr_base@Vc_group_box@@@std@@IAEXXZ 1000bb30 f i c_aiming.obj
 0001:0000ab30       ?_Decref@?$_Ptr_base@Vc_navbar_tab@@@std@@IAEXXZ 1000bb30 f i c_navbar.obj
 0001:0000ab30       ?_Decref@?$_Ptr_base@Vc_visuals@@@std@@IAEXXZ 1000bb30 f i c_menu.obj
 0001:0000ab30       ?_Decref@?$_Ptr_base@Vc_welcome_message@@@std@@IAEXXZ 1000bb30 f i c_menu.obj
 0001:0000ab30       ?_Decref@?$_Ptr_base@Vc_hotkey_select@@@std@@IAEXXZ 1000bb30 f i c_aiming.obj
 0001:0000ab30       ?_Decref@?$_Ptr_base@Vc_router@@@std@@IAEXXZ 1000bb30 f i c_menu.obj
 0001:0000ab30       ?_Decref@?$_Ptr_base@U?$output_adapter_protocol@D@detail@nlohmann@@@std@@IAEXXZ 1000bb30 f i c_conf.obj
 0001:0000ab30       ?_Decref@?$_Ptr_base@Vc_text@@@std@@IAEXXZ 1000bb30 f i c_checkbox.obj
 0001:0000ab30       ?_Decref@?$_Ptr_base@Vc_button@@@std@@IAEXXZ 1000bb30 f i c_conf.obj
 0001:0000ab30       ?_Decref@?$_Ptr_base@Vc_conf@@@std@@IAEXXZ 1000bb30 f i c_menu.obj
 0001:0000ab50       ?_Decref@_Ref_count_base@std@@QAEXXZ 1000bb50 f i dllmain.obj
 0001:0000ab80       ?_Decwref@_Ref_count_base@std@@QAEXXZ 1000bb80 f i dllmain.obj
 0001:0000abb0       ?_Destroy@?$vector@U?$pair@V?$shared_ptr@Vc_drawable@@@std@@U?$pair@Vc_vector2d@@V1@@2@@std@@V?$allocator@U?$pair@V?$shared_ptr@Vc_drawable@@@std@@U?$pair@Vc_vector2d@@V1@@2@@std@@@2@@std@@AAEXPAU?$pair@V?$shared_ptr@Vc_drawable@@@std@@U?$pair@Vc_vector2d@@V1@@2@@2@0@Z 1000bbb0 f i dllmain.obj
 0001:0000abe0       ?_Tidy@?$list@U?$pair@$$CBIU?$pair@HH@std@@@std@@V?$allocator@U?$pair@$$CBIU?$pair@HH@std@@@std@@@2@@std@@AAEXXZ 1000bbe0 f i c_esp.obj
 0001:0000abe0       ?_Tidy@?$list@U?$pair@$$CBIUnetvar@c_netvar@@@std@@V?$allocator@U?$pair@$$CBIUnetvar@c_netvar@@@std@@@2@@std@@AAEXXZ 1000bbe0 f i dllmain.obj
 0001:0000ac30       ?_Tidy@?$list@U?$pair@$$CBIV?$unordered_map@IUnetvar@c_netvar@@U?$hash@I@std@@U?$equal_to@I@4@V?$allocator@U?$pair@$$CBIUnetvar@c_netvar@@@std@@@4@@std@@@std@@V?$allocator@U?$pair@$$CBIV?$unordered_map@IUnetvar@c_netvar@@U?$hash@I@std@@U?$equal_to@I@4@V?$allocator@U?$pair@$$CBIUnetvar@c_netvar@@@std@@@4@@std@@@std@@@2@@std@@AAEXXZ 1000bc30 f i dllmain.obj
 0001:0000ac80       ?_Tidy@?$vector@U?$pair@V?$shared_ptr@Vc_drawable@@@std@@U?$pair@Vc_vector2d@@V1@@2@@std@@V?$allocator@U?$pair@V?$shared_ptr@Vc_drawable@@@std@@U?$pair@Vc_vector2d@@V1@@2@@std@@@2@@std@@AAEXXZ 1000bc80 f i dllmain.obj
 0001:0000ad50       ?__zx@@YAXXZ               1000bd50 f   dllmain.obj
 0001:0000ad60       ?deallocate@?$_Default_allocator_traits@V?$allocator@U?$_List_node@U?$pair@$$CBIUnetvar@c_netvar@@@std@@PAX@std@@@std@@@std@@SAXAAV?$allocator@U?$_List_node@U?$pair@$$CBIUnetvar@c_netvar@@@std@@PAX@std@@@2@QAU?$_List_node@U?$pair@$$CBIUnetvar@c_netvar@@@std@@PAX@2@I@Z 1000bd60 f i dllmain.obj
 0001:0000ad60       ?deallocate@?$_Default_allocator_traits@V?$allocator@U?$_List_node@U?$pair@$$CBIU?$pair@HH@std@@@std@@PAX@std@@@std@@@std@@SAXAAV?$allocator@U?$_List_node@U?$pair@$$CBIU?$pair@HH@std@@@std@@PAX@std@@@2@QAU?$_List_node@U?$pair@$$CBIU?$pair@HH@std@@@std@@PAX@2@I@Z 1000bd60 f i c_esp.obj
 0001:0000ad80       ?deallocate@?$_Default_allocator_traits@V?$allocator@U?$_List_node@U?$pair@$$CBIV?$unordered_map@IUnetvar@c_netvar@@U?$hash@I@std@@U?$equal_to@I@4@V?$allocator@U?$pair@$$CBIUnetvar@c_netvar@@@std@@@4@@std@@@std@@PAX@std@@@std@@@std@@SAXAAV?$allocator@U?$_List_node@U?$pair@$$CBIV?$unordered_map@IUnetvar@c_netvar@@U?$hash@I@std@@U?$equal_to@I@4@V?$allocator@U?$pair@$$CBIUnetvar@c_netvar@@@std@@@4@@std@@@std@@PAX@std@@@2@QAU?$_List_node@U?$pair@$$CBIV?$unordered_map@IUnetvar@c_netvar@@U?$hash@I@std@@U?$equal_to@I@4@V?$allocator@U?$pair@$$CBIUnetvar@c_netvar@@@std@@@4@@std@@@std@@PAX@2@I@Z 1000bd80 f i dllmain.obj
 0001:0000ada0       ?deallocate@?$allocator@U?$_Tree_node@U?$pair@$$CBHH@std@@PAX@std@@@std@@QAEXQAU?$_Tree_node@U?$pair@$$CBHH@std@@PAX@2@I@Z 1000bda0 f i c_prediction_.obj
 0001:0000ada0       ?deallocate@?$allocator@V?$basic_string@DU?$char_traits@D@std@@V?$allocator@D@2@@std@@@std@@QAEXQAV?$basic_string@DU?$char_traits@D@std@@V?$allocator@D@2@@2@I@Z 1000bda0 f i c_miscellaneous.obj
 0001:0000ada0       ?deallocate@?$allocator@U?$pair@V?$shared_ptr@Vc_drawable@@@std@@U?$pair@Vc_vector2d@@V1@@2@@std@@@std@@QAEXQAU?$pair@V?$shared_ptr@Vc_drawable@@@std@@U?$pair@Vc_vector2d@@V1@@2@@2@I@Z 1000bda0 f i dllmain.obj
 0001:0000adc0       _DllMain@12                1000bdc0 f   dllmain.obj
 0001:0000adf0       ??$?0$$QAI$$Z$$V@?$pair@$$CBIUnetvar@c_netvar@@@std@@QAE@Upiecewise_construct_t@1@V?$tuple@$$QAI@1@V?$tuple@$$V@1@@Z 1000bdf0 f i c_aimhelper.obj
 0001:0000ae20       ??$?0$$QAI$$Z$$V@?$pair@$$CBIV?$unordered_map@IUnetvar@c_netvar@@U?$hash@I@std@@U?$equal_to@I@4@V?$allocator@U?$pair@$$CBIUnetvar@c_netvar@@@std@@@4@@std@@@std@@QAE@Upiecewise_construct_t@1@V?$tuple@$$QAI@1@V?$tuple@$$V@1@@Z 1000be20 f i c_aimhelper.obj
 0001:0000ae50       ??$?0ABM@?$_Tuple_val@M@std@@QAE@ABM@Z 1000be50 f i c_aimhelper.obj
 0001:0000ae50       ??$?0M@?$_Tuple_val@M@std@@QAE@$$QAM@Z 1000be50 f i c_aimhelper.obj
 0001:0000ae50       ??$?0AAM@?$_Tuple_val@M@std@@QAE@AAM@Z 1000be50 f i c_aimhelper.obj
 0001:0000ae50       ??$?0AAPAUanimation@c_animation_system@@@?$_Tuple_val@PAUanimation@c_animation_system@@@std@@QAE@AAPAUanimation@c_animation_system@@@Z 1000be50 f i c_aimhelper.obj
 0001:0000ae50       ??$?0$$T@?$_Tuple_val@PAUanimation@c_animation_system@@@std@@QAE@$$QA$$T@Z 1000be50 f i c_aimhelper.obj
 0001:0000ae50       ??$?0ABQAUanimation@c_animation_system@@@?$_Tuple_val@PAUanimation@c_animation_system@@@std@@QAE@ABQAUanimation@c_animation_system@@@Z 1000be50 f i c_aimhelper.obj
 0001:0000ae80       ??$?0$0A@$00$01$02$03$04$05$06$07$08$09$0L@$0M@$0N@$0O@$0P@$0BA@$0BB@$0BC@$0BD@$0BE@$0BF@$0BG@$0BH@$0BI@$0BJ@$0BK@$0BL@$0BM@@?$xorstr@$0BN@$0GI@@@QAE@PBDU?$integer_sequence@I$0A@$00$01$02$03$04$05$06$07$08$09$0L@$0M@$0N@$0O@$0P@$0BA@$0BB@$0BC@$0BD@$0BE@$0BF@$0BG@$0BH@$0BI@$0BJ@$0BK@$0BL@$0BM@@std@@@Z 1000be80 f i c_aimhelper.obj
 0001:0000b200       ??$?0PAU?$_Tree_node@U?$pair@$$CBHH@std@@PAX@std@@_N$0A@@?$pair@PAU?$_Tree_node@U?$pair@$$CBHH@std@@PAX@std@@_N@std@@QAE@$$QAPAU?$_Tree_node@U?$pair@$$CBHH@std@@PAX@1@$$QA_N@Z 1000c200 f i c_prediction_.obj
 0001:0000b200       ??$?0AAPAU?$_List_node@U?$pair@$$CBIU?$pair@HH@std@@@std@@PAX@std@@_N$0A@@?$pair@PAU?$_List_node@U?$pair@$$CBIU?$pair@HH@std@@@std@@PAX@std@@_N@std@@QAE@AAPAU?$_List_node@U?$pair@$$CBIU?$pair@HH@std@@@std@@PAX@1@$$QA_N@Z 1000c200 f i c_esp.obj
 0001:0000b200       ??$?0AAPAU?$_Tree_node@U?$pair@$$CBHH@std@@PAX@std@@_N$0A@@?$pair@PAU?$_Tree_node@U?$pair@$$CBHH@std@@PAX@std@@_N@std@@QAE@AAPAU?$_Tree_node@U?$pair@$$CBHH@std@@PAX@1@$$QA_N@Z 1000c200 f i c_prediction_.obj
 0001:0000b200       ??$?0AAPAU?$_Tree_node@U?$pair@$$CBV?$basic_string@DU?$char_traits@D@std@@V?$allocator@D@2@@std@@V?$basic_json@Vmap@std@@Vvector@2@V?$basic_string@DU?$char_traits@D@std@@V?$allocator@D@2@@2@_N_J_KNVallocator@2@Uadl_serializer@nlohmann@@@nlohmann@@@std@@PAX@std@@_N$0A@@?$pair@PAU?$_Tree_node@U?$pair@$$CBV?$basic_string@DU?$char_traits@D@std@@V?$allocator@D@2@@std@@V?$basic_json@Vmap@std@@Vvector@2@V?$basic_string@DU?$char_traits@D@std@@V?$allocator@D@2@@2@_N_J_KNVallocator@2@Uadl_serializer@nlohmann@@@nlohmann@@@std@@PAX@std@@_N@std@@QAE@AAPAU?$_Tree_node@U?$pair@$$CBV?$basic_string@DU?$char_traits@D@std@@V?$allocator@D@2@@std@@V?$basic_json@Vmap@std@@Vvector@2@V?$basic_string@DU?$char_traits@D@std@@V?$allocator@D@2@@2@_N_J_KNVallocator@2@Uadl_serializer@nlohmann@@@nlohmann@@@std@@PAX@1@$$QA_N@Z 1000c200 f i c_conf.obj
 0001:0000b200       ??$?0ABQAU?$_List_node@U?$pair@QAVc_hotkey_select@@V?$function@$$A6AXI@Z@std@@@std@@PAX@std@@_N$0A@@?$pair@PAU?$_List_node@U?$pair@QAVc_hotkey_select@@V?$function@$$A6AXI@Z@std@@@std@@PAX@std@@_N@std@@QAE@ABQAU?$_List_node@U?$pair@QAVc_hotkey_select@@V?$function@$$A6AXI@Z@std@@@std@@PAX@1@$$QA_N@Z 1000c200 f i c_hotkeys.obj
 0001:0000b200       ??$?0ABQAU?$_List_node@U?$pair@$$CBIV?$unordered_map@IUnetvar@c_netvar@@U?$hash@I@std@@U?$equal_to@I@4@V?$allocator@U?$pair@$$CBIUnetvar@c_netvar@@@std@@@4@@std@@@std@@PAX@std@@_N$0A@@?$pair@PAU?$_List_node@U?$pair@$$CBIV?$unordered_map@IUnetvar@c_netvar@@U?$hash@I@std@@U?$equal_to@I@4@V?$allocator@U?$pair@$$CBIUnetvar@c_netvar@@@std@@@4@@std@@@std@@PAX@std@@_N@std@@QAE@ABQAU?$_List_node@U?$pair@$$CBIV?$unordered_map@IUnetvar@c_netvar@@U?$hash@I@std@@U?$equal_to@I@4@V?$allocator@U?$pair@$$CBIUnetvar@c_netvar@@@std@@@4@@std@@@std@@PAX@1@$$QA_N@Z 1000c200 f i c_aimhelper.obj
 0001:0000b200       ??$?0ABQAU?$_List_node@U?$pair@$$CBIVc_font@@@std@@PAX@std@@_N$0A@@?$pair@PAU?$_List_node@U?$pair@$$CBIVc_font@@@std@@PAX@std@@_N@std@@QAE@ABQAU?$_List_node@U?$pair@$$CBIVc_font@@@std@@PAX@1@$$QA_N@Z 1000c200 f i c_renderer.obj
 0001:0000b200       ??$?0ABQAU?$_List_node@U?$pair@$$CBIUnetvar@c_netvar@@@std@@PAX@std@@_N$0A@@?$pair@PAU?$_List_node@U?$pair@$$CBIUnetvar@c_netvar@@@std@@PAX@std@@_N@std@@QAE@ABQAU?$_List_node@U?$pair@$$CBIUnetvar@c_netvar@@@std@@PAX@1@$$QA_N@Z 1000c200 f i c_aimhelper.obj
 0001:0000b200       ??$?0PAU?$_Tree_node@U?$pair@$$CBV?$basic_string@DU?$char_traits@D@std@@V?$allocator@D@2@@std@@V?$basic_json@Vmap@std@@Vvector@2@V?$basic_string@DU?$char_traits@D@std@@V?$allocator@D@2@@2@_N_J_KNVallocator@2@Uadl_serializer@nlohmann@@@nlohmann@@@std@@PAX@std@@_N$0A@@?$pair@PAU?$_Tree_node@U?$pair@$$CBV?$basic_string@DU?$char_traits@D@std@@V?$allocator@D@2@@std@@V?$basic_json@Vmap@std@@Vvector@2@V?$basic_string@DU?$char_traits@D@std@@V?$allocator@D@2@@2@_N_J_KNVallocator@2@Uadl_serializer@nlohmann@@@nlohmann@@@std@@PAX@std@@_N@std@@QAE@$$QAPAU?$_Tree_node@U?$pair@$$CBV?$basic_string@DU?$char_traits@D@std@@V?$allocator@D@2@@std@@V?$basic_json@Vmap@std@@Vvector@2@V?$basic_string@DU?$char_traits@D@std@@V?$allocator@D@2@@2@_N_J_KNVallocator@2@Uadl_serializer@nlohmann@@@nlohmann@@@std@@PAX@1@$$QA_N@Z 1000c200 f i c_conf.obj
 0001:0000b200       ??$?0AAPAU?$_List_node@U?$pair@$$CBIVc_font@@@std@@PAX@std@@_N$0A@@?$pair@PAU?$_List_node@U?$pair@$$CBIVc_font@@@std@@PAX@std@@_N@std@@QAE@AAPAU?$_List_node@U?$pair@$$CBIVc_font@@@std@@PAX@1@$$QA_N@Z 1000c200 f i c_renderer.obj
 0001:0000b200       ??$?0ABQAU?$_List_node@U?$pair@$$CBIUanimation_info@c_animation_system@@@std@@PAX@std@@_N$0A@@?$pair@PAU?$_List_node@U?$pair@$$CBIUanimation_info@c_animation_system@@@std@@PAX@std@@_N@std@@QAE@ABQAU?$_List_node@U?$pair@$$CBIUanimation_info@c_animation_system@@@std@@PAX@1@$$QA_N@Z 1000c200 f i c_animation_system.obj
 0001:0000b200       ??$?0AAPAU?$_List_node@U?$pair@QAVc_hotkey_select@@V?$function@$$A6AXI@Z@std@@@std@@PAX@std@@_N$0A@@?$pair@PAU?$_List_node@U?$pair@QAVc_hotkey_select@@V?$function@$$A6AXI@Z@std@@@std@@PAX@std@@_N@std@@QAE@AAPAU?$_List_node@U?$pair@QAVc_hotkey_select@@V?$function@$$A6AXI@Z@std@@@std@@PAX@1@$$QA_N@Z 1000c200 f i c_hotkeys.obj
 0001:0000b200       ??$?0AAPAU?$_List_node@U?$pair@$$CBIUnetvar@c_netvar@@@std@@PAX@std@@_N$0A@@?$pair@PAU?$_List_node@U?$pair@$$CBIUnetvar@c_netvar@@@std@@PAX@std@@_N@std@@QAE@AAPAU?$_List_node@U?$pair@$$CBIUnetvar@c_netvar@@@std@@PAX@1@$$QA_N@Z 1000c200 f i c_aimhelper.obj
 0001:0000b200       ??$?0AAPAU?$_List_node@U?$pair@$$CBIUanimation_info@c_animation_system@@@std@@PAX@std@@_N$0A@@?$pair@PAU?$_List_node@U?$pair@$$CBIUanimation_info@c_animation_system@@@std@@PAX@std@@_N@std@@QAE@AAPAU?$_List_node@U?$pair@$$CBIUanimation_info@c_animation_system@@@std@@PAX@1@$$QA_N@Z 1000c200 f i c_animation_system.obj
 0001:0000b200       ??$?0AAPAU?$_List_node@U?$pair@$$CBIV?$unordered_map@IUnetvar@c_netvar@@U?$hash@I@std@@U?$equal_to@I@4@V?$allocator@U?$pair@$$CBIUnetvar@c_netvar@@@std@@@4@@std@@@std@@PAX@std@@_N$0A@@?$pair@PAU?$_List_node@U?$pair@$$CBIV?$unordered_map@IUnetvar@c_netvar@@U?$hash@I@std@@U?$equal_to@I@4@V?$allocator@U?$pair@$$CBIUnetvar@c_netvar@@@std@@@4@@std@@@std@@PAX@std@@_N@std@@QAE@AAPAU?$_List_node@U?$pair@$$CBIV?$unordered_map@IUnetvar@c_netvar@@U?$hash@I@std@@U?$equal_to@I@4@V?$allocator@U?$pair@$$CBIUnetvar@c_netvar@@@std@@@4@@std@@@std@@PAX@1@$$QA_N@Z 1000c200 f i c_aimhelper.obj
 0001:0000b200       ??$?0ABQAU?$_List_node@U?$pair@$$CBIU?$pair@HH@std@@@std@@PAX@std@@_N$0A@@?$pair@PAU?$_List_node@U?$pair@$$CBIU?$pair@HH@std@@@std@@PAX@std@@_N@std@@QAE@ABQAU?$_List_node@U?$pair@$$CBIU?$pair@HH@std@@@std@@PAX@1@$$QA_N@Z 1000c200 f i c_esp.obj
 0001:0000b240       ??$?0AAU?$equal_to@PAVc_hotkey_select@@@std@@M@?$_Compressed_pair@U?$equal_to@PAVc_hotkey_select@@@std@@M$00@std@@QAE@U_One_then_variadic_args_t@1@AAU?$equal_to@PAVc_hotkey_select@@@1@$$QAM@Z 1000c240 f i c_hotkeys.obj
 0001:0000b240       ??$?0AAU?$equal_to@I@std@@M@?$_Compressed_pair@U?$equal_to@I@std@@M$00@std@@QAE@U_One_then_variadic_args_t@1@AAU?$equal_to@I@1@$$QAM@Z 1000c240 f i c_aimhelper.obj
 0001:0000b270       ??$?0AAU?$hash@PAVc_hotkey_select@@@std@@U_One_then_variadic_args_t@1@AAU?$equal_to@PAVc_hotkey_select@@@1@M@?$_Compressed_pair@U?$hash@PAVc_hotkey_select@@@std@@V?$_Compressed_pair@U?$equal_to@PAVc_hotkey_select@@@std@@M$00@2@$00@std@@QAE@U_One_then_variadic_args_t@1@AAU?$hash@PAVc_hotkey_select@@@1@$$QAU21@AAU?$equal_to@PAVc_hotkey_select@@@1@$$QAM@Z 1000c270 f i c_hotkeys.obj
 0001:0000b270       ??$?0AAU?$hash@I@std@@U_One_then_variadic_args_t@1@AAU?$equal_to@I@1@M@?$_Compressed_pair@U?$hash@I@std@@V?$_Compressed_pair@U?$equal_to@I@std@@M$00@2@$00@std@@QAE@U_One_then_variadic_args_t@1@AAU?$hash@I@1@$$QAU21@AAU?$equal_to@I@1@$$QAM@Z 1000c270 f i c_aimhelper.obj
 0001:0000b2e0       ??$?0AAUweapon_conf@rage_conf@config_conf@c_config@@$0A@@?$optional@Uweapon_conf@rage_conf@config_conf@c_config@@@std@@QAE@AAUweapon_conf@rage_conf@config_conf@c_config@@@Z 1000c2e0 f i c_aimhelper.obj
 0001:0000b320       ??$?0AAUweapon_conf@rage_conf@config_conf@c_config@@@?$_Optional_construct_base@Uweapon_conf@rage_conf@config_conf@c_config@@@std@@QAE@Uin_place_t@1@AAUweapon_conf@rage_conf@config_conf@c_config@@@Z 1000c320 f i c_aimhelper.obj
 0001:0000b350       ??$?0AAUweapon_conf@rage_conf@config_conf@c_config@@@?$_Optional_destruct_base@Uweapon_conf@rage_conf@config_conf@c_config@@$00@std@@QAE@Uin_place_t@1@AAUweapon_conf@rage_conf@config_conf@c_config@@@Z 1000c350 f i c_aimhelper.obj
 0001:0000b390       ??$?0V?$_List_iterator@V?$_List_val@U?$_List_simple_types@U?$pair@$$CBIUnetvar@c_netvar@@@std@@@std@@@std@@@std@@AB_N$0A@@?$pair@V?$_List_iterator@V?$_List_val@U?$_List_simple_types@U?$pair@$$CBIUnetvar@c_netvar@@@std@@@std@@@std@@@std@@_N@std@@QAE@$$QAV?$_List_iterator@V?$_List_val@U?$_List_simple_types@U?$pair@$$CBIUnetvar@c_netvar@@@std@@@std@@@std@@@1@AB_N@Z 1000c390 f i c_aimhelper.obj
 0001:0000b390       ??$?0V?$_List_iterator@V?$_List_val@U?$_List_simple_types@U?$pair@$$CBIV?$unordered_map@IUnetvar@c_netvar@@U?$hash@I@std@@U?$equal_to@I@4@V?$allocator@U?$pair@$$CBIUnetvar@c_netvar@@@std@@@4@@std@@@std@@@std@@@std@@@std@@AB_N$0A@@?$pair@V?$_List_iterator@V?$_List_val@U?$_List_simple_types@U?$pair@$$CBIV?$unordered_map@IUnetvar@c_netvar@@U?$hash@I@std@@U?$equal_to@I@4@V?$allocator@U?$pair@$$CBIUnetvar@c_netvar@@@std@@@4@@std@@@std@@@std@@@std@@@std@@_N@std@@QAE@$$QAV?$_List_iterator@V?$_List_val@U?$_List_simple_types@U?$pair@$$CBIV?$unordered_map@IUnetvar@c_netvar@@U?$hash@I@std@@U?$equal_to@I@4@V?$allocator@U?$pair@$$CBIUnetvar@c_netvar@@@std@@@4@@std@@@std@@@std@@@std@@@1@AB_N@Z 1000c390 f i c_aimhelper.obj
 0001:0000b390       ??$?0V?$_Tree_iterator@V?$_Tree_val@U?$_Tree_simple_types@U?$pair@$$CBV?$basic_string@DU?$char_traits@D@std@@V?$allocator@D@2@@std@@V?$basic_json@Vmap@std@@Vvector@2@V?$basic_string@DU?$char_traits@D@std@@V?$allocator@D@2@@2@_N_J_KNVallocator@2@Uadl_serializer@nlohmann@@@nlohmann@@@std@@@std@@@std@@@std@@AA_N$0A@@?$pair@V?$_Tree_iterator@V?$_Tree_val@U?$_Tree_simple_types@U?$pair@$$CBV?$basic_string@DU?$char_traits@D@std@@V?$allocator@D@2@@std@@V?$basic_json@Vmap@std@@Vvector@2@V?$basic_string@DU?$char_traits@D@std@@V?$allocator@D@2@@2@_N_J_KNVallocator@2@Uadl_serializer@nlohmann@@@nlohmann@@@std@@@std@@@std@@@std@@_N@std@@QAE@$$QAV?$_Tree_iterator@V?$_Tree_val@U?$_Tree_simple_types@U?$pair@$$CBV?$basic_string@DU?$char_traits@D@std@@V?$allocator@D@2@@std@@V?$basic_json@Vmap@std@@Vvector@2@V?$basic_string@DU?$char_traits@D@std@@V?$allocator@D@2@@2@_N_J_KNVallocator@2@Uadl_serializer@nlohmann@@@nlohmann@@@std@@@std@@@std@@@1@AA_N@Z 1000c390 f i c_conf.obj
 0001:0000b390       ??$?0AAV?$_List_iterator@V?$_List_val@U?$_List_simple_types@U?$pair@$$CBIVc_font@@@std@@@std@@@std@@@std@@_N$0A@@?$pair@V?$_List_iterator@V?$_List_val@U?$_List_simple_types@U?$pair@$$CBIVc_font@@@std@@@std@@@std@@@std@@_N@std@@QAE@AAV?$_List_iterator@V?$_List_val@U?$_List_simple_types@U?$pair@$$CBIVc_font@@@std@@@std@@@std@@@1@$$QA_N@Z 1000c390 f i c_renderer.obj
 0001:0000b390       ??$?0AAV?$_List_iterator@V?$_List_val@U?$_List_simple_types@U?$pair@$$CBIU?$pair@HH@std@@@std@@@std@@@std@@@std@@_N$0A@@?$pair@V?$_List_iterator@V?$_List_val@U?$_List_simple_types@U?$pair@$$CBIU?$pair@HH@std@@@std@@@std@@@std@@@std@@_N@std@@QAE@AAV?$_List_iterator@V?$_List_val@U?$_List_simple_types@U?$pair@$$CBIU?$pair@HH@std@@@std@@@std@@@std@@@1@$$QA_N@Z 1000c390 f i c_esp.obj
 0001:0000b390       ??$?0V?$_List_iterator@V?$_List_val@U?$_List_simple_types@U?$pair@QAVc_hotkey_select@@V?$function@$$A6AXI@Z@std@@@std@@@std@@@std@@@std@@AB_N$0A@@?$pair@V?$_List_iterator@V?$_List_val@U?$_List_simple_types@U?$pair@QAVc_hotkey_select@@V?$function@$$A6AXI@Z@std@@@std@@@std@@@std@@@std@@_N@std@@QAE@$$QAV?$_List_iterator@V?$_List_val@U?$_List_simple_types@U?$pair@QAVc_hotkey_select@@V?$function@$$A6AXI@Z@std@@@std@@@std@@@std@@@1@AB_N@Z 1000c390 f i c_hotkeys.obj
 0001:0000b390       ??$?0V?$_List_iterator@V?$_List_val@U?$_List_simple_types@U?$pair@$$CBIU?$pair@HH@std@@@std@@@std@@@std@@@std@@AB_N$0A@@?$pair@V?$_List_iterator@V?$_List_val@U?$_List_simple_types@U?$pair@$$CBIU?$pair@HH@std@@@std@@@std@@@std@@@std@@_N@std@@QAE@$$QAV?$_List_iterator@V?$_List_val@U?$_List_simple_types@U?$pair@$$CBIU?$pair@HH@std@@@std@@@std@@@std@@@1@AB_N@Z 1000c390 f i c_esp.obj
 0001:0000b390       ??$?0AAV?$_List_iterator@V?$_List_val@U?$_List_simple_types@U?$pair@$$CBIUanimation_info@c_animation_system@@@std@@@std@@@std@@@std@@_N$0A@@?$pair@V?$_List_iterator@V?$_List_val@U?$_List_simple_types@U?$pair@$$CBIUanimation_info@c_animation_system@@@std@@@std@@@std@@@std@@_N@std@@QAE@AAV?$_List_iterator@V?$_List_val@U?$_List_simple_types@U?$pair@$$CBIUanimation_info@c_animation_system@@@std@@@std@@@std@@@1@$$QA_N@Z 1000c390 f i c_animation_system.obj
 0001:0000b390       ??$?0AAV?$_List_iterator@V?$_List_val@U?$_List_simple_types@U?$pair@QAVc_hotkey_select@@V?$function@$$A6AXI@Z@std@@@std@@@std@@@std@@@std@@_N$0A@@?$pair@V?$_List_iterator@V?$_List_val@U?$_List_simple_types@U?$pair@QAVc_hotkey_select@@V?$function@$$A6AXI@Z@std@@@std@@@std@@@std@@@std@@_N@std@@QAE@AAV?$_List_iterator@V?$_List_val@U?$_List_simple_types@U?$pair@QAVc_hotkey_select@@V?$function@$$A6AXI@Z@std@@@std@@@std@@@std@@@1@$$QA_N@Z 1000c390 f i c_hotkeys.obj
 0001:0000b390       ??$?0AAV?$_List_iterator@V?$_List_val@U?$_List_simple_types@U?$pair@$$CBIV?$unordered_map@IUnetvar@c_netvar@@U?$hash@I@std@@U?$equal_to@I@4@V?$allocator@U?$pair@$$CBIUnetvar@c_netvar@@@std@@@4@@std@@@std@@@std@@@std@@@std@@_N$0A@@?$pair@V?$_List_iterator@V?$_List_val@U?$_List_simple_types@U?$pair@$$CBIV?$unordered_map@IUnetvar@c_netvar@@U?$hash@I@std@@U?$equal_to@I@4@V?$allocator@U?$pair@$$CBIUnetvar@c_netvar@@@std@@@4@@std@@@std@@@std@@@std@@@std@@_N@std@@QAE@AAV?$_List_iterator@V?$_List_val@U?$_List_simple_types@U?$pair@$$CBIV?$unordered_map@IUnetvar@c_netvar@@U?$hash@I@std@@U?$equal_to@I@4@V?$allocator@U?$pair@$$CBIUnetvar@c_netvar@@@std@@@4@@std@@@std@@@std@@@std@@@1@$$QA_N@Z 1000c390 f i c_aimhelper.obj
 0001:0000b390       ??$?0V?$_List_iterator@V?$_List_val@U?$_List_simple_types@U?$pair@$$CBIVc_font@@@std@@@std@@@std@@@std@@AB_N$0A@@?$pair@V?$_List_iterator@V?$_List_val@U?$_List_simple_types@U?$pair@$$CBIVc_font@@@std@@@std@@@std@@@std@@_N@std@@QAE@$$QAV?$_List_iterator@V?$_List_val@U?$_List_simple_types@U?$pair@$$CBIVc_font@@@std@@@std@@@std@@@1@AB_N@Z 1000c390 f i c_renderer.obj
 0001:0000b390       ??$?0V?$_List_iterator@V?$_List_val@U?$_List_simple_types@U?$pair@$$CBIUanimation_info@c_animation_system@@@std@@@std@@@std@@@std@@AB_N$0A@@?$pair@V?$_List_iterator@V?$_List_val@U?$_List_simple_types@U?$pair@$$CBIUanimation_info@c_animation_system@@@std@@@std@@@std@@@std@@_N@std@@QAE@$$QAV?$_List_iterator@V?$_List_val@U?$_List_simple_types@U?$pair@$$CBIUanimation_info@c_animation_system@@@std@@@std@@@std@@@1@AB_N@Z 1000c390 f i c_animation_system.obj
 0001:0000b390       ??$?0AAV?$_List_iterator@V?$_List_val@U?$_List_simple_types@U?$pair@$$CBIUnetvar@c_netvar@@@std@@@std@@@std@@@std@@_N$0A@@?$pair@V?$_List_iterator@V?$_List_val@U?$_List_simple_types@U?$pair@$$CBIUnetvar@c_netvar@@@std@@@std@@@std@@@std@@_N@std@@QAE@AAV?$_List_iterator@V?$_List_val@U?$_List_simple_types@U?$pair@$$CBIUnetvar@c_netvar@@@std@@@std@@@std@@@1@$$QA_N@Z 1000c390 f i c_aimhelper.obj
 0001:0000b3d0       ??$?0Vc_vector3d@@@?$_Tuple_val@Vc_vector3d@@@std@@QAE@$$QAVc_vector3d@@@Z 1000c3d0 f i c_aimhelper.obj
 0001:0000b3d0       ??$?0AAVc_vector3d@@@?$_Tuple_val@Vc_vector3d@@@std@@QAE@AAVc_vector3d@@@Z 1000c3d0 f i c_aimhelper.obj
 0001:0000b400       ??$?0AAVc_vector3d@@ABQAUanimation@c_animation_system@@ABM$0A@@?$tuple@Vc_vector3d@@PAUanimation@c_animation_system@@M@std@@QAE@AAVc_vector3d@@ABQAUanimation@c_animation_system@@ABM@Z 1000c400 f i c_aimhelper.obj
 0001:0000b400       ??$?0AAVc_vector3d@@AAMAAPAUanimation@c_animation_system@@$0A@@?$tuple@Vc_vector3d@@MPAUanimation@c_animation_system@@@std@@QAE@AAVc_vector3d@@AAMAAPAUanimation@c_animation_system@@@Z 1000c400 f i c_aimhelper.obj
 0001:0000b400       ??$?0Vc_vector3d@@$$TM$0A@@?$tuple@Vc_vector3d@@PAUanimation@c_animation_system@@M@std@@QAE@$$QAVc_vector3d@@$$QA$$T$$QAM@Z 1000c400 f i c_aimhelper.obj
 0001:0000b4e0       ??$?0ABV?$allocator@V?$_List_unchecked_iterator@V?$_List_val@U?$_List_simple_types@U?$pair@$$CBIUanimation_info@c_animation_system@@@std@@@std@@@std@@@std@@@std@@$$V@?$_Compressed_pair@V?$allocator@V?$_List_unchecked_iterator@V?$_List_val@U?$_List_simple_types@U?$pair@$$CBIUanimation_info@c_animation_system@@@std@@@std@@@std@@@std@@@std@@V?$_Vector_val@U?$_Simple_types@V?$_List_unchecked_iterator@V?$_List_val@U?$_List_simple_types@U?$pair@$$CBIUanimation_info@c_animation_system@@@std@@@std@@@std@@@std@@@std@@@2@$00@std@@QAE@U_One_then_variadic_args_t@1@ABV?$allocator@V?$_List_unchecked_iterator@V?$_List_val@U?$_List_simple_types@U?$pair@$$CBIUanimation_info@c_animation_system@@@std@@@std@@@std@@@std@@@1@@Z 1000c4e0 f i c_aimhelper.obj
 0001:0000b4e0       ??$?0ABV?$allocator@V?$basic_json@Vmap@std@@Vvector@2@V?$basic_string@DU?$char_traits@D@std@@V?$allocator@D@2@@2@_N_J_KNVallocator@2@Uadl_serializer@nlohmann@@@nlohmann@@@std@@$$V@?$_Compressed_pair@V?$allocator@V?$basic_json@Vmap@std@@Vvector@2@V?$basic_string@DU?$char_traits@D@std@@V?$allocator@D@2@@2@_N_J_KNVallocator@2@Uadl_serializer@nlohmann@@@nlohmann@@@std@@V?$_Vector_val@U?$_Simple_types@V?$basic_json@Vmap@std@@Vvector@2@V?$basic_string@DU?$char_traits@D@std@@V?$allocator@D@2@@2@_N_J_KNVallocator@2@Uadl_serializer@nlohmann@@@nlohmann@@@std@@@2@$00@std@@QAE@U_One_then_variadic_args_t@1@ABV?$allocator@V?$basic_json@Vmap@std@@Vvector@2@V?$basic_string@DU?$char_traits@D@std@@V?$allocator@D@2@@2@_N_J_KNVallocator@2@Uadl_serializer@nlohmann@@@nlohmann@@@1@@Z 1000c4e0 f i c_conf.obj
 0001:0000b4e0       ??$?0ABV?$allocator@U?$pair@V?$shared_ptr@Vc_drawable@@@std@@U?$pair@Vc_vector2d@@V1@@2@@std@@@std@@$$V@?$_Compressed_pair@V?$allocator@U?$pair@V?$shared_ptr@Vc_drawable@@@std@@U?$pair@Vc_vector2d@@V1@@2@@std@@@std@@V?$_Vector_val@U?$_Simple_types@U?$pair@V?$shared_ptr@Vc_drawable@@@std@@U?$pair@Vc_vector2d@@V1@@2@@std@@@std@@@2@$00@std@@QAE@U_One_then_variadic_args_t@1@ABV?$allocator@U?$pair@V?$shared_ptr@Vc_drawable@@@std@@U?$pair@Vc_vector2d@@V1@@2@@std@@@1@@Z 1000c4e0 f i c_checkbox.obj
 0001:0000b4e0       ??$?0ABV?$allocator@V?$_List_unchecked_iterator@V?$_List_val@U?$_List_simple_types@U?$pair@QAVc_hotkey_select@@V?$function@$$A6AXI@Z@std@@@std@@@std@@@std@@@std@@@std@@$$V@?$_Compressed_pair@V?$allocator@V?$_List_unchecked_iterator@V?$_List_val@U?$_List_simple_types@U?$pair@QAVc_hotkey_select@@V?$function@$$A6AXI@Z@std@@@std@@@std@@@std@@@std@@@std@@V?$_Vector_val@U?$_Simple_types@V?$_List_unchecked_iterator@V?$_List_val@U?$_List_simple_types@U?$pair@QAVc_hotkey_select@@V?$function@$$A6AXI@Z@std@@@std@@@std@@@std@@@std@@@std@@@2@$00@std@@QAE@U_One_then_variadic_args_t@1@ABV?$allocator@V?$_List_unchecked_iterator@V?$_List_val@U?$_List_simple_types@U?$pair@QAVc_hotkey_select@@V?$function@$$A6AXI@Z@std@@@std@@@std@@@std@@@std@@@1@@Z 1000c4e0 f i c_hotkeys.obj
 0001:0000b4e0       ??$?0ABV?$allocator@V?$_List_unchecked_iterator@V?$_List_val@U?$_List_simple_types@U?$pair@$$CBIVc_font@@@std@@@std@@@std@@@std@@@std@@$$V@?$_Compressed_pair@V?$allocator@V?$_List_unchecked_iterator@V?$_List_val@U?$_List_simple_types@U?$pair@$$CBIVc_font@@@std@@@std@@@std@@@std@@@std@@V?$_Vector_val@U?$_Simple_types@V?$_List_unchecked_iterator@V?$_List_val@U?$_List_simple_types@U?$pair@$$CBIVc_font@@@std@@@std@@@std@@@std@@@std@@@2@$00@std@@QAE@U_One_then_variadic_args_t@1@ABV?$allocator@V?$_List_unchecked_iterator@V?$_List_val@U?$_List_simple_types@U?$pair@$$CBIVc_font@@@std@@@std@@@std@@@std@@@1@@Z 1000c4e0 f i c_renderer.obj
 0001:0000b4e0       ??$?0ABV?$allocator@E@std@@$$V@?$_Compressed_pair@V?$allocator@E@std@@V?$_Vector_val@U?$_Simple_types@E@std@@@2@$00@std@@QAE@U_One_then_variadic_args_t@1@ABV?$allocator@E@1@@Z 1000c4e0 f i c_miscellaneous.obj
 0001:0000b4e0       ??$?0ABV?$allocator@D@std@@$$V@?$_Compressed_pair@V?$allocator@D@std@@V?$_Vector_val@U?$_Simple_types@D@std@@@2@$00@std@@QAE@U_One_then_variadic_args_t@1@ABV?$allocator@D@1@@Z 1000c4e0 f i c_miscellaneous.obj
 0001:0000b4e0       ??$?0ABV?$allocator@V?$_List_unchecked_iterator@V?$_List_val@U?$_List_simple_types@U?$pair@$$CBIUnetvar@c_netvar@@@std@@@std@@@std@@@std@@@std@@$$V@?$_Compressed_pair@V?$allocator@V?$_List_unchecked_iterator@V?$_List_val@U?$_List_simple_types@U?$pair@$$CBIUnetvar@c_netvar@@@std@@@std@@@std@@@std@@@std@@V?$_Vector_val@U?$_Simple_types@V?$_List_unchecked_iterator@V?$_List_val@U?$_List_simple_types@U?$pair@$$CBIUnetvar@c_netvar@@@std@@@std@@@std@@@std@@@std@@@2@$00@std@@QAE@U_One_then_variadic_args_t@1@ABV?$allocator@V?$_List_unchecked_iterator@V?$_List_val@U?$_List_simple_types@U?$pair@$$CBIUnetvar@c_netvar@@@std@@@std@@@std@@@std@@@1@@Z 1000c4e0 f i c_aimhelper.obj
 0001:0000b4e0       ??$?0ABV?$allocator@PAUanimation@c_animation_system@@@std@@$$V@?$_Compressed_pair@V?$allocator@PAUanimation@c_animation_system@@@std@@V?$_Vector_val@U?$_Simple_types@PAUanimation@c_animation_system@@@std@@@2@$00@std@@QAE@U_One_then_variadic_args_t@1@ABV?$allocator@PAUanimation@c_animation_system@@@1@@Z 1000c4e0 f i c_aimhelper.obj
 0001:0000b4e0       ??$?0V?$allocator@PAUanimation@c_animation_system@@@std@@$$V@?$_Compressed_pair@V?$allocator@PAUanimation@c_animation_system@@@std@@V?$_Vector_val@U?$_Simple_types@PAUanimation@c_animation_system@@@std@@@2@$00@std@@QAE@U_One_then_variadic_args_t@1@$$QAV?$allocator@PAUanimation@c_animation_system@@@1@@Z 1000c4e0 f i c_aimhelper.obj
 0001:0000b4e0       ??$?0V?$allocator@H@std@@$$V@?$_Compressed_pair@V?$allocator@H@std@@V?$_Vector_val@U?$_Simple_types@H@std@@@2@$00@std@@QAE@U_One_then_variadic_args_t@1@$$QAV?$allocator@H@1@@Z 1000c4e0 f i c_aimhelper.obj
 0001:0000b4e0       ??$?0V?$allocator@Uaim_info@c_aimhelper@@@std@@$$V@?$_Compressed_pair@V?$allocator@Uaim_info@c_aimhelper@@@std@@V?$_Vector_val@U?$_Simple_types@Uaim_info@c_aimhelper@@@std@@@2@$00@std@@QAE@U_One_then_variadic_args_t@1@$$QAV?$allocator@Uaim_info@c_aimhelper@@@1@@Z 1000c4e0 f i c_aimhelper.obj
 0001:0000b4e0       ??$?0ABV?$allocator@V?$_List_unchecked_iterator@V?$_List_val@U?$_List_simple_types@U?$pair@$$CBIV?$unordered_map@IUnetvar@c_netvar@@U?$hash@I@std@@U?$equal_to@I@4@V?$allocator@U?$pair@$$CBIUnetvar@c_netvar@@@std@@@4@@std@@@std@@@std@@@std@@@std@@@std@@$$V@?$_Compressed_pair@V?$allocator@V?$_List_unchecked_iterator@V?$_List_val@U?$_List_simple_types@U?$pair@$$CBIV?$unordered_map@IUnetvar@c_netvar@@U?$hash@I@std@@U?$equal_to@I@4@V?$allocator@U?$pair@$$CBIUnetvar@c_netvar@@@std@@@4@@std@@@std@@@std@@@std@@@std@@@std@@V?$_Vector_val@U?$_Simple_types@V?$_List_unchecked_iterator@V?$_List_val@U?$_List_simple_types@U?$pair@$$CBIV?$unordered_map@IUnetvar@c_netvar@@U?$hash@I@std@@U?$equal_to@I@4@V?$allocator@U?$pair@$$CBIUnetvar@c_netvar@@@std@@@4@@std@@@std@@@std@@@std@@@std@@@std@@@2@$00@std@@QAE@U_One_then_variadic_args_t@1@ABV?$allocator@V?$_List_unchecked_iterator@V?$_List_val@U?$_List_simple_types@U?$pair@$$CBIV?$unordered_map@IUnetvar@c_netvar@@U?$hash@I@std@@U?$equal_to@I@4@V?$allocator@U?$pair@$$CBIUnetvar@c_netvar@@@std@@@4@@std@@@std@@@std@@@std@@@std@@@1@@Z 1000c4e0 f i c_netvar.obj
 0001:0000b4e0       ??$?0V?$allocator@M@std@@$$V@?$_Compressed_pair@V?$allocator@M@std@@V?$_Vector_val@U?$_Simple_types@M@std@@@2@$00@std@@QAE@U_One_then_variadic_args_t@1@$$QAV?$allocator@M@1@@Z 1000c4e0 f i c_font.obj
 0001:0000b4e0       ??$?0ABV?$allocator@U?$pair@V?$basic_string@DU?$char_traits@D@std@@V?$allocator@D@2@@std@@D@std@@@std@@$$V@?$_Compressed_pair@V?$allocator@U?$pair@V?$basic_string@DU?$char_traits@D@std@@V?$allocator@D@2@@std@@D@std@@@std@@V?$_Vector_val@U?$_Simple_types@U?$pair@V?$basic_string@DU?$char_traits@D@std@@V?$allocator@D@2@@std@@D@std@@@std@@@2@$00@std@@QAE@U_One_then_variadic_args_t@1@ABV?$allocator@U?$pair@V?$basic_string@DU?$char_traits@D@std@@V?$allocator@D@2@@std@@D@std@@@1@@Z 1000c4e0 f i c_menu.obj
 0001:0000b4e0       ??$?0V?$allocator@U?$pair@V?$basic_string@DU?$char_traits@D@std@@V?$allocator@D@2@@std@@D@std@@@std@@$$V@?$_Compressed_pair@V?$allocator@U?$pair@V?$basic_string@DU?$char_traits@D@std@@V?$allocator@D@2@@std@@D@std@@@std@@V?$_Vector_val@U?$_Simple_types@U?$pair@V?$basic_string@DU?$char_traits@D@std@@V?$allocator@D@2@@std@@D@std@@@std@@@2@$00@std@@QAE@U_One_then_variadic_args_t@1@$$QAV?$allocator@U?$pair@V?$basic_string@DU?$char_traits@D@std@@V?$allocator@D@2@@std@@D@std@@@1@@Z 1000c4e0 f i c_misc.obj
 0001:0000b4e0       ??$?0V?$allocator@Vc_vector3d@@@std@@$$V@?$_Compressed_pair@V?$allocator@Vc_vector3d@@@std@@V?$_Vector_val@U?$_Simple_types@Vc_vector3d@@@std@@@2@$00@std@@QAE@U_One_then_variadic_args_t@1@$$QAV?$allocator@Vc_vector3d@@@1@@Z 1000c4e0 f i c_resolver.obj
 0001:0000b4e0       ??$?0ABV?$allocator@V?$basic_string@DU?$char_traits@D@std@@V?$allocator@D@2@@std@@@std@@$$V@?$_Compressed_pair@V?$allocator@V?$basic_string@DU?$char_traits@D@std@@V?$allocator@D@2@@std@@@std@@V?$_Vector_val@U?$_Simple_types@V?$basic_string@DU?$char_traits@D@std@@V?$allocator@D@2@@std@@@std@@@2@$00@std@@QAE@U_One_then_variadic_args_t@1@ABV?$allocator@V?$basic_string@DU?$char_traits@D@std@@V?$allocator@D@2@@std@@@1@@Z 1000c4e0 f i c_miscellaneous.obj
 0001:0000b4e0       ??$?0ABV?$allocator@V?$_List_unchecked_iterator@V?$_List_val@U?$_List_simple_types@U?$pair@$$CBIU?$pair@HH@std@@@std@@@std@@@std@@@std@@@std@@$$V@?$_Compressed_pair@V?$allocator@V?$_List_unchecked_iterator@V?$_List_val@U?$_List_simple_types@U?$pair@$$CBIU?$pair@HH@std@@@std@@@std@@@std@@@std@@@std@@V?$_Vector_val@U?$_Simple_types@V?$_List_unchecked_iterator@V?$_List_val@U?$_List_simple_types@U?$pair@$$CBIU?$pair@HH@std@@@std@@@std@@@std@@@std@@@std@@@2@$00@std@@QAE@U_One_then_variadic_args_t@1@ABV?$allocator@V?$_List_unchecked_iterator@V?$_List_val@U?$_List_simple_types@U?$pair@$$CBIU?$pair@HH@std@@@std@@@std@@@std@@@std@@@1@@Z 1000c4e0 f i c_esp.obj
 0001:0000b4e0       ??$?0V?$allocator@V?$basic_json@Vmap@std@@Vvector@2@V?$basic_string@DU?$char_traits@D@std@@V?$allocator@D@2@@2@_N_J_KNVallocator@2@Uadl_serializer@nlohmann@@@nlohmann@@@std@@$$V@?$_Compressed_pair@V?$allocator@V?$basic_json@Vmap@std@@Vvector@2@V?$basic_string@DU?$char_traits@D@std@@V?$allocator@D@2@@2@_N_J_KNVallocator@2@Uadl_serializer@nlohmann@@@nlohmann@@@std@@V?$_Vector_val@U?$_Simple_types@V?$basic_json@Vmap@std@@Vvector@2@V?$basic_string@DU?$char_traits@D@std@@V?$allocator@D@2@@2@_N_J_KNVallocator@2@Uadl_serializer@nlohmann@@@nlohmann@@@std@@@2@$00@std@@QAE@U_One_then_variadic_args_t@1@$$QAV?$allocator@V?$basic_json@Vmap@std@@Vvector@2@V?$basic_string@DU?$char_traits@D@std@@V?$allocator@D@2@@2@_N_J_KNVallocator@2@Uadl_serializer@nlohmann@@@nlohmann@@@1@@Z 1000c4e0 f i c_conf.obj
 0001:0000b510       ??$?0ABV?$allocator@U?$pair@QAVc_hotkey_select@@V?$function@$$A6AXI@Z@std@@@std@@@std@@$$V@?$_Compressed_pair@V?$allocator@U?$_List_node@U?$pair@QAVc_hotkey_select@@V?$function@$$A6AXI@Z@std@@@std@@PAX@std@@@std@@V?$_List_val@U?$_List_simple_types@U?$pair@QAVc_hotkey_select@@V?$function@$$A6AXI@Z@std@@@std@@@std@@@2@$00@std@@QAE@U_One_then_variadic_args_t@1@ABV?$allocator@U?$pair@QAVc_hotkey_select@@V?$function@$$A6AXI@Z@std@@@std@@@1@@Z 1000c510 f i c_hotkeys.obj
 0001:0000b510       ??$?0ABV?$allocator@U?$pair@$$CBIU?$pair@HH@std@@@std@@@std@@$$V@?$_Compressed_pair@V?$allocator@U?$_List_node@U?$pair@$$CBIU?$pair@HH@std@@@std@@PAX@std@@@std@@V?$_List_val@U?$_List_simple_types@U?$pair@$$CBIU?$pair@HH@std@@@std@@@std@@@2@$00@std@@QAE@U_One_then_variadic_args_t@1@ABV?$allocator@U?$pair@$$CBIU?$pair@HH@std@@@std@@@1@@Z 1000c510 f i c_esp.obj
 0001:0000b510       ??$?0ABV?$allocator@U?$pair@$$CBIUnetvar@c_netvar@@@std@@@std@@$$V@?$_Compressed_pair@V?$allocator@U?$_List_node@U?$pair@$$CBIUnetvar@c_netvar@@@std@@PAX@std@@@std@@V?$_List_val@U?$_List_simple_types@U?$pair@$$CBIUnetvar@c_netvar@@@std@@@std@@@2@$00@std@@QAE@U_One_then_variadic_args_t@1@ABV?$allocator@U?$pair@$$CBIUnetvar@c_netvar@@@std@@@1@@Z 1000c510 f i c_aimhelper.obj
 0001:0000b510       ??$?0ABV?$allocator@U?$pair@$$CBIVc_font@@@std@@@std@@$$V@?$_Compressed_pair@V?$allocator@U?$_List_node@U?$pair@$$CBIVc_font@@@std@@PAX@std@@@std@@V?$_List_val@U?$_List_simple_types@U?$pair@$$CBIVc_font@@@std@@@std@@@2@$00@std@@QAE@U_One_then_variadic_args_t@1@ABV?$allocator@U?$pair@$$CBIVc_font@@@std@@@1@@Z 1000c510 f i c_renderer.obj
 0001:0000b510       ??$?0ABV?$allocator@U?$pair@$$CBIUanimation_info@c_animation_system@@@std@@@std@@$$V@?$_Compressed_pair@V?$allocator@U?$_List_node@U?$pair@$$CBIUanimation_info@c_animation_system@@@std@@PAX@std@@@std@@V?$_List_val@U?$_List_simple_types@U?$pair@$$CBIUanimation_info@c_animation_system@@@std@@@std@@@2@$00@std@@QAE@U_One_then_variadic_args_t@1@ABV?$allocator@U?$pair@$$CBIUanimation_info@c_animation_system@@@std@@@1@@Z 1000c510 f i c_aimhelper.obj
 0001:0000b510       ??$?0ABV?$allocator@U?$pair@$$CBIV?$unordered_map@IUnetvar@c_netvar@@U?$hash@I@std@@U?$equal_to@I@4@V?$allocator@U?$pair@$$CBIUnetvar@c_netvar@@@std@@@4@@std@@@std@@@std@@$$V@?$_Compressed_pair@V?$allocator@U?$_List_node@U?$pair@$$CBIV?$unordered_map@IUnetvar@c_netvar@@U?$hash@I@std@@U?$equal_to@I@4@V?$allocator@U?$pair@$$CBIUnetvar@c_netvar@@@std@@@4@@std@@@std@@PAX@std@@@std@@V?$_List_val@U?$_List_simple_types@U?$pair@$$CBIV?$unordered_map@IUnetvar@c_netvar@@U?$hash@I@std@@U?$equal_to@I@4@V?$allocator@U?$pair@$$CBIUnetvar@c_netvar@@@std@@@4@@std@@@std@@@std@@@2@$00@std@@QAE@U_One_then_variadic_args_t@1@ABV?$allocator@U?$pair@$$CBIV?$unordered_map@IUnetvar@c_netvar@@U?$hash@I@std@@U?$equal_to@I@4@V?$allocator@U?$pair@$$CBIUnetvar@c_netvar@@@std@@@4@@std@@@std@@@1@@Z 1000c510 f i c_netvar.obj
 0001:0000b540       ??$?0I$$V$0A@@?$tuple@$$QAI@std@@QAE@$$QAI@Z 1000c540 f i c_aimhelper.obj
 0001:0000b5b0       ??$?0ABI@?$_Tuple_val@ABI@std@@QAE@ABI@Z 1000c5b0 f i c_esp.obj
 0001:0000b5b0       ??$?0I@?$_Tuple_val@$$QAI@std@@QAE@$$QAI@Z 1000c5b0 f i c_aimhelper.obj
 0001:0000b5e0       ??$?0MMM$0A@@?$tuple@MMM@std@@QAE@$$QAM00@Z 1000c5e0 f i c_aimhelper.obj
 0001:0000b680       ??$?0Uanimation@c_animation_system@@@?$allocator@PAUanimation@c_animation_system@@@std@@QAE@ABV?$allocator@Uanimation@c_animation_system@@@1@@Z 1000c680 f i c_aimhelper.obj
 0001:0000b680       ??$?0Uc_incoming_sequence@@@?$allocator@U_Container_proxy@std@@@std@@QAE@ABV?$allocator@Uc_incoming_sequence@@@1@@Z 1000c680 f i c_fake_ping.obj
 0001:0000b680       ??$?0U?$pair@$$CBIV?$unordered_map@IUnetvar@c_netvar@@U?$hash@I@std@@U?$equal_to@I@4@V?$allocator@U?$pair@$$CBIUnetvar@c_netvar@@@std@@@4@@std@@@std@@@?$allocator@V?$_List_unchecked_iterator@V?$_List_val@U?$_List_simple_types@U?$pair@$$CBIV?$unordered_map@IUnetvar@c_netvar@@U?$hash@I@std@@U?$equal_to@I@4@V?$allocator@U?$pair@$$CBIUnetvar@c_netvar@@@std@@@4@@std@@@std@@@std@@@std@@@std@@@std@@QAE@ABV?$allocator@U?$pair@$$CBIV?$unordered_map@IUnetvar@c_netvar@@U?$hash@I@std@@U?$equal_to@I@4@V?$allocator@U?$pair@$$CBIUnetvar@c_netvar@@@std@@@4@@std@@@std@@@1@@Z 1000c680 f i c_netvar.obj
 0001:0000b680       ??$?0Ushot@resolver@@@?$allocator@PAUshot@resolver@@@std@@QAE@ABV?$allocator@Ushot@resolver@@@1@@Z 1000c680 f i c_animation_system.obj
 0001:0000b680       ??0?$tuple@$$V@std@@QAE@ABV01@@Z 1000c680 f i c_aimhelper.obj
 0001:0000b680       ??$?0U?$pair@$$CBIUanimation_info@c_animation_system@@@std@@@?$allocator@V?$_List_unchecked_iterator@V?$_List_val@U?$_List_simple_types@U?$pair@$$CBIUanimation_info@c_animation_system@@@std@@@std@@@std@@@std@@@std@@QAE@ABV?$allocator@U?$pair@$$CBIUanimation_info@c_animation_system@@@std@@@1@@Z 1000c680 f i c_aimhelper.obj
 0001:0000b680       ??$?0U_Exact_args_t@std@@$0A@@?$tuple@$$V@std@@QAE@U_Exact_args_t@1@@Z 1000c680 f i c_aimhelper.obj
 0001:0000b680       ??$?0U?$pair@$$CBIVc_font@@@std@@@?$allocator@V?$_List_unchecked_iterator@V?$_List_val@U?$_List_simple_types@U?$pair@$$CBIVc_font@@@std@@@std@@@std@@@std@@@std@@QAE@ABV?$allocator@U?$pair@$$CBIVc_font@@@std@@@1@@Z 1000c680 f i c_renderer.obj
 0001:0000b680       ??$?0U?$pair@QAVc_hotkey_select@@V?$function@$$A6AXI@Z@std@@@std@@@?$allocator@U?$_List_node@U?$pair@QAVc_hotkey_select@@V?$function@$$A6AXI@Z@std@@@std@@PAX@std@@@std@@QAE@ABV?$allocator@U?$pair@QAVc_hotkey_select@@V?$function@$$A6AXI@Z@std@@@std@@@1@@Z 1000c680 f i c_hotkeys.obj
 0001:0000b680       ??$?0U?$pair@QAVc_hotkey_select@@V?$function@$$A6AXI@Z@std@@@std@@@?$allocator@V?$_List_unchecked_iterator@V?$_List_val@U?$_List_simple_types@U?$pair@QAVc_hotkey_select@@V?$function@$$A6AXI@Z@std@@@std@@@std@@@std@@@std@@@std@@QAE@ABV?$allocator@U?$pair@QAVc_hotkey_select@@V?$function@$$A6AXI@Z@std@@@std@@@1@@Z 1000c680 f i c_hotkeys.obj
 0001:0000b680       ??$?0Uc_incoming_sequence@@@?$allocator@PAUc_incoming_sequence@@@std@@QAE@ABV?$allocator@Uc_incoming_sequence@@@1@@Z 1000c680 f i c_fake_ping.obj
 0001:0000b680       ??$?0Ushot@resolver@@@?$allocator@U_Container_proxy@std@@@std@@QAE@ABV?$allocator@Ushot@resolver@@@1@@Z 1000c680 f i c_animation_system.obj
 0001:0000b680       ??$?0U?$pair@$$CBIUnetvar@c_netvar@@@std@@@?$allocator@U?$_List_node@U?$pair@$$CBIUnetvar@c_netvar@@@std@@PAX@std@@@std@@QAE@ABV?$allocator@U?$pair@$$CBIUnetvar@c_netvar@@@std@@@1@@Z 1000c680 f i c_aimhelper.obj
 0001:0000b680       ??$?0U?$pair@$$CBIV?$unordered_map@IUnetvar@c_netvar@@U?$hash@I@std@@U?$equal_to@I@4@V?$allocator@U?$pair@$$CBIUnetvar@c_netvar@@@std@@@4@@std@@@std@@@?$allocator@U?$_List_node@U?$pair@$$CBIV?$unordered_map@IUnetvar@c_netvar@@U?$hash@I@std@@U?$equal_to@I@4@V?$allocator@U?$pair@$$CBIUnetvar@c_netvar@@@std@@@4@@std@@@std@@PAX@std@@@std@@QAE@ABV?$allocator@U?$pair@$$CBIV?$unordered_map@IUnetvar@c_netvar@@U?$hash@I@std@@U?$equal_to@I@4@V?$allocator@U?$pair@$$CBIUnetvar@c_netvar@@@std@@@4@@std@@@std@@@1@@Z 1000c680 f i c_netvar.obj
 0001:0000b680       ??$?0U?$pair@$$CBIUnetvar@c_netvar@@@std@@@?$allocator@V?$_List_unchecked_iterator@V?$_List_val@U?$_List_simple_types@U?$pair@$$CBIUnetvar@c_netvar@@@std@@@std@@@std@@@std@@@std@@QAE@ABV?$allocator@U?$pair@$$CBIUnetvar@c_netvar@@@std@@@1@@Z 1000c680 f i c_aimhelper.obj
 0001:0000b680       ??$?0U?$pair@$$CBIUanimation_info@c_animation_system@@@std@@@?$allocator@U?$_List_node@U?$pair@$$CBIUanimation_info@c_animation_system@@@std@@PAX@std@@@std@@QAE@ABV?$allocator@U?$pair@$$CBIUanimation_info@c_animation_system@@@std@@@1@@Z 1000c680 f i c_aimhelper.obj
 0001:0000b680       ??$?0Uanimation@c_animation_system@@@?$allocator@U_Container_proxy@std@@@std@@QAE@ABV?$allocator@Uanimation@c_animation_system@@@1@@Z 1000c680 f i c_aimhelper.obj
 0001:0000b680       ??$?0U?$pair@$$CBIVc_font@@@std@@@?$allocator@U?$_List_node@U?$pair@$$CBIVc_font@@@std@@PAX@std@@@std@@QAE@ABV?$allocator@U?$pair@$$CBIVc_font@@@std@@@1@@Z 1000c680 f i c_renderer.obj
 0001:0000b680       ??$?0U?$pair@$$CBIU?$pair@HH@std@@@std@@@?$allocator@U?$_List_node@U?$pair@$$CBIU?$pair@HH@std@@@std@@PAX@std@@@std@@QAE@ABV?$allocator@U?$pair@$$CBIU?$pair@HH@std@@@std@@@1@@Z 1000c680 f i c_esp.obj
 0001:0000b680       ??$?0U?$pair@$$CBIU?$pair@HH@std@@@std@@@?$allocator@V?$_List_unchecked_iterator@V?$_List_val@U?$_List_simple_types@U?$pair@$$CBIU?$pair@HH@std@@@std@@@std@@@std@@@std@@@std@@QAE@ABV?$allocator@U?$pair@$$CBIU?$pair@HH@std@@@std@@@1@@Z 1000c680 f i c_esp.obj
 0001:0000b690       ??$?0U_Exact_args_t@std@@MM$0A@@?$tuple@MM@std@@QAE@U_Exact_args_t@1@$$QAM1@Z 1000c690 f i c_aimhelper.obj
 0001:0000b690       ??$?0U_Exact_args_t@std@@AAMAAPAUanimation@c_animation_system@@$0A@@?$tuple@MPAUanimation@c_animation_system@@@std@@QAE@U_Exact_args_t@1@AAMAAPAUanimation@c_animation_system@@@Z 1000c690 f i c_aimhelper.obj
 0001:0000b690       ??$?0U_Exact_args_t@std@@ABQAUanimation@c_animation_system@@ABM$0A@@?$tuple@PAUanimation@c_animation_system@@M@std@@QAE@U_Exact_args_t@1@ABQAUanimation@c_animation_system@@ABM@Z 1000c690 f i c_aimhelper.obj
 0001:0000b690       ??$?0U_Exact_args_t@std@@$$TM$0A@@?$tuple@PAUanimation@c_animation_system@@M@std@@QAE@U_Exact_args_t@1@$$QA$$T$$QAM@Z 1000c690 f i c_aimhelper.obj
 0001:0000b6f0       ??$?0U_Exact_args_t@std@@AAPAUanimation@c_animation_system@@$$V$0A@@?$tuple@PAUanimation@c_animation_system@@@std@@QAE@U_Exact_args_t@1@AAPAUanimation@c_animation_system@@@Z 1000c6f0 f i c_aimhelper.obj
 0001:0000b6f0       ??$?0U_Exact_args_t@std@@M$$V$0A@@?$tuple@M@std@@QAE@U_Exact_args_t@1@$$QAM@Z 1000c6f0 f i c_aimhelper.obj
 0001:0000b6f0       ??$?0U_Exact_args_t@std@@ABM$$V$0A@@?$tuple@M@std@@QAE@U_Exact_args_t@1@ABM@Z 1000c6f0 f i c_aimhelper.obj
 0001:0000b730       ??$?0U_Exact_args_t@std@@Vc_vector3d@@$$TM$0A@@?$tuple@Vc_vector3d@@PAUanimation@c_animation_system@@M@std@@QAE@U_Exact_args_t@1@$$QAVc_vector3d@@$$QA$$T$$QAM@Z 1000c730 f i c_aimhelper.obj
 0001:0000b730       ??$?0U_Exact_args_t@std@@AAVc_vector3d@@ABQAUanimation@c_animation_system@@ABM$0A@@?$tuple@Vc_vector3d@@PAUanimation@c_animation_system@@M@std@@QAE@U_Exact_args_t@1@AAVc_vector3d@@ABQAUanimation@c_animation_system@@ABM@Z 1000c730 f i c_aimhelper.obj
 0001:0000b730       ??$?0U_Exact_args_t@std@@AAVc_vector3d@@AAMAAPAUanimation@c_animation_system@@$0A@@?$tuple@Vc_vector3d@@MPAUanimation@c_animation_system@@@std@@QAE@U_Exact_args_t@1@AAVc_vector3d@@AAMAAPAUanimation@c_animation_system@@@Z 1000c730 f i c_aimhelper.obj
 0001:0000b7b0       ??$?0U_Exact_args_t@std@@ABI$$V$0A@@?$tuple@ABI@std@@QAE@U_Exact_args_t@1@ABI@Z 1000c7b0 f i c_esp.obj
 0001:0000b7b0       ??$?0U_Exact_args_t@std@@I$$V$0A@@?$tuple@$$QAI@std@@QAE@U_Exact_args_t@1@$$QAI@Z 1000c7b0 f i c_aimhelper.obj
 0001:0000b7f0       ??$?0U_Exact_args_t@std@@MMM$0A@@?$tuple@MMM@std@@QAE@U_Exact_args_t@1@$$QAM11@Z 1000c7f0 f i c_aimhelper.obj
 0001:0000b8e0       ??$?0V?$tuple@$$QAI@std@@V?$tuple@$$V@1@$0A@$$Z$S@?$pair@$$CBIUnetvar@c_netvar@@@std@@QAE@AAV?$tuple@$$QAI@1@AAV?$tuple@$$V@1@U?$integer_sequence@I$0A@@1@U?$integer_sequence@I$S@1@@Z 1000c8e0 f i c_aimhelper.obj
 0001:0000b920       ??$?0V?$tuple@$$QAI@std@@V?$tuple@$$V@1@$0A@$$Z$S@?$pair@$$CBIV?$unordered_map@IUnetvar@c_netvar@@U?$hash@I@std@@U?$equal_to@I@4@V?$allocator@U?$pair@$$CBIUnetvar@c_netvar@@@std@@@4@@std@@@std@@QAE@AAV?$tuple@$$QAI@1@AAV?$tuple@$$V@1@U?$integer_sequence@I$0A@@1@U?$integer_sequence@I$S@1@@Z 1000c920 f i c_aimhelper.obj
 0001:0000b960       ??$?0V?$tuple@Vc_vector3d@@MPAUanimation@c_animation_system@@@std@@$0A@@?$optional@V?$tuple@Vc_vector3d@@MPAUanimation@c_animation_system@@@std@@@std@@QAE@$$QAV?$tuple@Vc_vector3d@@MPAUanimation@c_animation_system@@@1@@Z 1000c960 f i c_aimhelper.obj
 0001:0000b9a0       ??$?0V?$tuple@Vc_vector3d@@MPAUanimation@c_animation_system@@@std@@@?$_Non_trivial_copy@U?$_Optional_construct_base@V?$tuple@Vc_vector3d@@MPAUanimation@c_animation_system@@@std@@@std@@@std@@QAE@Uin_place_t@1@$$QAV?$tuple@Vc_vector3d@@MPAUanimation@c_animation_system@@@1@@Z 1000c9a0 f i c_aimhelper.obj
 0001:0000b9d0       ??$?0V?$tuple@Vc_vector3d@@MPAUanimation@c_animation_system@@@std@@@?$_Non_trivial_copy_assign@U?$_Optional_construct_base@V?$tuple@Vc_vector3d@@MPAUanimation@c_animation_system@@@std@@@std@@V?$tuple@Vc_vector3d@@MPAUanimation@c_animation_system@@@2@@std@@QAE@Uin_place_t@1@$$QAV?$tuple@Vc_vector3d@@MPAUanimation@c_animation_system@@@1@@Z 1000c9d0 f i c_aimhelper.obj
 0001:0000ba00       ??$?0V?$tuple@Vc_vector3d@@MPAUanimation@c_animation_system@@@std@@@?$_Non_trivial_move@U?$_Optional_construct_base@V?$tuple@Vc_vector3d@@MPAUanimation@c_animation_system@@@std@@@std@@V?$tuple@Vc_vector3d@@MPAUanimation@c_animation_system@@@2@@std@@QAE@Uin_place_t@1@$$QAV?$tuple@Vc_vector3d@@MPAUanimation@c_animation_system@@@1@@Z 1000ca00 f i c_aimhelper.obj
 0001:0000ba30       ??$?0V?$tuple@Vc_vector3d@@MPAUanimation@c_animation_system@@@std@@@?$_Non_trivial_move_assign@U?$_Optional_construct_base@V?$tuple@Vc_vector3d@@MPAUanimation@c_animation_system@@@std@@@std@@V?$tuple@Vc_vector3d@@MPAUanimation@c_animation_system@@@2@@std@@QAE@Uin_place_t@1@$$QAV?$tuple@Vc_vector3d@@MPAUanimation@c_animation_system@@@1@@Z 1000ca30 f i c_aimhelper.obj
 0001:0000ba60       ??$?0V?$tuple@Vc_vector3d@@MPAUanimation@c_animation_system@@@std@@@?$_Optional_construct_base@V?$tuple@Vc_vector3d@@MPAUanimation@c_animation_system@@@std@@@std@@QAE@Uin_place_t@1@$$QAV?$tuple@Vc_vector3d@@MPAUanimation@c_animation_system@@@1@@Z 1000ca60 f i c_aimhelper.obj
 0001:0000ba90       ??$?0V?$tuple@Vc_vector3d@@MPAUanimation@c_animation_system@@@std@@@?$_Optional_destruct_base@V?$tuple@Vc_vector3d@@MPAUanimation@c_animation_system@@@std@@$00@std@@QAE@Uin_place_t@1@$$QAV?$tuple@Vc_vector3d@@MPAUanimation@c_animation_system@@@1@@Z 1000ca90 f i c_aimhelper.obj
 0001:0000bad0       ??$?4V?$tuple@PAUanimation@c_animation_system@@@std@@PAUanimation@c_animation_system@@$0A@@?$tuple@PAUanimation@c_animation_system@@@std@@QAEAAV01@$$QAV01@@Z 1000cad0 f i c_legitbot.obj
 0001:0000bad0       ??$?4V?$tuple@M@std@@M$0A@@?$tuple@M@std@@QAEAAV01@$$QAV01@@Z 1000cad0 f i c_aimhelper.obj
 0001:0000bb10       ??$?4V?$tuple@MPAUanimation@c_animation_system@@@std@@M$0A@@?$tuple@MPAUanimation@c_animation_system@@@std@@QAEAAV01@$$QAV01@@Z 1000cb10 f i c_legitbot.obj
 0001:0000bb10       ??$?4V?$tuple@PAUanimation@c_animation_system@@M@std@@PAUanimation@c_animation_system@@$0A@@?$tuple@PAUanimation@c_animation_system@@M@std@@QAEAAV01@$$QAV01@@Z 1000cb10 f i c_aimhelper.obj
 0001:0000bb60       ??$?4V?$tuple@Vc_vector3d@@MPAUanimation@c_animation_system@@@std@@Vc_vector3d@@$0A@@?$tuple@Vc_vector3d@@MPAUanimation@c_animation_system@@@std@@QAEAAV01@$$QAV01@@Z 1000cb60 f i c_legitbot.obj
 0001:0000bb60       ??$?4V?$tuple@Vc_vector3d@@PAUanimation@c_animation_system@@M@std@@Vc_vector3d@@$0A@@?$tuple@Vc_vector3d@@PAUanimation@c_animation_system@@M@std@@QAEAAV01@$$QAV01@@Z 1000cb60 f i c_aimhelper.obj
 0001:0000bbc0       ??$_Allocate@$0BA@U_Default_allocate_traits@std@@$0A@@std@@YAPAXI@Z 1000cbc0 f i c_aimhelper.obj
 0001:0000bc20       ??$_Allocate@ABUpiecewise_construct_t@std@@V?$tuple@$$QAI@2@V?$tuple@$$V@2@@?$_List_node_emplace_op@V?$allocator@U?$_List_node@U?$pair@$$CBIUnetvar@c_netvar@@@std@@PAX@std@@@std@@$0A@@std@@QAEAAU?$pair@$$CBIUnetvar@c_netvar@@@1@ABUpiecewise_construct_t@1@$$QAV?$tuple@$$QAI@1@$$QAV?$tuple@$$V@1@@Z 1000cc20 f i c_aimhelper.obj
 0001:0000bd00       ??$_Allocate@ABUpiecewise_construct_t@std@@V?$tuple@$$QAI@2@V?$tuple@$$V@2@@?$_List_node_emplace_op@V?$allocator@U?$_List_node@U?$pair@$$CBIV?$unordered_map@IUnetvar@c_netvar@@U?$hash@I@std@@U?$equal_to@I@4@V?$allocator@U?$pair@$$CBIUnetvar@c_netvar@@@std@@@4@@std@@@std@@PAX@std@@@std@@$0A@@std@@QAEAAU?$pair@$$CBIV?$unordered_map@IUnetvar@c_netvar@@U?$hash@I@std@@U?$equal_to@I@4@V?$allocator@U?$pair@$$CBIUnetvar@c_netvar@@@std@@@4@@std@@@1@ABUpiecewise_construct_t@1@$$QAV?$tuple@$$QAI@1@$$QAV?$tuple@$$V@1@@Z 1000cd00 f i c_aimhelper.obj
 0001:0000bde0       ??$_Allocate_if_necessary@AAU?$pair@$$CBIUnetvar@c_netvar@@@std@@$0A@$0A@@?$_List_node_emplace_op@V?$allocator@U?$_List_node@U?$pair@$$CBIUnetvar@c_netvar@@@std@@PAX@std@@@std@@$0A@@std@@QBEAAU?$pair@$$CBIUnetvar@c_netvar@@@1@AAU21@@Z 1000cde0 f i c_aimhelper.obj
 0001:0000bde0       ??$_Allocate_if_necessary@AAU?$pair@$$CBIVc_font@@@std@@$0A@$0A@@?$_List_node_emplace_op@V?$allocator@U?$_List_node@U?$pair@$$CBIVc_font@@@std@@PAX@std@@@std@@$0A@@std@@QBEAAU?$pair@$$CBIVc_font@@@1@AAU21@@Z 1000cde0 f i c_renderer.obj
 0001:0000bde0       ??$_Allocate_if_necessary@AAU?$pair@$$CBIU?$pair@HH@std@@@std@@$0A@$0A@@?$_List_node_emplace_op@V?$allocator@U?$_List_node@U?$pair@$$CBIU?$pair@HH@std@@@std@@PAX@std@@@std@@$0A@@std@@QBEAAU?$pair@$$CBIU?$pair@HH@std@@@1@AAU21@@Z 1000cde0 f i c_esp.obj
 0001:0000bde0       ??$_Allocate_if_necessary@AAU?$pair@QAVc_hotkey_select@@V?$function@$$A6AXI@Z@std@@@std@@$0A@$0A@@?$_List_node_emplace_op@V?$allocator@U?$_List_node@U?$pair@QAVc_hotkey_select@@V?$function@$$A6AXI@Z@std@@@std@@PAX@std@@@std@@$0A@@std@@QBEAAU?$pair@QAVc_hotkey_select@@V?$function@$$A6AXI@Z@std@@@1@AAU21@@Z 1000cde0 f i c_hotkeys.obj
 0001:0000bde0       ??$_Allocate_if_necessary@AAU?$pair@$$CBIV?$unordered_map@IUnetvar@c_netvar@@U?$hash@I@std@@U?$equal_to@I@4@V?$allocator@U?$pair@$$CBIUnetvar@c_netvar@@@std@@@4@@std@@@std@@$0A@$0A@@?$_List_node_emplace_op@V?$allocator@U?$_List_node@U?$pair@$$CBIV?$unordered_map@IUnetvar@c_netvar@@U?$hash@I@std@@U?$equal_to@I@4@V?$allocator@U?$pair@$$CBIUnetvar@c_netvar@@@std@@@4@@std@@@std@@PAX@std@@@std@@$0A@@std@@QBEAAU?$pair@$$CBIV?$unordered_map@IUnetvar@c_netvar@@U?$hash@I@std@@U?$equal_to@I@4@V?$allocator@U?$pair@$$CBIUnetvar@c_netvar@@@std@@@4@@std@@@1@AAU21@@Z 1000cde0 f i c_aimhelper.obj
 0001:0000be80       ??$_Construct_n_copies_of_ty@V?$_List_unchecked_iterator@V?$_List_val@U?$_List_simple_types@U?$pair@QAVc_hotkey_select@@V?$function@$$A6AXI@Z@std@@@std@@@std@@@std@@@std@@@?$vector@V?$_List_unchecked_iterator@V?$_List_val@U?$_List_simple_types@U?$pair@QAVc_hotkey_select@@V?$function@$$A6AXI@Z@std@@@std@@@std@@@std@@@std@@V?$allocator@V?$_List_unchecked_iterator@V?$_List_val@U?$_List_simple_types@U?$pair@QAVc_hotkey_select@@V?$function@$$A6AXI@Z@std@@@std@@@std@@@std@@@std@@@2@@std@@AAEXIABV?$_List_unchecked_iterator@V?$_List_val@U?$_List_simple_types@U?$pair@QAVc_hotkey_select@@V?$function@$$A6AXI@Z@std@@@std@@@std@@@std@@@1@@Z 1000ce80 f i c_hotkeys.obj
 0001:0000be80       ??$_Construct_n_copies_of_ty@V?$_List_unchecked_iterator@V?$_List_val@U?$_List_simple_types@U?$pair@$$CBIU?$pair@HH@std@@@std@@@std@@@std@@@std@@@?$vector@V?$_List_unchecked_iterator@V?$_List_val@U?$_List_simple_types@U?$pair@$$CBIU?$pair@HH@std@@@std@@@std@@@std@@@std@@V?$allocator@V?$_List_unchecked_iterator@V?$_List_val@U?$_List_simple_types@U?$pair@$$CBIU?$pair@HH@std@@@std@@@std@@@std@@@std@@@2@@std@@AAEXIABV?$_List_unchecked_iterator@V?$_List_val@U?$_List_simple_types@U?$pair@$$CBIU?$pair@HH@std@@@std@@@std@@@std@@@1@@Z 1000ce80 f i c_esp.obj
 0001:0000be80       ??$_Construct_n_copies_of_ty@V?$_List_unchecked_iterator@V?$_List_val@U?$_List_simple_types@U?$pair@$$CBIUanimation_info@c_animation_system@@@std@@@std@@@std@@@std@@@?$vector@V?$_List_unchecked_iterator@V?$_List_val@U?$_List_simple_types@U?$pair@$$CBIUanimation_info@c_animation_system@@@std@@@std@@@std@@@std@@V?$allocator@V?$_List_unchecked_iterator@V?$_List_val@U?$_List_simple_types@U?$pair@$$CBIUanimation_info@c_animation_system@@@std@@@std@@@std@@@std@@@2@@std@@AAEXIABV?$_List_unchecked_iterator@V?$_List_val@U?$_List_simple_types@U?$pair@$$CBIUanimation_info@c_animation_system@@@std@@@std@@@std@@@1@@Z 1000ce80 f i c_aimhelper.obj
 0001:0000be80       ??$_Construct_n_copies_of_ty@V?$_List_unchecked_iterator@V?$_List_val@U?$_List_simple_types@U?$pair@$$CBIV?$unordered_map@IUnetvar@c_netvar@@U?$hash@I@std@@U?$equal_to@I@4@V?$allocator@U?$pair@$$CBIUnetvar@c_netvar@@@std@@@4@@std@@@std@@@std@@@std@@@std@@@?$vector@V?$_List_unchecked_iterator@V?$_List_val@U?$_List_simple_types@U?$pair@$$CBIV?$unordered_map@IUnetvar@c_netvar@@U?$hash@I@std@@U?$equal_to@I@4@V?$allocator@U?$pair@$$CBIUnetvar@c_netvar@@@std@@@4@@std@@@std@@@std@@@std@@@std@@V?$allocator@V?$_List_unchecked_iterator@V?$_List_val@U?$_List_simple_types@U?$pair@$$CBIV?$unordered_map@IUnetvar@c_netvar@@U?$hash@I@std@@U?$equal_to@I@4@V?$allocator@U?$pair@$$CBIUnetvar@c_netvar@@@std@@@4@@std@@@std@@@std@@@std@@@std@@@2@@std@@AAEXIABV?$_List_unchecked_iterator@V?$_List_val@U?$_List_simple_types@U?$pair@$$CBIV?$unordered_map@IUnetvar@c_netvar@@U?$hash@I@std@@U?$equal_to@I@4@V?$allocator@U?$pair@$$CBIUnetvar@c_netvar@@@std@@@4@@std@@@std@@@std@@@std@@@1@@Z 1000ce80 f i c_netvar.obj
 0001:0000be80       ??$_Construct_n_copies_of_ty@V?$_List_unchecked_iterator@V?$_List_val@U?$_List_simple_types@U?$pair@$$CBIUnetvar@c_netvar@@@std@@@std@@@std@@@std@@@?$vector@V?$_List_unchecked_iterator@V?$_List_val@U?$_List_simple_types@U?$pair@$$CBIUnetvar@c_netvar@@@std@@@std@@@std@@@std@@V?$allocator@V?$_List_unchecked_iterator@V?$_List_val@U?$_List_simple_types@U?$pair@$$CBIUnetvar@c_netvar@@@std@@@std@@@std@@@std@@@2@@std@@AAEXIABV?$_List_unchecked_iterator@V?$_List_val@U?$_List_simple_types@U?$pair@$$CBIUnetvar@c_netvar@@@std@@@std@@@std@@@1@@Z 1000ce80 f i c_aimhelper.obj
 0001:0000be80       ??$_Construct_n_copies_of_ty@V?$_List_unchecked_iterator@V?$_List_val@U?$_List_simple_types@U?$pair@$$CBIVc_font@@@std@@@std@@@std@@@std@@@?$vector@V?$_List_unchecked_iterator@V?$_List_val@U?$_List_simple_types@U?$pair@$$CBIVc_font@@@std@@@std@@@std@@@std@@V?$allocator@V?$_List_unchecked_iterator@V?$_List_val@U?$_List_simple_types@U?$pair@$$CBIVc_font@@@std@@@std@@@std@@@std@@@2@@std@@AAEXIABV?$_List_unchecked_iterator@V?$_List_val@U?$_List_simple_types@U?$pair@$$CBIVc_font@@@std@@@std@@@std@@@1@@Z 1000ce80 f i c_renderer.obj
 0001:0000bf30       ??$_Copy_memmove@PAPAUc_incoming_sequence@@PAPAU1@@std@@YAPAPAUc_incoming_sequence@@PAPAU1@00@Z 1000cf30 f i c_net_channel_.obj
 0001:0000bf30       ??$_Copy_memmove@PAPAUanimation@c_animation_system@@PAPAU12@@std@@YAPAPAUanimation@c_animation_system@@PAPAU12@00@Z 1000cf30 f i c_animation_system.obj
 0001:0000bf30       ??$_Copy_memmove@PAHPAH@std@@YAPAHPAH00@Z 1000cf30 f i c_aimhelper.obj
 0001:0000bf30       ??$_Copy_memmove@PAUimpact_info@@PAU1@@std@@YAPAUimpact_info@@PAU1@00@Z 1000cf30 f i c_hitmarker.obj
 0001:0000bf30       ??$_Copy_memmove@PADPAD@std@@YAPADPAD00@Z 1000cf30 f i c_conf.obj
 0001:0000bf30       ??$_Copy_memmove@PBQAUanimation@c_animation_system@@PAPAU12@@std@@YAPAPAUanimation@c_animation_system@@PBQAU12@0PAPAU12@@Z 1000cf30 f i c_aimhelper.obj
 0001:0000bf30       ??$_Copy_memmove@PAPAUshot@resolver@@PAPAU12@@std@@YAPAPAUshot@resolver@@PAPAU12@00@Z 1000cf30 f i c_resolver.obj
 0001:0000bf30       ??$_Copy_memmove@PBEPAE@std@@YAPAEPBE0PAE@Z 1000cf30 f i c_miscellaneous.obj
 0001:0000bf30       ??$_Copy_memmove@PAUhitmarker_info@@PAU1@@std@@YAPAUhitmarker_info@@PAU1@00@Z 1000cf30 f i c_hitmarker.obj
 0001:0000bf30       ??$_Copy_memmove@PAMPAM@std@@YAPAMPAM00@Z 1000cf30 f i c_font.obj
 0001:0000bf30       ??$_Copy_memmove@PAW4hitbox@c_cs_player@@PAW412@@std@@YAPAW4hitbox@c_cs_player@@PAW412@00@Z 1000cf30 f i c_ragebot.obj
 0001:0000bf70       ??$_Deallocate@$0BA@$0A@@std@@YAXPAXI@Z 1000cf70 f i c_aimhelper.obj
 0001:0000bfc0       ??$_Deallocate_plain@V?$allocator@U_Container_proxy@std@@@std@@@std@@YAXAAV?$allocator@U_Container_proxy@std@@@0@QAU_Container_proxy@0@@Z 1000cfc0 f i c_aimhelper.obj
 0001:0000c010       ??$_Delete_plain@V?$allocator@U_Container_proxy@std@@@std@@@std@@YAXAAV?$allocator@U_Container_proxy@std@@@0@QAU_Container_proxy@0@@Z 1000d010 f i c_aimhelper.obj
 0001:0000c070       ??$_Emplace_back@V?$_List_unchecked_iterator@V?$_List_val@U?$_List_simple_types@U?$pair@QAVc_hotkey_select@@V?$function@$$A6AXI@Z@std@@@std@@@std@@@std@@@std@@@?$_Uninitialized_backout_al@PAV?$_List_unchecked_iterator@V?$_List_val@U?$_List_simple_types@U?$pair@QAVc_hotkey_select@@V?$function@$$A6AXI@Z@std@@@std@@@std@@@std@@@std@@V?$allocator@V?$_List_unchecked_iterator@V?$_List_val@U?$_List_simple_types@U?$pair@QAVc_hotkey_select@@V?$function@$$A6AXI@Z@std@@@std@@@std@@@std@@@std@@@2@@std@@QAEX$$QAV?$_List_unchecked_iterator@V?$_List_val@U?$_List_simple_types@U?$pair@QAVc_hotkey_select@@V?$function@$$A6AXI@Z@std@@@std@@@std@@@std@@@1@@Z 1000d070 f i c_hotkeys.obj
 0001:0000c070       ??$_Emplace_back@V?$_List_unchecked_iterator@V?$_List_val@U?$_List_simple_types@U?$pair@$$CBIVc_font@@@std@@@std@@@std@@@std@@@?$_Uninitialized_backout_al@PAV?$_List_unchecked_iterator@V?$_List_val@U?$_List_simple_types@U?$pair@$$CBIVc_font@@@std@@@std@@@std@@@std@@V?$allocator@V?$_List_unchecked_iterator@V?$_List_val@U?$_List_simple_types@U?$pair@$$CBIVc_font@@@std@@@std@@@std@@@std@@@2@@std@@QAEX$$QAV?$_List_unchecked_iterator@V?$_List_val@U?$_List_simple_types@U?$pair@$$CBIVc_font@@@std@@@std@@@std@@@1@@Z 1000d070 f i c_renderer.obj
 0001:0000c070       ??$_Emplace_back@ABV?$_List_unchecked_iterator@V?$_List_val@U?$_List_simple_types@U?$pair@$$CBIU?$pair@HH@std@@@std@@@std@@@std@@@std@@@?$_Uninitialized_backout_al@PAV?$_List_unchecked_iterator@V?$_List_val@U?$_List_simple_types@U?$pair@$$CBIU?$pair@HH@std@@@std@@@std@@@std@@@std@@V?$allocator@V?$_List_unchecked_iterator@V?$_List_val@U?$_List_simple_types@U?$pair@$$CBIU?$pair@HH@std@@@std@@@std@@@std@@@std@@@2@@std@@QAEXABV?$_List_unchecked_iterator@V?$_List_val@U?$_List_simple_types@U?$pair@$$CBIU?$pair@HH@std@@@std@@@std@@@std@@@1@@Z 1000d070 f i c_esp.obj
 0001:0000c070       ??$_Emplace_back@V?$_List_unchecked_iterator@V?$_List_val@U?$_List_simple_types@U?$pair@$$CBIV?$unordered_map@IUnetvar@c_netvar@@U?$hash@I@std@@U?$equal_to@I@4@V?$allocator@U?$pair@$$CBIUnetvar@c_netvar@@@std@@@4@@std@@@std@@@std@@@std@@@std@@@?$_Uninitialized_backout_al@PAV?$_List_unchecked_iterator@V?$_List_val@U?$_List_simple_types@U?$pair@$$CBIV?$unordered_map@IUnetvar@c_netvar@@U?$hash@I@std@@U?$equal_to@I@4@V?$allocator@U?$pair@$$CBIUnetvar@c_netvar@@@std@@@4@@std@@@std@@@std@@@std@@@std@@V?$allocator@V?$_List_unchecked_iterator@V?$_List_val@U?$_List_simple_types@U?$pair@$$CBIV?$unordered_map@IUnetvar@c_netvar@@U?$hash@I@std@@U?$equal_to@I@4@V?$allocator@U?$pair@$$CBIUnetvar@c_netvar@@@std@@@4@@std@@@std@@@std@@@std@@@std@@@2@@std@@QAEX$$QAV?$_List_unchecked_iterator@V?$_List_val@U?$_List_simple_types@U?$pair@$$CBIV?$unordered_map@IUnetvar@c_netvar@@U?$hash@I@std@@U?$equal_to@I@4@V?$allocator@U?$pair@$$CBIUnetvar@c_netvar@@@std@@@4@@std@@@std@@@std@@@std@@@1@@Z 1000d070 f i c_aimhelper.obj
 0001:0000c070       ??$_Emplace_back@ABV?$_List_unchecked_iterator@V?$_List_val@U?$_List_simple_types@U?$pair@$$CBIUanimation_info@c_animation_system@@@std@@@std@@@std@@@std@@@?$_Uninitialized_backout_al@PAV?$_List_unchecked_iterator@V?$_List_val@U?$_List_simple_types@U?$pair@$$CBIUanimation_info@c_animation_system@@@std@@@std@@@std@@@std@@V?$allocator@V?$_List_unchecked_iterator@V?$_List_val@U?$_List_simple_types@U?$pair@$$CBIUanimation_info@c_animation_system@@@std@@@std@@@std@@@std@@@2@@std@@QAEXABV?$_List_unchecked_iterator@V?$_List_val@U?$_List_simple_types@U?$pair@$$CBIUanimation_info@c_animation_system@@@std@@@std@@@std@@@1@@Z 1000d070 f i c_aimhelper.obj
 0001:0000c070       ??$_Emplace_back@V?$_List_unchecked_iterator@V?$_List_val@U?$_List_simple_types@U?$pair@$$CBIUanimation_info@c_animation_system@@@std@@@std@@@std@@@std@@@?$_Uninitialized_backout_al@PAV?$_List_unchecked_iterator@V?$_List_val@U?$_List_simple_types@U?$pair@$$CBIUanimation_info@c_animation_system@@@std@@@std@@@std@@@std@@V?$allocator@V?$_List_unchecked_iterator@V?$_List_val@U?$_List_simple_types@U?$pair@$$CBIUanimation_info@c_animation_system@@@std@@@std@@@std@@@std@@@2@@std@@QAEX$$QAV?$_List_unchecked_iterator@V?$_List_val@U?$_List_simple_types@U?$pair@$$CBIUanimation_info@c_animation_system@@@std@@@std@@@std@@@1@@Z 1000d070 f i c_animation_system.obj
 0001:0000c070       ??$_Emplace_back@ABV?$_List_unchecked_iterator@V?$_List_val@U?$_List_simple_types@U?$pair@$$CBIV?$unordered_map@IUnetvar@c_netvar@@U?$hash@I@std@@U?$equal_to@I@4@V?$allocator@U?$pair@$$CBIUnetvar@c_netvar@@@std@@@4@@std@@@std@@@std@@@std@@@std@@@?$_Uninitialized_backout_al@PAV?$_List_unchecked_iterator@V?$_List_val@U?$_List_simple_types@U?$pair@$$CBIV?$unordered_map@IUnetvar@c_netvar@@U?$hash@I@std@@U?$equal_to@I@4@V?$allocator@U?$pair@$$CBIUnetvar@c_netvar@@@std@@@4@@std@@@std@@@std@@@std@@@std@@V?$allocator@V?$_List_unchecked_iterator@V?$_List_val@U?$_List_simple_types@U?$pair@$$CBIV?$unordered_map@IUnetvar@c_netvar@@U?$hash@I@std@@U?$equal_to@I@4@V?$allocator@U?$pair@$$CBIUnetvar@c_netvar@@@std@@@4@@std@@@std@@@std@@@std@@@std@@@2@@std@@QAEXABV?$_List_unchecked_iterator@V?$_List_val@U?$_List_simple_types@U?$pair@$$CBIV?$unordered_map@IUnetvar@c_netvar@@U?$hash@I@std@@U?$equal_to@I@4@V?$allocator@U?$pair@$$CBIUnetvar@c_netvar@@@std@@@4@@std@@@std@@@std@@@std@@@1@@Z 1000d070 f i c_aimhelper.obj
 0001:0000c070       ??$_Emplace_back@ABV?$_List_unchecked_iterator@V?$_List_val@U?$_List_simple_types@U?$pair@$$CBIVc_font@@@std@@@std@@@std@@@std@@@?$_Uninitialized_backout_al@PAV?$_List_unchecked_iterator@V?$_List_val@U?$_List_simple_types@U?$pair@$$CBIVc_font@@@std@@@std@@@std@@@std@@V?$allocator@V?$_List_unchecked_iterator@V?$_List_val@U?$_List_simple_types@U?$pair@$$CBIVc_font@@@std@@@std@@@std@@@std@@@2@@std@@QAEXABV?$_List_unchecked_iterator@V?$_List_val@U?$_List_simple_types@U?$pair@$$CBIVc_font@@@std@@@std@@@std@@@1@@Z 1000d070 f i c_renderer.obj
 0001:0000c070       ??$_Emplace_back@ABV?$_List_unchecked_iterator@V?$_List_val@U?$_List_simple_types@U?$pair@$$CBIUnetvar@c_netvar@@@std@@@std@@@std@@@std@@@?$_Uninitialized_backout_al@PAV?$_List_unchecked_iterator@V?$_List_val@U?$_List_simple_types@U?$pair@$$CBIUnetvar@c_netvar@@@std@@@std@@@std@@@std@@V?$allocator@V?$_List_unchecked_iterator@V?$_List_val@U?$_List_simple_types@U?$pair@$$CBIUnetvar@c_netvar@@@std@@@std@@@std@@@std@@@2@@std@@QAEXABV?$_List_unchecked_iterator@V?$_List_val@U?$_List_simple_types@U?$pair@$$CBIUnetvar@c_netvar@@@std@@@std@@@std@@@1@@Z 1000d070 f i c_aimhelper.obj
 0001:0000c070       ??$_Emplace_back@V?$_List_unchecked_iterator@V?$_List_val@U?$_List_simple_types@U?$pair@$$CBIUnetvar@c_netvar@@@std@@@std@@@std@@@std@@@?$_Uninitialized_backout_al@PAV?$_List_unchecked_iterator@V?$_List_val@U?$_List_simple_types@U?$pair@$$CBIUnetvar@c_netvar@@@std@@@std@@@std@@@std@@V?$allocator@V?$_List_unchecked_iterator@V?$_List_val@U?$_List_simple_types@U?$pair@$$CBIUnetvar@c_netvar@@@std@@@std@@@std@@@std@@@2@@std@@QAEX$$QAV?$_List_unchecked_iterator@V?$_List_val@U?$_List_simple_types@U?$pair@$$CBIUnetvar@c_netvar@@@std@@@std@@@std@@@1@@Z 1000d070 f i c_aimhelper.obj
 0001:0000c070       ??$_Emplace_back@ABV?$_List_unchecked_iterator@V?$_List_val@U?$_List_simple_types@U?$pair@QAVc_hotkey_select@@V?$function@$$A6AXI@Z@std@@@std@@@std@@@std@@@std@@@?$_Uninitialized_backout_al@PAV?$_List_unchecked_iterator@V?$_List_val@U?$_List_simple_types@U?$pair@QAVc_hotkey_select@@V?$function@$$A6AXI@Z@std@@@std@@@std@@@std@@@std@@V?$allocator@V?$_List_unchecked_iterator@V?$_List_val@U?$_List_simple_types@U?$pair@QAVc_hotkey_select@@V?$function@$$A6AXI@Z@std@@@std@@@std@@@std@@@std@@@2@@std@@QAEXABV?$_List_unchecked_iterator@V?$_List_val@U?$_List_simple_types@U?$pair@QAVc_hotkey_select@@V?$function@$$A6AXI@Z@std@@@std@@@std@@@std@@@1@@Z 1000d070 f i c_hotkeys.obj
 0001:0000c070       ??$_Emplace_back@V?$_List_unchecked_iterator@V?$_List_val@U?$_List_simple_types@U?$pair@$$CBIU?$pair@HH@std@@@std@@@std@@@std@@@std@@@?$_Uninitialized_backout_al@PAV?$_List_unchecked_iterator@V?$_List_val@U?$_List_simple_types@U?$pair@$$CBIU?$pair@HH@std@@@std@@@std@@@std@@@std@@V?$allocator@V?$_List_unchecked_iterator@V?$_List_val@U?$_List_simple_types@U?$pair@$$CBIU?$pair@HH@std@@@std@@@std@@@std@@@std@@@2@@std@@QAEX$$QAV?$_List_unchecked_iterator@V?$_List_val@U?$_List_simple_types@U?$pair@$$CBIU?$pair@HH@std@@@std@@@std@@@std@@@1@@Z 1000d070 f i c_esp.obj
 0001:0000c0d0       ??$_Emplace_back@Uaim_info@c_aimhelper@@@?$_Uninitialized_backout_al@PAUaim_info@c_aimhelper@@V?$allocator@Uaim_info@c_aimhelper@@@std@@@std@@QAEX$$QAUaim_info@c_aimhelper@@@Z 1000d0d0 f i c_aimhelper.obj
 0001:0000c130       ??$_Emplace_back@V?$tuple@MMM@std@@@?$_Uninitialized_backout_al@PAV?$tuple@MMM@std@@V?$allocator@V?$tuple@MMM@std@@@2@@std@@QAEX$$QAV?$tuple@MMM@1@@Z 1000d130 f i c_aimhelper.obj
 0001:0000c190       ??$_Emplace_back_with_unused_capacity@W4hitbox@c_cs_player@@@?$vector@W4hitbox@c_cs_player@@V?$allocator@W4hitbox@c_cs_player@@@std@@@std@@AAEAAW4hitbox@c_cs_player@@$$QAW423@@Z 1000d190 f i c_ragebot.obj
 0001:0000c190       ??$_Emplace_back_with_unused_capacity@H@?$vector@HV?$allocator@H@std@@@std@@AAEAAH$$QAH@Z 1000d190 f i c_aimhelper.obj
 0001:0000c190       ??$_Emplace_back_with_unused_capacity@ABH@?$vector@HV?$allocator@H@std@@@std@@AAEAAHABH@Z 1000d190 f i c_client.obj
 0001:0000c190       ??$_Emplace_back_with_unused_capacity@PAUanimation@c_animation_system@@@?$vector@PAUanimation@c_animation_system@@V?$allocator@PAUanimation@c_animation_system@@@std@@@std@@AAEAAPAUanimation@c_animation_system@@$$QAPAU23@@Z 1000d190 f i c_animation_system.obj
 0001:0000c220       ??$_Emplace_back_with_unused_capacity@MMM@?$vector@V?$tuple@MMM@std@@V?$allocator@V?$tuple@MMM@std@@@2@@std@@AAEAAV?$tuple@MMM@1@$$QAM00@Z 1000d220 f i c_aimhelper.obj
 0001:0000c2d0       ??$_Emplace_back_with_unused_capacity@AAVc_vector3d@@MAAPAUanimation@c_animation_system@@_NAAV1@MMAAW4hitbox@c_cs_player@@H@?$vector@Uaim_info@c_aimhelper@@V?$allocator@Uaim_info@c_aimhelper@@@std@@@std@@AAEAAUaim_info@c_aimhelper@@AAVc_vector3d@@$$QAMAAPAUanimation@c_animation_system@@$$QA_N011AAW4hitbox@c_cs_player@@$$QAH@Z 1000d2d0 f i c_ragebot.obj
 0001:0000c2d0       ??$_Emplace_back_with_unused_capacity@Vc_vector3d@@MAAPAUanimation@c_animation_system@@_NABV1@AAMAAMAAW4hitbox@c_cs_player@@AAH@?$vector@Uaim_info@c_aimhelper@@V?$allocator@Uaim_info@c_aimhelper@@@std@@@std@@AAEAAUaim_info@c_aimhelper@@$$QAVc_vector3d@@$$QAMAAPAUanimation@c_animation_system@@$$QA_NABV4@AAM5AAW4hitbox@c_cs_player@@AAH@Z 1000d2d0 f i c_aimhelper.obj
 0001:0000c400       ??$_Emplace_reallocate@H@?$vector@HV?$allocator@H@std@@@std@@QAEPAHQAH$$QAH@Z 1000d400 f i c_aimhelper.obj
 0001:0000c400       ??$_Emplace_reallocate@ABH@?$vector@HV?$allocator@H@std@@@std@@QAEPAHQAHABH@Z 1000d400 f i c_client.obj
 0001:0000c400       ??$_Emplace_reallocate@W4hitbox@c_cs_player@@@?$vector@W4hitbox@c_cs_player@@V?$allocator@W4hitbox@c_cs_player@@@std@@@std@@QAEPAW4hitbox@c_cs_player@@QAW423@$$QAW423@@Z 1000d400 f i c_ragebot.obj
 0001:0000c400       ??$_Emplace_reallocate@PAUanimation@c_animation_system@@@?$vector@PAUanimation@c_animation_system@@V?$allocator@PAUanimation@c_animation_system@@@std@@@std@@QAEPAPAUanimation@c_animation_system@@QAPAU23@$$QAPAU23@@Z 1000d400 f i c_animation_system.obj
 0001:0000c5e0       ??$_Emplace_reallocate@MMM@?$vector@V?$tuple@MMM@std@@V?$allocator@V?$tuple@MMM@std@@@2@@std@@QAEPAV?$tuple@MMM@1@QAV21@$$QAM11@Z 1000d5e0 f i c_aimhelper.obj
 0001:0000c7f0       ??$_Emplace_reallocate@Vc_vector3d@@MAAPAUanimation@c_animation_system@@_NABV1@AAMAAMAAW4hitbox@c_cs_player@@AAH@?$vector@Uaim_info@c_aimhelper@@V?$allocator@Uaim_info@c_aimhelper@@@std@@@std@@QAEPAUaim_info@c_aimhelper@@QAU23@$$QAVc_vector3d@@$$QAMAAPAUanimation@c_animation_system@@$$QA_NABV4@AAM6AAW4hitbox@c_cs_player@@AAH@Z 1000d7f0 f i c_aimhelper.obj
 0001:0000c7f0       ??$_Emplace_reallocate@AAVc_vector3d@@MAAPAUanimation@c_animation_system@@_NAAV1@MMAAW4hitbox@c_cs_player@@H@?$vector@Uaim_info@c_aimhelper@@V?$allocator@Uaim_info@c_aimhelper@@@std@@@std@@QAEPAUaim_info@c_aimhelper@@QAU23@AAVc_vector3d@@$$QAMAAPAUanimation@c_animation_system@@$$QA_N122AAW4hitbox@c_cs_player@@$$QAH@Z 1000d7f0 f i c_ragebot.obj
 0001:0000ca70       ??$_Fill_memset_is_safe@PAV?$_List_unchecked_iterator@V?$_List_val@U?$_List_simple_types@U?$pair@$$CBIV?$unordered_map@IUnetvar@c_netvar@@U?$hash@I@std@@U?$equal_to@I@4@V?$allocator@U?$pair@$$CBIUnetvar@c_netvar@@@std@@@4@@std@@@std@@@std@@@std@@@std@@V12@@std@@YA?AU?$integral_constant@_N$0A@@0@ABQAV?$_List_unchecked_iterator@V?$_List_val@U?$_List_simple_types@U?$pair@$$CBIV?$unordered_map@IUnetvar@c_netvar@@U?$hash@I@std@@U?$equal_to@I@4@V?$allocator@U?$pair@$$CBIUnetvar@c_netvar@@@std@@@4@@std@@@std@@@std@@@std@@@0@ABV20@@Z 1000da70 f i c_aimhelper.obj
 0001:0000ca70       ??$_Fill_memset_is_safe@PAV?$_List_unchecked_iterator@V?$_List_val@U?$_List_simple_types@U?$pair@$$CBIUanimation_info@c_animation_system@@@std@@@std@@@std@@@std@@V12@@std@@YA?AU?$integral_constant@_N$0A@@0@ABQAV?$_List_unchecked_iterator@V?$_List_val@U?$_List_simple_types@U?$pair@$$CBIUanimation_info@c_animation_system@@@std@@@std@@@std@@@0@ABV20@@Z 1000da70 f i c_animation_system.obj
 0001:0000ca70       ??$_Fill_memset_is_safe@PAV?$_List_unchecked_iterator@V?$_List_val@U?$_List_simple_types@U?$pair@$$CBIU?$pair@HH@std@@@std@@@std@@@std@@@std@@V12@@std@@YA?AU?$integral_constant@_N$0A@@0@ABQAV?$_List_unchecked_iterator@V?$_List_val@U?$_List_simple_types@U?$pair@$$CBIU?$pair@HH@std@@@std@@@std@@@std@@@0@ABV20@@Z 1000da70 f i c_esp.obj
 0001:0000ca70       ??$_Fill_memset_is_safe@PAV?$_List_unchecked_iterator@V?$_List_val@U?$_List_simple_types@U?$pair@$$CBIVc_font@@@std@@@std@@@std@@@std@@V12@@std@@YA?AU?$integral_constant@_N$0A@@0@ABQAV?$_List_unchecked_iterator@V?$_List_val@U?$_List_simple_types@U?$pair@$$CBIVc_font@@@std@@@std@@@std@@@0@ABV20@@Z 1000da70 f i c_renderer.obj
 0001:0000ca70       ??$_Fill_memset_is_safe@PAV?$_List_unchecked_iterator@V?$_List_val@U?$_List_simple_types@U?$pair@$$CBIUnetvar@c_netvar@@@std@@@std@@@std@@@std@@V12@@std@@YA?AU?$integral_constant@_N$0A@@0@ABQAV?$_List_unchecked_iterator@V?$_List_val@U?$_List_simple_types@U?$pair@$$CBIUnetvar@c_netvar@@@std@@@std@@@std@@@0@ABV20@@Z 1000da70 f i c_aimhelper.obj
 0001:0000ca70       ??$_Fill_memset_is_safe@PAV?$_List_unchecked_iterator@V?$_List_val@U?$_List_simple_types@U?$pair@QAVc_hotkey_select@@V?$function@$$A6AXI@Z@std@@@std@@@std@@@std@@@std@@V12@@std@@YA?AU?$integral_constant@_N$0A@@0@ABQAV?$_List_unchecked_iterator@V?$_List_val@U?$_List_simple_types@U?$pair@QAVc_hotkey_select@@V?$function@$$A6AXI@Z@std@@@std@@@std@@@std@@@0@ABV20@@Z 1000da70 f i c_hotkeys.obj
 0001:0000ca80       ??$_Fill_unchecked1@PAV?$_List_unchecked_iterator@V?$_List_val@U?$_List_simple_types@U?$pair@$$CBIVc_font@@@std@@@std@@@std@@@std@@V12@@std@@YAXPAV?$_List_unchecked_iterator@V?$_List_val@U?$_List_simple_types@U?$pair@$$CBIVc_font@@@std@@@std@@@std@@@0@0ABV10@U?$integral_constant@_N$0A@@0@@Z 1000da80 f i c_renderer.obj
 0001:0000ca80       ??$_Fill_unchecked1@PAV?$_List_unchecked_iterator@V?$_List_val@U?$_List_simple_types@U?$pair@$$CBIUnetvar@c_netvar@@@std@@@std@@@std@@@std@@V12@@std@@YAXPAV?$_List_unchecked_iterator@V?$_List_val@U?$_List_simple_types@U?$pair@$$CBIUnetvar@c_netvar@@@std@@@std@@@std@@@0@0ABV10@U?$integral_constant@_N$0A@@0@@Z 1000da80 f i c_aimhelper.obj
 0001:0000ca80       ??$_Fill_unchecked1@PAV?$_List_unchecked_iterator@V?$_List_val@U?$_List_simple_types@U?$pair@$$CBIUanimation_info@c_animation_system@@@std@@@std@@@std@@@std@@V12@@std@@YAXPAV?$_List_unchecked_iterator@V?$_List_val@U?$_List_simple_types@U?$pair@$$CBIUanimation_info@c_animation_system@@@std@@@std@@@std@@@0@0ABV10@U?$integral_constant@_N$0A@@0@@Z 1000da80 f i c_animation_system.obj
 0001:0000ca80       ??$_Fill_unchecked1@PAV?$_List_unchecked_iterator@V?$_List_val@U?$_List_simple_types@U?$pair@$$CBIU?$pair@HH@std@@@std@@@std@@@std@@@std@@V12@@std@@YAXPAV?$_List_unchecked_iterator@V?$_List_val@U?$_List_simple_types@U?$pair@$$CBIU?$pair@HH@std@@@std@@@std@@@std@@@0@0ABV10@U?$integral_constant@_N$0A@@0@@Z 1000da80 f i c_esp.obj
 0001:0000ca80       ??$_Fill_unchecked1@PAV?$_List_unchecked_iterator@V?$_List_val@U?$_List_simple_types@U?$pair@$$CBIV?$unordered_map@IUnetvar@c_netvar@@U?$hash@I@std@@U?$equal_to@I@4@V?$allocator@U?$pair@$$CBIUnetvar@c_netvar@@@std@@@4@@std@@@std@@@std@@@std@@@std@@V12@@std@@YAXPAV?$_List_unchecked_iterator@V?$_List_val@U?$_List_simple_types@U?$pair@$$CBIV?$unordered_map@IUnetvar@c_netvar@@U?$hash@I@std@@U?$equal_to@I@4@V?$allocator@U?$pair@$$CBIUnetvar@c_netvar@@@std@@@4@@std@@@std@@@std@@@std@@@0@0ABV10@U?$integral_constant@_N$0A@@0@@Z 1000da80 f i c_aimhelper.obj
 0001:0000ca80       ??$_Fill_unchecked1@PAV?$_List_unchecked_iterator@V?$_List_val@U?$_List_simple_types@U?$pair@QAVc_hotkey_select@@V?$function@$$A6AXI@Z@std@@@std@@@std@@@std@@@std@@V12@@std@@YAXPAV?$_List_unchecked_iterator@V?$_List_val@U?$_List_simple_types@U?$pair@QAVc_hotkey_select@@V?$function@$$A6AXI@Z@std@@@std@@@std@@@std@@@0@0ABV10@U?$integral_constant@_N$0A@@0@@Z 1000da80 f i c_hotkeys.obj
 0001:0000cab0       ??$_Fill_unchecked@PAV?$_List_unchecked_iterator@V?$_List_val@U?$_List_simple_types@U?$pair@QAVc_hotkey_select@@V?$function@$$A6AXI@Z@std@@@std@@@std@@@std@@@std@@V12@@std@@YAXPAV?$_List_unchecked_iterator@V?$_List_val@U?$_List_simple_types@U?$pair@QAVc_hotkey_select@@V?$function@$$A6AXI@Z@std@@@std@@@std@@@std@@@0@0ABV10@@Z 1000dab0 f i c_hotkeys.obj
 0001:0000cab0       ??$_Fill_unchecked@PAV?$_List_unchecked_iterator@V?$_List_val@U?$_List_simple_types@U?$pair@$$CBIV?$unordered_map@IUnetvar@c_netvar@@U?$hash@I@std@@U?$equal_to@I@4@V?$allocator@U?$pair@$$CBIUnetvar@c_netvar@@@std@@@4@@std@@@std@@@std@@@std@@@std@@V12@@std@@YAXPAV?$_List_unchecked_iterator@V?$_List_val@U?$_List_simple_types@U?$pair@$$CBIV?$unordered_map@IUnetvar@c_netvar@@U?$hash@I@std@@U?$equal_to@I@4@V?$allocator@U?$pair@$$CBIUnetvar@c_netvar@@@std@@@4@@std@@@std@@@std@@@std@@@0@0ABV10@@Z 1000dab0 f i c_aimhelper.obj
 0001:0000cab0       ??$_Fill_unchecked@PAV?$_List_unchecked_iterator@V?$_List_val@U?$_List_simple_types@U?$pair@$$CBIUanimation_info@c_animation_system@@@std@@@std@@@std@@@std@@V12@@std@@YAXPAV?$_List_unchecked_iterator@V?$_List_val@U?$_List_simple_types@U?$pair@$$CBIUanimation_info@c_animation_system@@@std@@@std@@@std@@@0@0ABV10@@Z 1000dab0 f i c_animation_system.obj
 0001:0000cab0       ??$_Fill_unchecked@PAV?$_List_unchecked_iterator@V?$_List_val@U?$_List_simple_types@U?$pair@$$CBIUnetvar@c_netvar@@@std@@@std@@@std@@@std@@V12@@std@@YAXPAV?$_List_unchecked_iterator@V?$_List_val@U?$_List_simple_types@U?$pair@$$CBIUnetvar@c_netvar@@@std@@@std@@@std@@@0@0ABV10@@Z 1000dab0 f i c_aimhelper.obj
 0001:0000cab0       ??$_Fill_unchecked@PAV?$_List_unchecked_iterator@V?$_List_val@U?$_List_simple_types@U?$pair@$$CBIVc_font@@@std@@@std@@@std@@@std@@V12@@std@@YAXPAV?$_List_unchecked_iterator@V?$_List_val@U?$_List_simple_types@U?$pair@$$CBIVc_font@@@std@@@std@@@std@@@0@0ABV10@@Z 1000dab0 f i c_renderer.obj
 0001:0000cab0       ??$_Fill_unchecked@PAV?$_List_unchecked_iterator@V?$_List_val@U?$_List_simple_types@U?$pair@$$CBIU?$pair@HH@std@@@std@@@std@@@std@@@std@@V12@@std@@YAXPAV?$_List_unchecked_iterator@V?$_List_val@U?$_List_simple_types@U?$pair@$$CBIU?$pair@HH@std@@@std@@@std@@@std@@@0@0ABV10@@Z 1000dab0 f i c_esp.obj
 0001:0000caf0       ??$_Fnv1a_append_value@PAVc_hotkey_select@@@std@@YAIIABQAVc_hotkey_select@@@Z 1000daf0 f i c_hotkeys.obj
 0001:0000caf0       ??$_Fnv1a_append_value@I@std@@YAIIABI@Z 1000daf0 f i c_aimhelper.obj
 0001:0000cb10       ??$_Free_non_head@V?$allocator@U?$_List_node@U?$pair@$$CBIUanimation_info@c_animation_system@@@std@@PAX@std@@@std@@@?$_List_node@U?$pair@$$CBIUanimation_info@c_animation_system@@@std@@PAX@std@@SAXAAV?$allocator@U?$_List_node@U?$pair@$$CBIUanimation_info@c_animation_system@@@std@@PAX@std@@@1@PAU01@@Z 1000db10 f i c_aimhelper.obj
 0001:0000cb60       ??$_Freenode0@V?$allocator@U?$_List_node@U?$pair@$$CBIUanimation_info@c_animation_system@@@std@@PAX@std@@@std@@@?$_List_node@U?$pair@$$CBIUanimation_info@c_animation_system@@@std@@PAX@std@@SAXAAV?$allocator@U?$_List_node@U?$pair@$$CBIUanimation_info@c_animation_system@@@std@@PAX@std@@@1@PAU01@@Z 1000db60 f i c_aimhelper.obj
 0001:0000cbe0       ??$_Freenode@V?$allocator@U?$_List_node@U?$pair@$$CBIUanimation_info@c_animation_system@@@std@@PAX@std@@@std@@@?$_List_node@U?$pair@$$CBIUanimation_info@c_animation_system@@@std@@PAX@std@@SAXAAV?$allocator@U?$_List_node@U?$pair@$$CBIUanimation_info@c_animation_system@@@std@@PAX@std@@@1@PAU01@@Z 1000dbe0 f i c_aimhelper.obj
 0001:0000cc40       ??$_Get_size_of_n@$03@std@@YAII@Z 1000dc40 f i c_aimhelper.obj
 0001:0000cc70       ??$_Get_size_of_n@$0BE@@std@@YAII@Z 1000dc70 f i c_aimhelper.obj
 0001:0000cca0       ??$_Get_size_of_n@$0BPJA@@std@@YAII@Z 1000dca0 f i c_aimhelper.obj
 0001:0000ccd0       ??$_Get_size_of_n@$0CM@@std@@YAII@Z 1000dcd0 f i c_aimhelper.obj
 0001:0000cd00       ??$_Get_size_of_n@$0DE@@std@@YAII@Z 1000dd00 f i c_aimhelper.obj
 0001:0000cd30       ??$_Get_size_of_n@$0M@@std@@YAII@Z 1000dd30 f i c_aimhelper.obj
 0001:0000cd60       ??$_Hash_representation@PAVc_hotkey_select@@@std@@YAIABQAVc_hotkey_select@@@Z 1000dd60 f i c_hotkeys.obj
 0001:0000cd60       ??$_Hash_representation@I@std@@YAIABI@Z 1000dd60 f i c_aimhelper.obj
 0001:0000cd80       ??$_Idl_distance@PAHPAH@std@@YAHABQAH0@Z 1000dd80 f i c_aimhelper.obj
 0001:0000cd80       ??$_Idl_distance@PAV?$_List_unchecked_iterator@V?$_List_val@U?$_List_simple_types@U?$pair@$$CBIUanimation_info@c_animation_system@@@std@@@std@@@std@@@std@@PAV12@@std@@YAHABQAV?$_List_unchecked_iterator@V?$_List_val@U?$_List_simple_types@U?$pair@$$CBIUanimation_info@c_animation_system@@@std@@@std@@@std@@@0@0@Z 1000dd80 f i c_animation_system.obj
 0001:0000cd80       ??$_Idl_distance@PAPAUshot@resolver@@PAPAU12@@std@@YAHABQAPAUshot@resolver@@0@Z 1000dd80 f i c_resolver.obj
 0001:0000cd80       ??$_Idl_distance@PAV?$_List_unchecked_iterator@V?$_List_val@U?$_List_simple_types@U?$pair@$$CBIV?$unordered_map@IUnetvar@c_netvar@@U?$hash@I@std@@U?$equal_to@I@4@V?$allocator@U?$pair@$$CBIUnetvar@c_netvar@@@std@@@4@@std@@@std@@@std@@@std@@@std@@PAV12@@std@@YAHABQAV?$_List_unchecked_iterator@V?$_List_val@U?$_List_simple_types@U?$pair@$$CBIV?$unordered_map@IUnetvar@c_netvar@@U?$hash@I@std@@U?$equal_to@I@4@V?$allocator@U?$pair@$$CBIUnetvar@c_netvar@@@std@@@4@@std@@@std@@@std@@@std@@@0@0@Z 1000dd80 f i c_aimhelper.obj
 0001:0000cd80       ??$_Idl_distance@PAPAUc_incoming_sequence@@PAPAU1@@std@@YAHABQAPAUc_incoming_sequence@@0@Z 1000dd80 f i c_net_channel_.obj
 0001:0000cd80       ??$_Idl_distance@PAV?$_List_unchecked_iterator@V?$_List_val@U?$_List_simple_types@U?$pair@$$CBIUnetvar@c_netvar@@@std@@@std@@@std@@@std@@PAV12@@std@@YAHABQAV?$_List_unchecked_iterator@V?$_List_val@U?$_List_simple_types@U?$pair@$$CBIUnetvar@c_netvar@@@std@@@std@@@std@@@0@0@Z 1000dd80 f i c_aimhelper.obj
 0001:0000cd80       ??$_Idl_distance@PAV?$_List_unchecked_iterator@V?$_List_val@U?$_List_simple_types@U?$pair@QAVc_hotkey_select@@V?$function@$$A6AXI@Z@std@@@std@@@std@@@std@@@std@@PAV12@@std@@YAHABQAV?$_List_unchecked_iterator@V?$_List_val@U?$_List_simple_types@U?$pair@QAVc_hotkey_select@@V?$function@$$A6AXI@Z@std@@@std@@@std@@@std@@@0@0@Z 1000dd80 f i c_hotkeys.obj
 0001:0000cd80       ??$_Idl_distance@PAPAUanimation@c_animation_system@@PAPAU12@@std@@YAHABQAPAUanimation@c_animation_system@@0@Z 1000dd80 f i c_animation_system.obj
 0001:0000cd80       ??$_Idl_distance@PAV?$_List_unchecked_iterator@V?$_List_val@U?$_List_simple_types@U?$pair@$$CBIU?$pair@HH@std@@@std@@@std@@@std@@@std@@PAV12@@std@@YAHABQAV?$_List_unchecked_iterator@V?$_List_val@U?$_List_simple_types@U?$pair@$$CBIU?$pair@HH@std@@@std@@@std@@@std@@@0@0@Z 1000dd80 f i c_esp.obj
 0001:0000cd80       ??$_Idl_distance@PBQAUanimation@c_animation_system@@PBQAU12@@std@@YAHABQBQAUanimation@c_animation_system@@0@Z 1000dd80 f i c_aimhelper.obj
 0001:0000cd80       ??$_Idl_distance@PAV?$_List_unchecked_iterator@V?$_List_val@U?$_List_simple_types@U?$pair@$$CBIVc_font@@@std@@@std@@@std@@@std@@PAV12@@std@@YAHABQAV?$_List_unchecked_iterator@V?$_List_val@U?$_List_simple_types@U?$pair@$$CBIVc_font@@@std@@@std@@@std@@@0@0@Z 1000dd80 f i c_renderer.obj
 0001:0000cd80       ??$_Idl_distance@PAW4hitbox@c_cs_player@@PAW412@@std@@YAHABQAW4hitbox@c_cs_player@@0@Z 1000dd80 f i c_ragebot.obj
 0001:0000cd80       ??$_Idl_distance@PAMPAM@std@@YAHABQAM0@Z 1000dd80 f i c_font.obj
 0001:0000cda0       ??$_Idl_distance@PAUaim_info@c_aimhelper@@PAU12@@std@@YAHABQAUaim_info@c_aimhelper@@0@Z 1000dda0 f i c_aimhelper.obj
 0001:0000cdc0       ??$_Idl_distance@PAV?$vector@MV?$allocator@M@std@@@std@@PAV12@@std@@YAHABQAV?$vector@MV?$allocator@M@std@@@0@0@Z 1000ddc0 f i c_font.obj
 0001:0000cdc0       ??$_Idl_distance@PAVc_vector3d@@PAV1@@std@@YAHABQAVc_vector3d@@0@Z 1000ddc0 f i c_resolver.obj
 0001:0000cdc0       ??$_Idl_distance@PAV?$tuple@MMM@std@@PAV12@@std@@YAHABQAV?$tuple@MMM@0@0@Z 1000ddc0 f i c_aimhelper.obj
 0001:0000cde0       ??$_Insert@AAU?$pair@$$CBIUnetvar@c_netvar@@@std@@U?$_List_node_emplace_op@V?$allocator@U?$_List_node@U?$pair@$$CBIUnetvar@c_netvar@@@std@@PAX@std@@@std@@$0A@@2@@?$_Hash@V?$_Umap_traits@IUnetvar@c_netvar@@V?$_Uhash_compare@IU?$hash@I@std@@U?$equal_to@I@2@@std@@V?$allocator@U?$pair@$$CBIUnetvar@c_netvar@@@std@@@4@$0A@@std@@@std@@IAE?AU?$pair@PAU?$_List_node@U?$pair@$$CBIUnetvar@c_netvar@@@std@@PAX@std@@_N@1@AAU?$pair@$$CBIUnetvar@c_netvar@@@1@AAU?$_List_node_emplace_op@V?$allocator@U?$_List_node@U?$pair@$$CBIUnetvar@c_netvar@@@std@@PAX@std@@@std@@$0A@@1@@Z 1000dde0 f i c_aimhelper.obj
 0001:0000d1c0       ??$_Insert@AAU?$pair@$$CBIV?$unordered_map@IUnetvar@c_netvar@@U?$hash@I@std@@U?$equal_to@I@4@V?$allocator@U?$pair@$$CBIUnetvar@c_netvar@@@std@@@4@@std@@@std@@U?$_List_node_emplace_op@V?$allocator@U?$_List_node@U?$pair@$$CBIV?$unordered_map@IUnetvar@c_netvar@@U?$hash@I@std@@U?$equal_to@I@4@V?$allocator@U?$pair@$$CBIUnetvar@c_netvar@@@std@@@4@@std@@@std@@PAX@std@@@std@@$0A@@2@@?$_Hash@V?$_Umap_traits@IV?$unordered_map@IUnetvar@c_netvar@@U?$hash@I@std@@U?$equal_to@I@4@V?$allocator@U?$pair@$$CBIUnetvar@c_netvar@@@std@@@4@@std@@V?$_Uhash_compare@IU?$hash@I@std@@U?$equal_to@I@2@@2@V?$allocator@U?$pair@$$CBIV?$unordered_map@IUnetvar@c_netvar@@U?$hash@I@std@@U?$equal_to@I@4@V?$allocator@U?$pair@$$CBIUnetvar@c_netvar@@@std@@@4@@std@@@std@@@2@$0A@@std@@@std@@IAE?AU?$pair@PAU?$_List_node@U?$pair@$$CBIV?$unordered_map@IUnetvar@c_netvar@@U?$hash@I@std@@U?$equal_to@I@4@V?$allocator@U?$pair@$$CBIUnetvar@c_netvar@@@std@@@4@@std@@@std@@PAX@std@@_N@1@AAU?$pair@$$CBIV?$unordered_map@IUnetvar@c_netvar@@U?$hash@I@std@@U?$equal_to@I@4@V?$allocator@U?$pair@$$CBIUnetvar@c_netvar@@@std@@@4@@std@@@1@AAU?$_List_node_emplace_op@V?$allocator@U?$_List_node@U?$pair@$$CBIV?$unordered_map@IUnetvar@c_netvar@@U?$hash@I@std@@U?$equal_to@I@4@V?$allocator@U?$pair@$$CBIUnetvar@c_netvar@@@std@@@4@@std@@@std@@PAX@std@@@std@@$0A@@1@@Z 1000e1c0 f i c_aimhelper.obj
 0001:0000d5a0       ??$_Range_construct_or_tidy@PBQAUanimation@c_animation_system@@@?$vector@PAUanimation@c_animation_system@@V?$allocator@PAUanimation@c_animation_system@@@std@@@std@@AAEXPBQAUanimation@c_animation_system@@0Uforward_iterator_tag@1@@Z 1000e5a0 f i c_aimhelper.obj
 0001:0000d6f0       ??$_Seek_wrapped@V?$_List_unchecked_iterator@V?$_List_val@U?$_List_simple_types@U?$pair@QAVc_hotkey_select@@V?$function@$$A6AXI@Z@std@@@std@@@std@@@std@@@std@@@std@@YAXAAPAV?$_List_unchecked_iterator@V?$_List_val@U?$_List_simple_types@U?$pair@QAVc_hotkey_select@@V?$function@$$A6AXI@Z@std@@@std@@@std@@@std@@@0@QAV10@@Z 1000e6f0 f i c_hotkeys.obj
 0001:0000d6f0       ??$_Seek_wrapped@V?$_List_unchecked_iterator@V?$_List_val@U?$_List_simple_types@U?$pair@$$CBIU?$pair@HH@std@@@std@@@std@@@std@@@std@@@std@@YAXAAPAV?$_List_unchecked_iterator@V?$_List_val@U?$_List_simple_types@U?$pair@$$CBIU?$pair@HH@std@@@std@@@std@@@std@@@0@QAV10@@Z 1000e6f0 f i c_esp.obj
 0001:0000d6f0       ??$_Seek_wrapped@V?$_List_unchecked_iterator@V?$_List_val@U?$_List_simple_types@U?$pair@$$CBIVc_font@@@std@@@std@@@std@@@std@@@std@@YAXAAPAV?$_List_unchecked_iterator@V?$_List_val@U?$_List_simple_types@U?$pair@$$CBIVc_font@@@std@@@std@@@std@@@0@QAV10@@Z 1000e6f0 f i c_renderer.obj
 0001:0000d6f0       ??$_Seek_wrapped@V?$_List_unchecked_iterator@V?$_List_val@U?$_List_simple_types@U?$pair@$$CBIUnetvar@c_netvar@@@std@@@std@@@std@@@std@@@std@@YAXAAPAV?$_List_unchecked_iterator@V?$_List_val@U?$_List_simple_types@U?$pair@$$CBIUnetvar@c_netvar@@@std@@@std@@@std@@@0@QAV10@@Z 1000e6f0 f i c_aimhelper.obj
 0001:0000d6f0       ??$_Seek_wrapped@Uimpact_info@@@std@@YAXAAPAUimpact_info@@QAU1@@Z 1000e6f0 f i c_hitmarker.obj
 0001:0000d6f0       ??$_Seek_wrapped@Uaim_info@c_aimhelper@@@std@@YAXAAPAUaim_info@c_aimhelper@@QAU12@@Z 1000e6f0 f i c_aimhelper.obj
 0001:0000d6f0       ??$_Seek_wrapped@V?$vector@MV?$allocator@M@std@@@std@@@std@@YAXAAPAV?$vector@MV?$allocator@M@std@@@0@QAV10@@Z 1000e6f0 f i c_font.obj
 0001:0000d6f0       ??$_Seek_wrapped@V?$function@$$A6AXXZ@std@@@std@@YAXAAPAV?$function@$$A6AXXZ@0@QAV10@@Z 1000e6f0 f i c_renderer.obj
 0001:0000d6f0       ??$_Seek_wrapped@U?$pair@PAVc_cs_player@@M@std@@@std@@YAXAAPAU?$pair@PAVc_cs_player@@M@0@QAU10@@Z 1000e6f0 f i c_chams.obj
 0001:0000d6f0       ??$_Seek_wrapped@Unade_info@c_esp@@@std@@YAXAAPAUnade_info@c_esp@@QAU12@@Z 1000e6f0 f i c_esp.obj
 0001:0000d6f0       ??$_Seek_wrapped@Vc_vector3d@@@std@@YAXAAPAVc_vector3d@@QAV1@@Z 1000e6f0 f i c_resolver.obj
 0001:0000d6f0       ??$_Seek_wrapped@V?$function@$$A6AXI@Z@std@@@std@@YAXAAPAV?$function@$$A6AXI@Z@0@QAV10@@Z 1000e6f0 f i c_hotkeys.obj
 0001:0000d6f0       ??$_Seek_wrapped@Vc_vector2d@@@std@@YAXAAPAVc_vector2d@@QAV1@@Z 1000e6f0 f i c_renderer.obj
 0001:0000d6f0       ??$_Seek_wrapped@V?$_List_unchecked_iterator@V?$_List_val@U?$_List_simple_types@U?$pair@$$CBIUanimation_info@c_animation_system@@@std@@@std@@@std@@@std@@@std@@YAXAAPAV?$_List_unchecked_iterator@V?$_List_val@U?$_List_simple_types@U?$pair@$$CBIUanimation_info@c_animation_system@@@std@@@std@@@std@@@0@QAV10@@Z 1000e6f0 f i c_animation_system.obj
 0001:0000d6f0       ??$_Seek_wrapped@E@std@@YAXAAPAEQAE@Z 1000e6f0 f i c_miscellaneous.obj
 0001:0000d6f0       ??$_Seek_wrapped@PAUc_incoming_sequence@@@std@@YAXAAPAPAUc_incoming_sequence@@QAPAU1@@Z 1000e6f0 f i c_net_channel_.obj
 0001:0000d6f0       ??$_Seek_wrapped@Uplayer_info@c_esp@@@std@@YAXAAPAUplayer_info@c_esp@@QAU12@@Z 1000e6f0 f i c_esp.obj
 0001:0000d6f0       ??$_Seek_wrapped@V?$basic_string@DU?$char_traits@D@std@@V?$allocator@D@2@@std@@@std@@YAXAAPAV?$basic_string@DU?$char_traits@D@std@@V?$allocator@D@2@@0@QAV10@@Z 1000e6f0 f i c_miscellaneous.obj
 0001:0000d6f0       ??$_Seek_wrapped@M@std@@YAXAAPAMQAM@Z 1000e6f0 f i c_font.obj
 0001:0000d6f0       ??$_Seek_wrapped@V?$basic_json@Vmap@std@@Vvector@2@V?$basic_string@DU?$char_traits@D@std@@V?$allocator@D@2@@2@_N_J_KNVallocator@2@Uadl_serializer@nlohmann@@@nlohmann@@@std@@YAXAAPAV?$basic_json@Vmap@std@@Vvector@2@V?$basic_string@DU?$char_traits@D@std@@V?$allocator@D@2@@2@_N_J_KNVallocator@2@Uadl_serializer@nlohmann@@@nlohmann@@QAV12@@Z 1000e6f0 f i c_conf.obj
 0001:0000d6f0       ??$_Seek_wrapped@W4hitbox@c_cs_player@@@std@@YAXAAPAW4hitbox@c_cs_player@@QAW412@@Z 1000e6f0 f i c_ragebot.obj
 0001:0000d6f0       ??$_Seek_wrapped@V?$tuple@MMM@std@@@std@@YAXAAPAV?$tuple@MMM@0@QAV10@@Z 1000e6f0 f i c_aimhelper.obj
 0001:0000d6f0       ??$_Seek_wrapped@PAUanimation@c_animation_system@@@std@@YAXAAPAPAUanimation@c_animation_system@@QAPAU12@@Z 1000e6f0 f i c_aimhelper.obj
 0001:0000d6f0       ??$_Seek_wrapped@H@std@@YAXAAPAHQAH@Z 1000e6f0 f i c_aimhelper.obj
 0001:0000d6f0       ??$_Seek_wrapped@PAUshot@resolver@@@std@@YAXAAPAPAUshot@resolver@@QAPAU12@@Z 1000e6f0 f i c_resolver.obj
 0001:0000d6f0       ??$_Seek_wrapped@U?$pair@V?$basic_string@DU?$char_traits@D@std@@V?$allocator@D@2@@std@@D@std@@@std@@YAXAAPAU?$pair@V?$basic_string@DU?$char_traits@D@std@@V?$allocator@D@2@@std@@D@0@QAU10@@Z 1000e6f0 f i c_menu.obj
 0001:0000d6f0       ??$_Seek_wrapped@U?$pair@V?$shared_ptr@Vc_drawable@@@std@@U?$pair@Vc_vector2d@@V1@@2@@std@@@std@@YAXAAPAU?$pair@V?$shared_ptr@Vc_drawable@@@std@@U?$pair@Vc_vector2d@@V1@@2@@0@QAU10@@Z 1000e6f0 f i c_aiming.obj
 0001:0000d6f0       ??$_Seek_wrapped@V?$_List_unchecked_iterator@V?$_List_val@U?$_List_simple_types@U?$pair@$$CBIV?$unordered_map@IUnetvar@c_netvar@@U?$hash@I@std@@U?$equal_to@I@4@V?$allocator@U?$pair@$$CBIUnetvar@c_netvar@@@std@@@4@@std@@@std@@@std@@@std@@@std@@@std@@YAXAAPAV?$_List_unchecked_iterator@V?$_List_val@U?$_List_simple_types@U?$pair@$$CBIV?$unordered_map@IUnetvar@c_netvar@@U?$hash@I@std@@U?$equal_to@I@4@V?$allocator@U?$pair@$$CBIUnetvar@c_netvar@@@std@@@4@@std@@@std@@@std@@@std@@@0@QAV10@@Z 1000e6f0 f i c_aimhelper.obj
 0001:0000d6f0       ??$_Seek_wrapped@Uhitmarker_info@@@std@@YAXAAPAUhitmarker_info@@QAU1@@Z 1000e6f0 f i c_hitmarker.obj
 0001:0000d6f0       ??$_Seek_wrapped@D@std@@YAXAAPADQAD@Z 1000e6f0 f i c_conf.obj
 0001:0000d720       ??$_Test_callable@V<lambda_1>@?1??for_each_player_fixed_z_order@c_client_entity_list@@QAEXV?$function@$$A6AXPAVc_cs_player@@@Z@std@@@Z@@std@@YA_NABV<lambda_1>@?1??for_each_player_fixed_z_order@c_client_entity_list@@QAEXV?$function@$$A6AXPAVc_cs_player@@@Z@0@@Z@U?$integral_constant@_N$0A@@0@@Z 1000e720 f   c_chams.obj
 0001:0000d720       ??$_Test_callable@V<lambda_2_>@@@std@@YA_NABV<lambda_2_>@@U?$integral_constant@_N$0A@@0@@Z 1000e720 f   c_conf.obj
 0001:0000d730       ??$_Try_emplace@I$$V@?$unordered_map@IUnetvar@c_netvar@@U?$hash@I@std@@U?$equal_to@I@4@V?$allocator@U?$pair@$$CBIUnetvar@c_netvar@@@std@@@4@@std@@QAE?AU?$pair@V?$_List_iterator@V?$_List_val@U?$_List_simple_types@U?$pair@$$CBIUnetvar@c_netvar@@@std@@@std@@@std@@@std@@_N@1@$$QAI@Z 1000e730 f i c_aimhelper.obj
 0001:0000d7d0       ??$_Try_emplace@I$$V@?$unordered_map@IV?$unordered_map@IUnetvar@c_netvar@@U?$hash@I@std@@U?$equal_to@I@4@V?$allocator@U?$pair@$$CBIUnetvar@c_netvar@@@std@@@4@@std@@U?$hash@I@2@U?$equal_to@I@2@V?$allocator@U?$pair@$$CBIV?$unordered_map@IUnetvar@c_netvar@@U?$hash@I@std@@U?$equal_to@I@4@V?$allocator@U?$pair@$$CBIUnetvar@c_netvar@@@std@@@4@@std@@@std@@@2@@std@@QAE?AU?$pair@V?$_List_iterator@V?$_List_val@U?$_List_simple_types@U?$pair@$$CBIV?$unordered_map@IUnetvar@c_netvar@@U?$hash@I@std@@U?$equal_to@I@4@V?$allocator@U?$pair@$$CBIUnetvar@c_netvar@@@std@@@4@@std@@@std@@@std@@@std@@@std@@_N@1@$$QAI@Z 1000e7d0 f i c_aimhelper.obj
 0001:0000d870       ?_Umove@?$vector@HV?$allocator@H@std@@@std@@AAEPAHPAH00@Z 1000e870 f i c_aimhelper.obj
 0001:0000d870       ??$_Ucopy@PBQAUanimation@c_animation_system@@@?$vector@PAUanimation@c_animation_system@@V?$allocator@PAUanimation@c_animation_system@@@std@@@std@@AAEPAPAUanimation@c_animation_system@@PBQAU23@0PAPAU23@@Z 1000e870 f i c_aimhelper.obj
 0001:0000d870       ?_Umove@?$vector@W4hitbox@c_cs_player@@V?$allocator@W4hitbox@c_cs_player@@@std@@@std@@AAEPAW4hitbox@c_cs_player@@PAW434@00@Z 1000e870 f i c_ragebot.obj
 0001:0000d870       ??$_Ucopy@PAM@?$vector@MV?$allocator@M@std@@@std@@AAEPAMPAM00@Z 1000e870 f i c_renderer.obj
 0001:0000d870       ?_Umove@?$vector@PAUanimation@c_animation_system@@V?$allocator@PAUanimation@c_animation_system@@@std@@@std@@AAEPAPAUanimation@c_animation_system@@PAPAU34@00@Z 1000e870 f i c_animation_system.obj
 0001:0000d8a0       ??$_Uninit_alloc_fill_n1@PAV?$_List_unchecked_iterator@V?$_List_val@U?$_List_simple_types@U?$pair@$$CBIUnetvar@c_netvar@@@std@@@std@@@std@@@std@@IV?$allocator@V?$_List_unchecked_iterator@V?$_List_val@U?$_List_simple_types@U?$pair@$$CBIUnetvar@c_netvar@@@std@@@std@@@std@@@std@@@2@@std@@YAPAV?$_List_unchecked_iterator@V?$_List_val@U?$_List_simple_types@U?$pair@$$CBIUnetvar@c_netvar@@@std@@@std@@@std@@@0@QAV10@IABV10@AAV?$allocator@V?$_List_unchecked_iterator@V?$_List_val@U?$_List_simple_types@U?$pair@$$CBIUnetvar@c_netvar@@@std@@@std@@@std@@@std@@@0@U?$integral_constant@_N$0A@@0@@Z 1000e8a0 f i c_aimhelper.obj
 0001:0000d8a0       ??$_Uninit_alloc_fill_n1@PAV?$_List_unchecked_iterator@V?$_List_val@U?$_List_simple_types@U?$pair@QAVc_hotkey_select@@V?$function@$$A6AXI@Z@std@@@std@@@std@@@std@@@std@@IV?$allocator@V?$_List_unchecked_iterator@V?$_List_val@U?$_List_simple_types@U?$pair@QAVc_hotkey_select@@V?$function@$$A6AXI@Z@std@@@std@@@std@@@std@@@std@@@2@@std@@YAPAV?$_List_unchecked_iterator@V?$_List_val@U?$_List_simple_types@U?$pair@QAVc_hotkey_select@@V?$function@$$A6AXI@Z@std@@@std@@@std@@@std@@@0@QAV10@IABV10@AAV?$allocator@V?$_List_unchecked_iterator@V?$_List_val@U?$_List_simple_types@U?$pair@QAVc_hotkey_select@@V?$function@$$A6AXI@Z@std@@@std@@@std@@@std@@@std@@@0@U?$integral_constant@_N$0A@@0@@Z 1000e8a0 f i c_hotkeys.obj
 0001:0000d8a0       ??$_Uninit_alloc_fill_n1@PAV?$_List_unchecked_iterator@V?$_List_val@U?$_List_simple_types@U?$pair@$$CBIUanimation_info@c_animation_system@@@std@@@std@@@std@@@std@@IV?$allocator@V?$_List_unchecked_iterator@V?$_List_val@U?$_List_simple_types@U?$pair@$$CBIUanimation_info@c_animation_system@@@std@@@std@@@std@@@std@@@2@@std@@YAPAV?$_List_unchecked_iterator@V?$_List_val@U?$_List_simple_types@U?$pair@$$CBIUanimation_info@c_animation_system@@@std@@@std@@@std@@@0@QAV10@IABV10@AAV?$allocator@V?$_List_unchecked_iterator@V?$_List_val@U?$_List_simple_types@U?$pair@$$CBIUanimation_info@c_animation_system@@@std@@@std@@@std@@@std@@@0@U?$integral_constant@_N$0A@@0@@Z 1000e8a0 f i c_aimhelper.obj
 0001:0000d8a0       ??$_Uninit_alloc_fill_n1@PAV?$_List_unchecked_iterator@V?$_List_val@U?$_List_simple_types@U?$pair@$$CBIVc_font@@@std@@@std@@@std@@@std@@IV?$allocator@V?$_List_unchecked_iterator@V?$_List_val@U?$_List_simple_types@U?$pair@$$CBIVc_font@@@std@@@std@@@std@@@std@@@2@@std@@YAPAV?$_List_unchecked_iterator@V?$_List_val@U?$_List_simple_types@U?$pair@$$CBIVc_font@@@std@@@std@@@std@@@0@QAV10@IABV10@AAV?$allocator@V?$_List_unchecked_iterator@V?$_List_val@U?$_List_simple_types@U?$pair@$$CBIVc_font@@@std@@@std@@@std@@@std@@@0@U?$integral_constant@_N$0A@@0@@Z 1000e8a0 f i c_renderer.obj
 0001:0000d8a0       ??$_Uninit_alloc_fill_n1@PAV?$_List_unchecked_iterator@V?$_List_val@U?$_List_simple_types@U?$pair@$$CBIU?$pair@HH@std@@@std@@@std@@@std@@@std@@IV?$allocator@V?$_List_unchecked_iterator@V?$_List_val@U?$_List_simple_types@U?$pair@$$CBIU?$pair@HH@std@@@std@@@std@@@std@@@std@@@2@@std@@YAPAV?$_List_unchecked_iterator@V?$_List_val@U?$_List_simple_types@U?$pair@$$CBIU?$pair@HH@std@@@std@@@std@@@std@@@0@QAV10@IABV10@AAV?$allocator@V?$_List_unchecked_iterator@V?$_List_val@U?$_List_simple_types@U?$pair@$$CBIU?$pair@HH@std@@@std@@@std@@@std@@@std@@@0@U?$integral_constant@_N$0A@@0@@Z 1000e8a0 f i c_esp.obj
 0001:0000d8a0       ??$_Uninit_alloc_fill_n1@PAV?$_List_unchecked_iterator@V?$_List_val@U?$_List_simple_types@U?$pair@$$CBIV?$unordered_map@IUnetvar@c_netvar@@U?$hash@I@std@@U?$equal_to@I@4@V?$allocator@U?$pair@$$CBIUnetvar@c_netvar@@@std@@@4@@std@@@std@@@std@@@std@@@std@@IV?$allocator@V?$_List_unchecked_iterator@V?$_List_val@U?$_List_simple_types@U?$pair@$$CBIV?$unordered_map@IUnetvar@c_netvar@@U?$hash@I@std@@U?$equal_to@I@4@V?$allocator@U?$pair@$$CBIUnetvar@c_netvar@@@std@@@4@@std@@@std@@@std@@@std@@@std@@@2@@std@@YAPAV?$_List_unchecked_iterator@V?$_List_val@U?$_List_simple_types@U?$pair@$$CBIV?$unordered_map@IUnetvar@c_netvar@@U?$hash@I@std@@U?$equal_to@I@4@V?$allocator@U?$pair@$$CBIUnetvar@c_netvar@@@std@@@4@@std@@@std@@@std@@@std@@@0@QAV10@IABV10@AAV?$allocator@V?$_List_unchecked_iterator@V?$_List_val@U?$_List_simple_types@U?$pair@$$CBIV?$unordered_map@IUnetvar@c_netvar@@U?$hash@I@std@@U?$equal_to@I@4@V?$allocator@U?$pair@$$CBIUnetvar@c_netvar@@@std@@@4@@std@@@std@@@std@@@std@@@std@@@0@U?$integral_constant@_N$0A@@0@@Z 1000e8a0 f i c_aimhelper.obj
 0001:0000d930       ??$_Uninitialized_copy@PBQAUanimation@c_animation_system@@PAPAU12@V?$allocator@PAUanimation@c_animation_system@@@std@@@std@@YAPAPAUanimation@c_animation_system@@QBQAU12@0PAPAU12@AAV?$allocator@PAUanimation@c_animation_system@@@0@@Z 1000e930 f i c_aimhelper.obj
 0001:0000d930       ??$_Uninitialized_copy@PAMPAMV?$allocator@M@std@@@std@@YAPAMQAM0PAMAAV?$allocator@M@0@@Z 1000e930 f i c_renderer.obj
 0001:0000d930       ??$_Uninitialized_move@PAMPAMV?$allocator@M@std@@@std@@YAPAMQAM0PAMAAV?$allocator@M@0@@Z 1000e930 f i c_font.obj
 0001:0000d930       ??$_Uninitialized_move@PAW4hitbox@c_cs_player@@PAW412@V?$allocator@W4hitbox@c_cs_player@@@std@@@std@@YAPAW4hitbox@c_cs_player@@QAW412@0PAW412@AAV?$allocator@W4hitbox@c_cs_player@@@0@@Z 1000e930 f i c_ragebot.obj
 0001:0000d930       ??$_Uninitialized_copy@PAPAUanimation@c_animation_system@@PAPAU12@V?$allocator@PAUanimation@c_animation_system@@@std@@@std@@YAPAPAUanimation@c_animation_system@@QAPAU12@0PAPAU12@AAV?$allocator@PAUanimation@c_animation_system@@@0@@Z 1000e930 f i c_animation_system.obj
 0001:0000d930       ??$_Uninitialized_move@PAPAUanimation@c_animation_system@@PAPAU12@V?$allocator@PAUanimation@c_animation_system@@@std@@@std@@YAPAPAUanimation@c_animation_system@@QAPAU12@0PAPAU12@AAV?$allocator@PAUanimation@c_animation_system@@@0@@Z 1000e930 f i c_animation_system.obj
 0001:0000d930       ??$_Uninitialized_copy@PAPAUc_incoming_sequence@@PAPAU1@V?$allocator@PAUc_incoming_sequence@@@std@@@std@@YAPAPAUc_incoming_sequence@@QAPAU1@0PAPAU1@AAV?$allocator@PAUc_incoming_sequence@@@0@@Z 1000e930 f i c_net_channel_.obj
 0001:0000d930       ??$_Uninitialized_move@PAHPAHV?$allocator@H@std@@@std@@YAPAHQAH0PAHAAV?$allocator@H@0@@Z 1000e930 f i c_aimhelper.obj
 0001:0000d930       ??$_Uninitialized_copy@PAPAUshot@resolver@@PAPAU12@V?$allocator@PAUshot@resolver@@@std@@@std@@YAPAPAUshot@resolver@@QAPAU12@0PAPAU12@AAV?$allocator@PAUshot@resolver@@@0@@Z 1000e930 f i c_resolver.obj
 0001:0000d9b0       ??$_Uninitialized_fill_n@PAV?$_List_unchecked_iterator@V?$_List_val@U?$_List_simple_types@U?$pair@$$CBIV?$unordered_map@IUnetvar@c_netvar@@U?$hash@I@std@@U?$equal_to@I@4@V?$allocator@U?$pair@$$CBIUnetvar@c_netvar@@@std@@@4@@std@@@std@@@std@@@std@@@std@@IV?$allocator@V?$_List_unchecked_iterator@V?$_List_val@U?$_List_simple_types@U?$pair@$$CBIV?$unordered_map@IUnetvar@c_netvar@@U?$hash@I@std@@U?$equal_to@I@4@V?$allocator@U?$pair@$$CBIUnetvar@c_netvar@@@std@@@4@@std@@@std@@@std@@@std@@@std@@@2@@std@@YAPAV?$_List_unchecked_iterator@V?$_List_val@U?$_List_simple_types@U?$pair@$$CBIV?$unordered_map@IUnetvar@c_netvar@@U?$hash@I@std@@U?$equal_to@I@4@V?$allocator@U?$pair@$$CBIUnetvar@c_netvar@@@std@@@4@@std@@@std@@@std@@@std@@@0@QAV10@IABV10@AAV?$allocator@V?$_List_unchecked_iterator@V?$_List_val@U?$_List_simple_types@U?$pair@$$CBIV?$unordered_map@IUnetvar@c_netvar@@U?$hash@I@std@@U?$equal_to@I@4@V?$allocator@U?$pair@$$CBIUnetvar@c_netvar@@@std@@@4@@std@@@std@@@std@@@std@@@std@@@0@@Z 1000e9b0 f i c_aimhelper.obj
 0001:0000d9b0       ??$_Uninitialized_fill_n@PAV?$_List_unchecked_iterator@V?$_List_val@U?$_List_simple_types@U?$pair@$$CBIU?$pair@HH@std@@@std@@@std@@@std@@@std@@IV?$allocator@V?$_List_unchecked_iterator@V?$_List_val@U?$_List_simple_types@U?$pair@$$CBIU?$pair@HH@std@@@std@@@std@@@std@@@std@@@2@@std@@YAPAV?$_List_unchecked_iterator@V?$_List_val@U?$_List_simple_types@U?$pair@$$CBIU?$pair@HH@std@@@std@@@std@@@std@@@0@QAV10@IABV10@AAV?$allocator@V?$_List_unchecked_iterator@V?$_List_val@U?$_List_simple_types@U?$pair@$$CBIU?$pair@HH@std@@@std@@@std@@@std@@@std@@@0@@Z 1000e9b0 f i c_esp.obj
 0001:0000d9b0       ??$_Uninitialized_fill_n@PAV?$_List_unchecked_iterator@V?$_List_val@U?$_List_simple_types@U?$pair@$$CBIUanimation_info@c_animation_system@@@std@@@std@@@std@@@std@@IV?$allocator@V?$_List_unchecked_iterator@V?$_List_val@U?$_List_simple_types@U?$pair@$$CBIUanimation_info@c_animation_system@@@std@@@std@@@std@@@std@@@2@@std@@YAPAV?$_List_unchecked_iterator@V?$_List_val@U?$_List_simple_types@U?$pair@$$CBIUanimation_info@c_animation_system@@@std@@@std@@@std@@@0@QAV10@IABV10@AAV?$allocator@V?$_List_unchecked_iterator@V?$_List_val@U?$_List_simple_types@U?$pair@$$CBIUanimation_info@c_animation_system@@@std@@@std@@@std@@@std@@@0@@Z 1000e9b0 f i c_aimhelper.obj
 0001:0000d9b0       ??$_Uninitialized_fill_n@PAV?$_List_unchecked_iterator@V?$_List_val@U?$_List_simple_types@U?$pair@QAVc_hotkey_select@@V?$function@$$A6AXI@Z@std@@@std@@@std@@@std@@@std@@IV?$allocator@V?$_List_unchecked_iterator@V?$_List_val@U?$_List_simple_types@U?$pair@QAVc_hotkey_select@@V?$function@$$A6AXI@Z@std@@@std@@@std@@@std@@@std@@@2@@std@@YAPAV?$_List_unchecked_iterator@V?$_List_val@U?$_List_simple_types@U?$pair@QAVc_hotkey_select@@V?$function@$$A6AXI@Z@std@@@std@@@std@@@std@@@0@QAV10@IABV10@AAV?$allocator@V?$_List_unchecked_iterator@V?$_List_val@U?$_List_simple_types@U?$pair@QAVc_hotkey_select@@V?$function@$$A6AXI@Z@std@@@std@@@std@@@std@@@std@@@0@@Z 1000e9b0 f i c_hotkeys.obj
 0001:0000d9b0       ??$_Uninitialized_fill_n@PAV?$_List_unchecked_iterator@V?$_List_val@U?$_List_simple_types@U?$pair@$$CBIVc_font@@@std@@@std@@@std@@@std@@IV?$allocator@V?$_List_unchecked_iterator@V?$_List_val@U?$_List_simple_types@U?$pair@$$CBIVc_font@@@std@@@std@@@std@@@std@@@2@@std@@YAPAV?$_List_unchecked_iterator@V?$_List_val@U?$_List_simple_types@U?$pair@$$CBIVc_font@@@std@@@std@@@std@@@0@QAV10@IABV10@AAV?$allocator@V?$_List_unchecked_iterator@V?$_List_val@U?$_List_simple_types@U?$pair@$$CBIVc_font@@@std@@@std@@@std@@@std@@@0@@Z 1000e9b0 f i c_renderer.obj
 0001:0000d9b0       ??$_Uninitialized_fill_n@PAV?$_List_unchecked_iterator@V?$_List_val@U?$_List_simple_types@U?$pair@$$CBIUnetvar@c_netvar@@@std@@@std@@@std@@@std@@IV?$allocator@V?$_List_unchecked_iterator@V?$_List_val@U?$_List_simple_types@U?$pair@$$CBIUnetvar@c_netvar@@@std@@@std@@@std@@@std@@@2@@std@@YAPAV?$_List_unchecked_iterator@V?$_List_val@U?$_List_simple_types@U?$pair@$$CBIUnetvar@c_netvar@@@std@@@std@@@std@@@0@QAV10@IABV10@AAV?$allocator@V?$_List_unchecked_iterator@V?$_List_val@U?$_List_simple_types@U?$pair@$$CBIUnetvar@c_netvar@@@std@@@std@@@std@@@std@@@0@@Z 1000e9b0 f i c_aimhelper.obj
 0001:0000d9e0       ??$_Uninitialized_move@PAUaim_info@c_aimhelper@@PAU12@V?$allocator@Uaim_info@c_aimhelper@@@std@@@std@@YAPAUaim_info@c_aimhelper@@QAU12@0PAU12@AAV?$allocator@Uaim_info@c_aimhelper@@@0@@Z 1000e9e0 f i c_aimhelper.obj
 0001:0000dad0       ??$_Uninitialized_move@PAV?$_List_unchecked_iterator@V?$_List_val@U?$_List_simple_types@U?$pair@$$CBIUnetvar@c_netvar@@@std@@@std@@@std@@@std@@PAV12@V?$allocator@V?$_List_unchecked_iterator@V?$_List_val@U?$_List_simple_types@U?$pair@$$CBIUnetvar@c_netvar@@@std@@@std@@@std@@@std@@@2@@std@@YAPAV?$_List_unchecked_iterator@V?$_List_val@U?$_List_simple_types@U?$pair@$$CBIUnetvar@c_netvar@@@std@@@std@@@std@@@0@QAV10@0PAV10@AAV?$allocator@V?$_List_unchecked_iterator@V?$_List_val@U?$_List_simple_types@U?$pair@$$CBIUnetvar@c_netvar@@@std@@@std@@@std@@@std@@@0@@Z 1000ead0 f i c_aimhelper.obj
 0001:0000dad0       ??$_Uninitialized_move@PAV?$_List_unchecked_iterator@V?$_List_val@U?$_List_simple_types@U?$pair@$$CBIUanimation_info@c_animation_system@@@std@@@std@@@std@@@std@@PAV12@V?$allocator@V?$_List_unchecked_iterator@V?$_List_val@U?$_List_simple_types@U?$pair@$$CBIUanimation_info@c_animation_system@@@std@@@std@@@std@@@std@@@2@@std@@YAPAV?$_List_unchecked_iterator@V?$_List_val@U?$_List_simple_types@U?$pair@$$CBIUanimation_info@c_animation_system@@@std@@@std@@@std@@@0@QAV10@0PAV10@AAV?$allocator@V?$_List_unchecked_iterator@V?$_List_val@U?$_List_simple_types@U?$pair@$$CBIUanimation_info@c_animation_system@@@std@@@std@@@std@@@std@@@0@@Z 1000ead0 f i c_animation_system.obj
 0001:0000dad0       ??$_Uninitialized_move@PAV?$_List_unchecked_iterator@V?$_List_val@U?$_List_simple_types@U?$pair@QAVc_hotkey_select@@V?$function@$$A6AXI@Z@std@@@std@@@std@@@std@@@std@@PAV12@V?$allocator@V?$_List_unchecked_iterator@V?$_List_val@U?$_List_simple_types@U?$pair@QAVc_hotkey_select@@V?$function@$$A6AXI@Z@std@@@std@@@std@@@std@@@std@@@2@@std@@YAPAV?$_List_unchecked_iterator@V?$_List_val@U?$_List_simple_types@U?$pair@QAVc_hotkey_select@@V?$function@$$A6AXI@Z@std@@@std@@@std@@@std@@@0@QAV10@0PAV10@AAV?$allocator@V?$_List_unchecked_iterator@V?$_List_val@U?$_List_simple_types@U?$pair@QAVc_hotkey_select@@V?$function@$$A6AXI@Z@std@@@std@@@std@@@std@@@std@@@0@@Z 1000ead0 f i c_hotkeys.obj
 0001:0000dad0       ??$_Uninitialized_move@PAV?$_List_unchecked_iterator@V?$_List_val@U?$_List_simple_types@U?$pair@$$CBIV?$unordered_map@IUnetvar@c_netvar@@U?$hash@I@std@@U?$equal_to@I@4@V?$allocator@U?$pair@$$CBIUnetvar@c_netvar@@@std@@@4@@std@@@std@@@std@@@std@@@std@@PAV12@V?$allocator@V?$_List_unchecked_iterator@V?$_List_val@U?$_List_simple_types@U?$pair@$$CBIV?$unordered_map@IUnetvar@c_netvar@@U?$hash@I@std@@U?$equal_to@I@4@V?$allocator@U?$pair@$$CBIUnetvar@c_netvar@@@std@@@4@@std@@@std@@@std@@@std@@@std@@@2@@std@@YAPAV?$_List_unchecked_iterator@V?$_List_val@U?$_List_simple_types@U?$pair@$$CBIV?$unordered_map@IUnetvar@c_netvar@@U?$hash@I@std@@U?$equal_to@I@4@V?$allocator@U?$pair@$$CBIUnetvar@c_netvar@@@std@@@4@@std@@@std@@@std@@@std@@@0@QAV10@0PAV10@AAV?$allocator@V?$_List_unchecked_iterator@V?$_List_val@U?$_List_simple_types@U?$pair@$$CBIV?$unordered_map@IUnetvar@c_netvar@@U?$hash@I@std@@U?$equal_to@I@4@V?$allocator@U?$pair@$$CBIUnetvar@c_netvar@@@std@@@4@@std@@@std@@@std@@@std@@@std@@@0@@Z 1000ead0 f i c_aimhelper.obj
 0001:0000dad0       ??$_Uninitialized_move@PAV?$_List_unchecked_iterator@V?$_List_val@U?$_List_simple_types@U?$pair@$$CBIVc_font@@@std@@@std@@@std@@@std@@PAV12@V?$allocator@V?$_List_unchecked_iterator@V?$_List_val@U?$_List_simple_types@U?$pair@$$CBIVc_font@@@std@@@std@@@std@@@std@@@2@@std@@YAPAV?$_List_unchecked_iterator@V?$_List_val@U?$_List_simple_types@U?$pair@$$CBIVc_font@@@std@@@std@@@std@@@0@QAV10@0PAV10@AAV?$allocator@V?$_List_unchecked_iterator@V?$_List_val@U?$_List_simple_types@U?$pair@$$CBIVc_font@@@std@@@std@@@std@@@std@@@0@@Z 1000ead0 f i c_renderer.obj
 0001:0000dad0       ??$_Uninitialized_move@PAV?$_List_unchecked_iterator@V?$_List_val@U?$_List_simple_types@U?$pair@$$CBIU?$pair@HH@std@@@std@@@std@@@std@@@std@@PAV12@V?$allocator@V?$_List_unchecked_iterator@V?$_List_val@U?$_List_simple_types@U?$pair@$$CBIU?$pair@HH@std@@@std@@@std@@@std@@@std@@@2@@std@@YAPAV?$_List_unchecked_iterator@V?$_List_val@U?$_List_simple_types@U?$pair@$$CBIU?$pair@HH@std@@@std@@@std@@@std@@@0@QAV10@0PAV10@AAV?$allocator@V?$_List_unchecked_iterator@V?$_List_val@U?$_List_simple_types@U?$pair@$$CBIU?$pair@HH@std@@@std@@@std@@@std@@@std@@@0@@Z 1000ead0 f i c_esp.obj
 0001:0000dbc0       ??$_Uninitialized_move@PAV?$tuple@MMM@std@@PAV12@V?$allocator@V?$tuple@MMM@std@@@2@@std@@YAPAV?$tuple@MMM@0@QAV10@0PAV10@AAV?$allocator@V?$tuple@MMM@std@@@0@@Z 1000ebc0 f i c_aimhelper.obj
 0001:0000dcb0       ??$construct@U?$pair@$$CBIUnetvar@c_netvar@@@std@@ABUpiecewise_construct_t@2@V?$tuple@$$QAI@2@V?$tuple@$$V@2@@?$_Default_allocator_traits@V?$allocator@U?$_List_node@U?$pair@$$CBIUnetvar@c_netvar@@@std@@PAX@std@@@std@@@std@@SAXAAV?$allocator@U?$_List_node@U?$pair@$$CBIUnetvar@c_netvar@@@std@@PAX@std@@@1@QAU?$pair@$$CBIUnetvar@c_netvar@@@1@ABUpiecewise_construct_t@1@$$QAV?$tuple@$$QAI@1@$$QAV?$tuple@$$V@1@@Z 1000ecb0 f i c_aimhelper.obj
 0001:0000dd30       ??$construct@U?$pair@$$CBIV?$unordered_map@IUnetvar@c_netvar@@U?$hash@I@std@@U?$equal_to@I@4@V?$allocator@U?$pair@$$CBIUnetvar@c_netvar@@@std@@@4@@std@@@std@@ABUpiecewise_construct_t@2@V?$tuple@$$QAI@2@V?$tuple@$$V@2@@?$_Default_allocator_traits@V?$allocator@U?$_List_node@U?$pair@$$CBIV?$unordered_map@IUnetvar@c_netvar@@U?$hash@I@std@@U?$equal_to@I@4@V?$allocator@U?$pair@$$CBIUnetvar@c_netvar@@@std@@@4@@std@@@std@@PAX@std@@@std@@@std@@SAXAAV?$allocator@U?$_List_node@U?$pair@$$CBIV?$unordered_map@IUnetvar@c_netvar@@U?$hash@I@std@@U?$equal_to@I@4@V?$allocator@U?$pair@$$CBIUnetvar@c_netvar@@@std@@@4@@std@@@std@@PAX@std@@@1@QAU?$pair@$$CBIV?$unordered_map@IUnetvar@c_netvar@@U?$hash@I@std@@U?$equal_to@I@4@V?$allocator@U?$pair@$$CBIUnetvar@c_netvar@@@std@@@4@@std@@@1@ABUpiecewise_construct_t@1@$$QAV?$tuple@$$QAI@1@$$QAV?$tuple@$$V@1@@Z 1000ed30 f i c_aimhelper.obj
 0001:0000ddb0       ??$construct@Uaim_info@c_aimhelper@@U12@@?$_Default_allocator_traits@V?$allocator@Uaim_info@c_aimhelper@@@std@@@std@@SAXAAV?$allocator@Uaim_info@c_aimhelper@@@1@QAUaim_info@c_aimhelper@@$$QAU34@@Z 1000edb0 f i c_aimhelper.obj
 0001:0000ddb0       ??$construct@Uaim_info@c_aimhelper@@ABU12@@?$_Default_allocator_traits@V?$allocator@Uaim_info@c_aimhelper@@@std@@@std@@SAXAAV?$allocator@Uaim_info@c_aimhelper@@@1@QAUaim_info@c_aimhelper@@ABU34@@Z 1000edb0 f i c_ragebot.obj
 0001:0000ddf0       ??$construct@Uaim_info@c_aimhelper@@AAVc_vector3d@@MAAPAUanimation@c_animation_system@@_NAAV3@MMAAW4hitbox@c_cs_player@@H@?$_Default_allocator_traits@V?$allocator@Uaim_info@c_aimhelper@@@std@@@std@@SAXAAV?$allocator@Uaim_info@c_aimhelper@@@1@QAUaim_info@c_aimhelper@@AAVc_vector3d@@$$QAMAAPAUanimation@c_animation_system@@$$QA_N233AAW4hitbox@c_cs_player@@$$QAH@Z 1000edf0 f i c_ragebot.obj
 0001:0000ddf0       ??$construct@Uaim_info@c_aimhelper@@Vc_vector3d@@MAAPAUanimation@c_animation_system@@_NABV3@AAMAAMAAW4hitbox@c_cs_player@@AAH@?$_Default_allocator_traits@V?$allocator@Uaim_info@c_aimhelper@@@std@@@std@@SAXAAV?$allocator@Uaim_info@c_aimhelper@@@1@QAUaim_info@c_aimhelper@@$$QAVc_vector3d@@$$QAMAAPAUanimation@c_animation_system@@$$QA_NABV5@AAM7AAW4hitbox@c_cs_player@@AAH@Z 1000edf0 f i c_aimhelper.obj
 0001:0000e140       ??$construct@V?$_List_unchecked_iterator@V?$_List_val@U?$_List_simple_types@U?$pair@$$CBIU?$pair@HH@std@@@std@@@std@@@std@@@std@@V12@@?$_Default_allocator_traits@V?$allocator@V?$_List_unchecked_iterator@V?$_List_val@U?$_List_simple_types@U?$pair@$$CBIU?$pair@HH@std@@@std@@@std@@@std@@@std@@@std@@@std@@SAXAAV?$allocator@V?$_List_unchecked_iterator@V?$_List_val@U?$_List_simple_types@U?$pair@$$CBIU?$pair@HH@std@@@std@@@std@@@std@@@std@@@1@QAV?$_List_unchecked_iterator@V?$_List_val@U?$_List_simple_types@U?$pair@$$CBIU?$pair@HH@std@@@std@@@std@@@std@@@1@$$QAV31@@Z 1000f140 f i c_esp.obj
 0001:0000e140       ??$construct@V?$_List_unchecked_iterator@V?$_List_val@U?$_List_simple_types@U?$pair@QAVc_hotkey_select@@V?$function@$$A6AXI@Z@std@@@std@@@std@@@std@@@std@@ABV12@@?$_Default_allocator_traits@V?$allocator@V?$_List_unchecked_iterator@V?$_List_val@U?$_List_simple_types@U?$pair@QAVc_hotkey_select@@V?$function@$$A6AXI@Z@std@@@std@@@std@@@std@@@std@@@std@@@std@@SAXAAV?$allocator@V?$_List_unchecked_iterator@V?$_List_val@U?$_List_simple_types@U?$pair@QAVc_hotkey_select@@V?$function@$$A6AXI@Z@std@@@std@@@std@@@std@@@std@@@1@QAV?$_List_unchecked_iterator@V?$_List_val@U?$_List_simple_types@U?$pair@QAVc_hotkey_select@@V?$function@$$A6AXI@Z@std@@@std@@@std@@@std@@@1@ABV31@@Z 1000f140 f i c_hotkeys.obj
 0001:0000e140       ??$construct@V?$_List_unchecked_iterator@V?$_List_val@U?$_List_simple_types@U?$pair@QAVc_hotkey_select@@V?$function@$$A6AXI@Z@std@@@std@@@std@@@std@@@std@@V12@@?$_Default_allocator_traits@V?$allocator@V?$_List_unchecked_iterator@V?$_List_val@U?$_List_simple_types@U?$pair@QAVc_hotkey_select@@V?$function@$$A6AXI@Z@std@@@std@@@std@@@std@@@std@@@std@@@std@@SAXAAV?$allocator@V?$_List_unchecked_iterator@V?$_List_val@U?$_List_simple_types@U?$pair@QAVc_hotkey_select@@V?$function@$$A6AXI@Z@std@@@std@@@std@@@std@@@std@@@1@QAV?$_List_unchecked_iterator@V?$_List_val@U?$_List_simple_types@U?$pair@QAVc_hotkey_select@@V?$function@$$A6AXI@Z@std@@@std@@@std@@@std@@@1@$$QAV31@@Z 1000f140 f i c_hotkeys.obj
 0001:0000e140       ??$construct@V?$_List_unchecked_iterator@V?$_List_val@U?$_List_simple_types@U?$pair@$$CBIUanimation_info@c_animation_system@@@std@@@std@@@std@@@std@@ABV12@@?$_Default_allocator_traits@V?$allocator@V?$_List_unchecked_iterator@V?$_List_val@U?$_List_simple_types@U?$pair@$$CBIUanimation_info@c_animation_system@@@std@@@std@@@std@@@std@@@std@@@std@@SAXAAV?$allocator@V?$_List_unchecked_iterator@V?$_List_val@U?$_List_simple_types@U?$pair@$$CBIUanimation_info@c_animation_system@@@std@@@std@@@std@@@std@@@1@QAV?$_List_unchecked_iterator@V?$_List_val@U?$_List_simple_types@U?$pair@$$CBIUanimation_info@c_animation_system@@@std@@@std@@@std@@@1@ABV31@@Z 1000f140 f i c_aimhelper.obj
